; Listing generated by Microsoft (R) Optimizing Compiler Version 19.16.27030.1 

	TITLE	C:\Dev\Tetris\src\board.cpp
	.686P
	.XMM
	include listing.inc
	.model	flat

INCLUDELIB LIBCMT
INCLUDELIB OLDNAMES

PUBLIC	?max@?$numeric_limits@H@std@@SAHXZ		; std::numeric_limits<int>::max
PUBLIC	?_Orphan_all@_Container_base0@std@@QAEXXZ	; std::_Container_base0::_Orphan_all
PUBLIC	?_Adopt@_Iterator_base0@std@@QAEXPBX@Z		; std::_Iterator_base0::_Adopt
PUBLIC	?_Allocate@_Default_allocate_traits@std@@SAPAXI@Z ; std::_Default_allocate_traits::_Allocate
PUBLIC	?_Adjust_manually_vector_aligned@std@@YAXAAPAXAAI@Z ; std::_Adjust_manually_vector_aligned
PUBLIC	??0?$allocator@H@std@@QAE@XZ			; std::allocator<int>::allocator<int>
PUBLIC	?deallocate@?$allocator@H@std@@QAEXQAHI@Z	; std::allocator<int>::deallocate
PUBLIC	?allocate@?$allocator@H@std@@QAEPAHI@Z		; std::allocator<int>::allocate
PUBLIC	?max_size@?$_Default_allocator_traits@V?$allocator@H@std@@@std@@SAIABV?$allocator@H@2@@Z ; std::_Default_allocator_traits<std::allocator<int> >::max_size
PUBLIC	??0?$_Vector_alloc@U?$_Vec_base_types@HV?$allocator@H@std@@@std@@@std@@QAE@XZ ; std::_Vector_alloc<std::_Vec_base_types<int,std::allocator<int> > >::_Vector_alloc<std::_Vec_base_types<int,std::allocator<int> > >
PUBLIC	?_Orphan_all@?$_Vector_alloc@U?$_Vec_base_types@HV?$allocator@H@std@@@std@@@std@@QAEXXZ ; std::_Vector_alloc<std::_Vec_base_types<int,std::allocator<int> > >::_Orphan_all
PUBLIC	?_Getal@?$_Vector_alloc@U?$_Vec_base_types@HV?$allocator@H@std@@@std@@@std@@QAEAAV?$allocator@H@2@XZ ; std::_Vector_alloc<std::_Vec_base_types<int,std::allocator<int> > >::_Getal
PUBLIC	?_Getal@?$_Vector_alloc@U?$_Vec_base_types@HV?$allocator@H@std@@@std@@@std@@QBEABV?$allocator@H@2@XZ ; std::_Vector_alloc<std::_Vec_base_types<int,std::allocator<int> > >::_Getal
PUBLIC	?_Get_data@?$_Vector_alloc@U?$_Vec_base_types@HV?$allocator@H@std@@@std@@@std@@QAEAAV?$_Vector_val@U?$_Simple_types@H@std@@@2@XZ ; std::_Vector_alloc<std::_Vec_base_types<int,std::allocator<int> > >::_Get_data
PUBLIC	?_Get_data@?$_Vector_alloc@U?$_Vec_base_types@HV?$allocator@H@std@@@std@@@std@@QBEABV?$_Vector_val@U?$_Simple_types@H@std@@@2@XZ ; std::_Vector_alloc<std::_Vec_base_types<int,std::allocator<int> > >::_Get_data
PUBLIC	?_Myfirst@?$_Vector_alloc@U?$_Vec_base_types@HV?$allocator@H@std@@@std@@@std@@QAEAAPAHXZ ; std::_Vector_alloc<std::_Vec_base_types<int,std::allocator<int> > >::_Myfirst
PUBLIC	?_Myfirst@?$_Vector_alloc@U?$_Vec_base_types@HV?$allocator@H@std@@@std@@@std@@QBEABQAHXZ ; std::_Vector_alloc<std::_Vec_base_types<int,std::allocator<int> > >::_Myfirst
PUBLIC	?_Mylast@?$_Vector_alloc@U?$_Vec_base_types@HV?$allocator@H@std@@@std@@@std@@QAEAAPAHXZ ; std::_Vector_alloc<std::_Vec_base_types<int,std::allocator<int> > >::_Mylast
PUBLIC	?_Mylast@?$_Vector_alloc@U?$_Vec_base_types@HV?$allocator@H@std@@@std@@@std@@QBEABQAHXZ ; std::_Vector_alloc<std::_Vec_base_types<int,std::allocator<int> > >::_Mylast
PUBLIC	?_Myend@?$_Vector_alloc@U?$_Vec_base_types@HV?$allocator@H@std@@@std@@@std@@QAEAAPAHXZ ; std::_Vector_alloc<std::_Vec_base_types<int,std::allocator<int> > >::_Myend
PUBLIC	?_Myend@?$_Vector_alloc@U?$_Vec_base_types@HV?$allocator@H@std@@@std@@@std@@QBEABQAHXZ ; std::_Vector_alloc<std::_Vec_base_types<int,std::allocator<int> > >::_Myend
PUBLIC	??0?$_Vector_val@U?$_Simple_types@H@std@@@std@@QAE@XZ ; std::_Vector_val<std::_Simple_types<int> >::_Vector_val<std::_Simple_types<int> >
PUBLIC	?_Get_first@?$_Compressed_pair@V?$allocator@H@std@@V?$_Vector_val@U?$_Simple_types@H@std@@@2@$00@std@@QAEAAV?$allocator@H@2@XZ ; std::_Compressed_pair<std::allocator<int>,std::_Vector_val<std::_Simple_types<int> >,1>::_Get_first
PUBLIC	?_Get_first@?$_Compressed_pair@V?$allocator@H@std@@V?$_Vector_val@U?$_Simple_types@H@std@@@2@$00@std@@QBEABV?$allocator@H@2@XZ ; std::_Compressed_pair<std::allocator<int>,std::_Vector_val<std::_Simple_types<int> >,1>::_Get_first
PUBLIC	?_Get_second@?$_Compressed_pair@V?$allocator@H@std@@V?$_Vector_val@U?$_Simple_types@H@std@@@2@$00@std@@QAEAAV?$_Vector_val@U?$_Simple_types@H@std@@@2@XZ ; std::_Compressed_pair<std::allocator<int>,std::_Vector_val<std::_Simple_types<int> >,1>::_Get_second
PUBLIC	?_Get_second@?$_Compressed_pair@V?$allocator@H@std@@V?$_Vector_val@U?$_Simple_types@H@std@@@2@$00@std@@QBEABV?$_Vector_val@U?$_Simple_types@H@std@@@2@XZ ; std::_Compressed_pair<std::allocator<int>,std::_Vector_val<std::_Simple_types<int> >,1>::_Get_second
PUBLIC	??0?$vector@HV?$allocator@H@std@@@std@@QAE@XZ	; std::vector<int,std::allocator<int> >::vector<int,std::allocator<int> >
PUBLIC	??1?$vector@HV?$allocator@H@std@@@std@@QAE@XZ	; std::vector<int,std::allocator<int> >::~vector<int,std::allocator<int> >
PUBLIC	?resize@?$vector@HV?$allocator@H@std@@@std@@QAEXI@Z ; std::vector<int,std::allocator<int> >::resize
PUBLIC	?begin@?$vector@HV?$allocator@H@std@@@std@@QAE?AV?$_Vector_iterator@V?$_Vector_val@U?$_Simple_types@H@std@@@std@@@2@XZ ; std::vector<int,std::allocator<int> >::begin
PUBLIC	?end@?$vector@HV?$allocator@H@std@@@std@@QAE?AV?$_Vector_iterator@V?$_Vector_val@U?$_Simple_types@H@std@@@std@@@2@XZ ; std::vector<int,std::allocator<int> >::end
PUBLIC	?size@?$vector@HV?$allocator@H@std@@@std@@QBEIXZ ; std::vector<int,std::allocator<int> >::size
PUBLIC	?max_size@?$vector@HV?$allocator@H@std@@@std@@QBEIXZ ; std::vector<int,std::allocator<int> >::max_size
PUBLIC	?capacity@?$vector@HV?$allocator@H@std@@@std@@QBEIXZ ; std::vector<int,std::allocator<int> >::capacity
PUBLIC	??A?$vector@HV?$allocator@H@std@@@std@@QBEABHI@Z ; std::vector<int,std::allocator<int> >::operator[]
PUBLIC	?_Udefault@?$vector@HV?$allocator@H@std@@@std@@AAEPAHPAHI@Z ; std::vector<int,std::allocator<int> >::_Udefault
PUBLIC	?_Umove_if_noexcept1@?$vector@HV?$allocator@H@std@@@std@@AAEXPAH00U?$integral_constant@_N$00@2@@Z ; std::vector<int,std::allocator<int> >::_Umove_if_noexcept1
PUBLIC	?_Umove_if_noexcept@?$vector@HV?$allocator@H@std@@@std@@AAEXPAH00@Z ; std::vector<int,std::allocator<int> >::_Umove_if_noexcept
PUBLIC	?_Destroy@?$vector@HV?$allocator@H@std@@@std@@AAEXPAH0@Z ; std::vector<int,std::allocator<int> >::_Destroy
PUBLIC	?_Calculate_growth@?$vector@HV?$allocator@H@std@@@std@@ABEII@Z ; std::vector<int,std::allocator<int> >::_Calculate_growth
PUBLIC	?_Change_array@?$vector@HV?$allocator@H@std@@@std@@AAEXQAHII@Z ; std::vector<int,std::allocator<int> >::_Change_array
PUBLIC	?_Tidy@?$vector@HV?$allocator@H@std@@@std@@AAEXXZ ; std::vector<int,std::allocator<int> >::_Tidy
PUBLIC	?_Xlength@?$vector@HV?$allocator@H@std@@@std@@CAXXZ ; std::vector<int,std::allocator<int> >::_Xlength
PUBLIC	?_Orphan_range@?$vector@HV?$allocator@H@std@@@std@@ABEXPAH0@Z ; std::vector<int,std::allocator<int> >::_Orphan_range
PUBLIC	??0Matrix@math@core@@QAE@XZ			; core::math::Matrix::Matrix
PUBLIC	?Resize@Matrix@math@core@@QAEXHH@Z		; core::math::Matrix::Resize
PUBLIC	?Clear@Matrix@math@core@@QAEXXZ			; core::math::Matrix::Clear
PUBLIC	?SetElements@Matrix@math@core@@QAEXHHH@Z	; core::math::Matrix::SetElements
PUBLIC	?CopyElements@Matrix@math@core@@QAEXHHH@Z	; core::math::Matrix::CopyElements
PUBLIC	?GetValue@Matrix@math@core@@QBEHHH@Z		; core::math::Matrix::GetValue
PUBLIC	??1Matrix@math@core@@QAE@XZ			; core::math::Matrix::~Matrix
PUBLIC	??0?$_Vector_const_iterator@V?$_Vector_val@U?$_Simple_types@H@std@@@std@@@std@@QAE@PAHPBU_Container_base0@1@@Z ; std::_Vector_const_iterator<std::_Vector_val<std::_Simple_types<int> > >::_Vector_const_iterator<std::_Vector_val<std::_Simple_types<int> > >
PUBLIC	?_Verify_offset@?$_Vector_const_iterator@V?$_Vector_val@U?$_Simple_types@H@std@@@std@@@std@@QBEXH@Z ; std::_Vector_const_iterator<std::_Vector_val<std::_Simple_types<int> > >::_Verify_offset
PUBLIC	??Y?$_Vector_const_iterator@V?$_Vector_val@U?$_Simple_types@H@std@@@std@@@std@@QAEAAV01@H@Z ; std::_Vector_const_iterator<std::_Vector_val<std::_Simple_types<int> > >::operator+=
PUBLIC	?_Seek_to@?$_Vector_const_iterator@V?$_Vector_val@U?$_Simple_types@H@std@@@std@@@std@@QAEXPBH@Z ; std::_Vector_const_iterator<std::_Vector_val<std::_Simple_types<int> > >::_Seek_to
PUBLIC	??0?$_Vector_iterator@V?$_Vector_val@U?$_Simple_types@H@std@@@std@@@std@@QAE@PAHPBU_Container_base0@1@@Z ; std::_Vector_iterator<std::_Vector_val<std::_Simple_types<int> > >::_Vector_iterator<std::_Vector_val<std::_Simple_types<int> > >
PUBLIC	??Y?$_Vector_iterator@V?$_Vector_val@U?$_Simple_types@H@std@@@std@@@std@@QAEAAV01@H@Z ; std::_Vector_iterator<std::_Vector_val<std::_Simple_types<int> > >::operator+=
PUBLIC	??H?$_Vector_iterator@V?$_Vector_val@U?$_Simple_types@H@std@@@std@@@std@@QBE?AV01@H@Z ; std::_Vector_iterator<std::_Vector_val<std::_Simple_types<int> > >::operator+
PUBLIC	?_Unwrapped@?$_Vector_iterator@V?$_Vector_val@U?$_Simple_types@H@std@@@std@@@std@@QBEPAHXZ ; std::_Vector_iterator<std::_Vector_val<std::_Simple_types<int> > >::_Unwrapped
PUBLIC	??$fill@V?$_Vector_iterator@V?$_Vector_val@U?$_Simple_types@H@std@@@std@@@std@@H@std@@YAXV?$_Vector_iterator@V?$_Vector_val@U?$_Simple_types@H@std@@@std@@@0@0ABH@Z ; std::fill<std::_Vector_iterator<std::_Vector_val<std::_Simple_types<int> > >,int>
PUBLIC	??$copy@V?$_Vector_iterator@V?$_Vector_val@U?$_Simple_types@H@std@@@std@@@std@@V12@@std@@YA?AV?$_Vector_iterator@V?$_Vector_val@U?$_Simple_types@H@std@@@std@@@0@V10@00@Z ; std::copy<std::_Vector_iterator<std::_Vector_val<std::_Simple_types<int> > >,std::_Vector_iterator<std::_Vector_val<std::_Simple_types<int> > > >
PUBLIC	??$_Min_value@I@std@@YAABIABI0@Z		; std::_Min_value<unsigned int>
PUBLIC	?GetLines@Stats@gameplay@core@@QAEPA_NXZ	; core::gameplay::Stats::GetLines
PUBLIC	?SetPendingLineCount@Stats@gameplay@core@@QAEXH@Z ; core::gameplay::Stats::SetPendingLineCount
PUBLIC	??0Board@gameplay@core@@QAE@HHHH@Z		; core::gameplay::Board::Board
PUBLIC	?DrawCell@Board@gameplay@core@@QAEXHHHHH_N@Z	; core::gameplay::Board::DrawCell
PUBLIC	?DrawBoard@Board@gameplay@core@@QAEXHH@Z	; core::gameplay::Board::DrawBoard
PUBLIC	?IsRowFilled@Board@gameplay@core@@QAE_NH@Z	; core::gameplay::Board::IsRowFilled
PUBLIC	?IsRowEmpty@Board@gameplay@core@@QAE_NH@Z	; core::gameplay::Board::IsRowEmpty
PUBLIC	?FindLines@Board@gameplay@core@@QAEXPAVStats@23@@Z ; core::gameplay::Board::FindLines
PUBLIC	?ClearLines@Board@gameplay@core@@QAEXPAVStats@23@@Z ; core::gameplay::Board::ClearLines
PUBLIC	?GetCellValue@Board@gameplay@core@@QBEHHH@Z	; core::gameplay::Board::GetCellValue
PUBLIC	??0Color@core@@QAE@ABV01@@Z			; core::Color::Color
PUBLIC	??$addressof@V?$_Vector_val@U?$_Simple_types@H@std@@@std@@@std@@YAPAV?$_Vector_val@U?$_Simple_types@H@std@@@0@AAV10@@Z ; std::addressof<std::_Vector_val<std::_Simple_types<int> > >
PUBLIC	??R<lambda_4f2fd6a84b983411848f0e0333d0ea32>@@QBEPAHPAHI@Z ; <lambda_4f2fd6a84b983411848f0e0333d0ea32>::operator()
PUBLIC	??0<lambda_4f2fd6a84b983411848f0e0333d0ea32>@@QAE@QAV?$vector@HV?$allocator@H@std@@@std@@@Z ; <lambda_4f2fd6a84b983411848f0e0333d0ea32>::<lambda_4f2fd6a84b983411848f0e0333d0ea32>
PUBLIC	??$_Resize@V<lambda_4f2fd6a84b983411848f0e0333d0ea32>@@@?$vector@HV?$allocator@H@std@@@std@@AAEXIV<lambda_4f2fd6a84b983411848f0e0333d0ea32>@@@Z ; std::vector<int,std::allocator<int> >::_Resize<<lambda_4f2fd6a84b983411848f0e0333d0ea32> >
PUBLIC	??$?0$$V@?$_Compressed_pair@V?$allocator@H@std@@V?$_Vector_val@U?$_Simple_types@H@std@@@2@$00@std@@QAE@U_Zero_then_variadic_args_t@1@@Z ; std::_Compressed_pair<std::allocator<int>,std::_Vector_val<std::_Simple_types<int> >,1>::_Compressed_pair<std::allocator<int>,std::_Vector_val<std::_Simple_types<int> >,1><>
PUBLIC	??$_Uninitialized_value_construct_n@PAHIV?$allocator@H@std@@@std@@YAPAHPAHIAAV?$allocator@H@0@@Z ; std::_Uninitialized_value_construct_n<int *,unsigned int,std::allocator<int> >
PUBLIC	??$_Allocate@$07U_Default_allocate_traits@std@@$0A@@std@@YAPAXI@Z ; std::_Allocate<8,std::_Default_allocate_traits,0>
PUBLIC	??$_Deallocate@$07$0A@@std@@YAXPAXI@Z		; std::_Deallocate<8,0>
PUBLIC	??$_Destroy_range@V?$allocator@H@std@@@std@@YAXPAH0AAV?$allocator@H@0@@Z ; std::_Destroy_range<std::allocator<int> >
PUBLIC	??$_Adl_verify_range@V?$_Vector_iterator@V?$_Vector_val@U?$_Simple_types@H@std@@@std@@@std@@V12@@std@@YAXABV?$_Vector_iterator@V?$_Vector_val@U?$_Simple_types@H@std@@@std@@@0@0@Z ; std::_Adl_verify_range<std::_Vector_iterator<std::_Vector_val<std::_Simple_types<int> > >,std::_Vector_iterator<std::_Vector_val<std::_Simple_types<int> > > >
PUBLIC	??$_Get_unwrapped@V?$_Vector_iterator@V?$_Vector_val@U?$_Simple_types@H@std@@@std@@@std@@$0A@@std@@YAPAHABV?$_Vector_iterator@V?$_Vector_val@U?$_Simple_types@H@std@@@std@@@0@@Z ; std::_Get_unwrapped<std::_Vector_iterator<std::_Vector_val<std::_Simple_types<int> > >,0>
PUBLIC	??$_Fill_unchecked@PAHH@std@@YAXPAH0ABH@Z	; std::_Fill_unchecked<int *,int>
PUBLIC	??$_Idl_distance@V?$_Vector_iterator@V?$_Vector_val@U?$_Simple_types@H@std@@@std@@@std@@PAH@std@@YAHABQAH0@Z ; std::_Idl_distance<std::_Vector_iterator<std::_Vector_val<std::_Simple_types<int> > >,int *>
PUBLIC	??$_Idl_distance1@V?$_Vector_iterator@V?$_Vector_val@U?$_Simple_types@H@std@@@std@@@std@@PAH@std@@YAHABQAH0Urandom_access_iterator_tag@0@@Z ; std::_Idl_distance1<std::_Vector_iterator<std::_Vector_val<std::_Simple_types<int> > >,int *>
PUBLIC	??$_Get_unwrapped_n@V?$_Vector_iterator@V?$_Vector_val@U?$_Simple_types@H@std@@@std@@@std@@H$0A@@std@@YAPAHABV?$_Vector_iterator@V?$_Vector_val@U?$_Simple_types@H@std@@@std@@@0@H@Z ; std::_Get_unwrapped_n<std::_Vector_iterator<std::_Vector_val<std::_Simple_types<int> > >,int,0>
PUBLIC	??$_Copy_unchecked@PAHPAH@std@@YAPAHPAH00@Z	; std::_Copy_unchecked<int *,int *>
PUBLIC	??$_Seek_wrapped@V?$_Vector_iterator@V?$_Vector_val@U?$_Simple_types@H@std@@@std@@@std@@PAH$0A@@std@@YAXAAV?$_Vector_iterator@V?$_Vector_val@U?$_Simple_types@H@std@@@std@@@0@ABQAH@Z ; std::_Seek_wrapped<std::_Vector_iterator<std::_Vector_val<std::_Simple_types<int> > >,int *,0>
PUBLIC	??$_Uninitialized_value_construct_n1@PAHIV?$allocator@H@std@@@std@@YAPAHPAHIAAV?$allocator@H@0@U?$integral_constant@_N$00@0@@Z ; std::_Uninitialized_value_construct_n1<int *,unsigned int,std::allocator<int> >
PUBLIC	??$_Allocate_manually_vector_aligned@U_Default_allocate_traits@std@@@std@@YAPAXI@Z ; std::_Allocate_manually_vector_aligned<std::_Default_allocate_traits>
PUBLIC	??$_Destroy_range1@V?$allocator@H@std@@@std@@YAXPAH0AAV?$allocator@H@0@U?$integral_constant@_N$00@0@@Z ; std::_Destroy_range1<std::allocator<int> >
PUBLIC	??$_Get_size_of_n@$03@std@@YAII@Z		; std::_Get_size_of_n<4>
PUBLIC	??$_Uninitialized_move@PAHPAHV?$allocator@H@std@@@std@@YAPAHQAH0PAHAAV?$allocator@H@0@@Z ; std::_Uninitialized_move<int *,int *,std::allocator<int> >
PUBLIC	??$_Adl_verify_range1@V?$_Vector_iterator@V?$_Vector_val@U?$_Simple_types@H@std@@@std@@@std@@V12@@std@@YAXABV?$_Vector_iterator@V?$_Vector_val@U?$_Simple_types@H@std@@@std@@@0@0U?$integral_constant@_N$0A@@0@@Z ; std::_Adl_verify_range1<std::_Vector_iterator<std::_Vector_val<std::_Simple_types<int> > >,std::_Vector_iterator<std::_Vector_val<std::_Simple_types<int> > > >
PUBLIC	??$_Fill_memset_is_safe@PAHH@std@@YA?AU?$integral_constant@_N$0A@@0@ABQAHABH@Z ; std::_Fill_memset_is_safe<int *,int>
PUBLIC	??$_Fill_unchecked1@PAHH@std@@YAXPAH0ABHU?$integral_constant@_N$0A@@0@@Z ; std::_Fill_unchecked1<int *,int>
PUBLIC	??$_Ptr_copy_cat@HH@std@@YA?AU_Really_trivial_ptr_iterator_tag@0@ABQAH0@Z ; std::_Ptr_copy_cat<int,int>
PUBLIC	??$_Copy_unchecked1@PAHPAH@std@@YAPAHPAH00U_Trivially_copyable_ptr_iterator_tag@0@@Z ; std::_Copy_unchecked1<int *,int *>
PUBLIC	??$_Zero_range@PAH@std@@YAPAHQAH0@Z		; std::_Zero_range<int *>
PUBLIC	??$_Get_unwrapped@H@std@@YAPAHQAH@Z		; std::_Get_unwrapped<int>
PUBLIC	??$_Idl_distance@PAHPAH@std@@YAHABQAH0@Z	; std::_Idl_distance<int *,int *>
PUBLIC	??$_Idl_distance1@PAHPAH@std@@YAHABQAH0Urandom_access_iterator_tag@0@@Z ; std::_Idl_distance1<int *,int *>
PUBLIC	??$_Get_unwrapped_n@HH$0A@@std@@YAPAHQAHH@Z	; std::_Get_unwrapped_n<int,int,0>
PUBLIC	??$_Ptr_move_cat@HH@std@@YA?AU_Really_trivial_ptr_iterator_tag@0@ABQAH0@Z ; std::_Ptr_move_cat<int,int>
PUBLIC	??$_Uninitialized_move_al_unchecked@HHV?$allocator@H@std@@@std@@YAPAHQAH00AAV?$allocator@H@0@U_Really_trivial_ptr_iterator_tag@0@U?$integral_constant@_N$00@0@@Z ; std::_Uninitialized_move_al_unchecked<int,int,std::allocator<int> >
PUBLIC	??$_Seek_wrapped@H@std@@YAXAAPAHQAH@Z		; std::_Seek_wrapped<int>
PUBLIC	??$_Const_cast@$$CBH@std@@YAPAHPBH@Z		; std::_Const_cast<int const >
PUBLIC	??$_Copy_memmove@PAHPAH@std@@YAPAHPAH00@Z	; std::_Copy_memmove<int *,int *>
PUBLIC	??_C@_1EE@HDIKHOLG@?$AAc?$AA?3?$AA?2?$AAd?$AAe?$AAv?$AA?2?$AAt?$AAe?$AAt?$AAr?$AAi?$AAs?$AA?2?$AAs@ ; `string'
PUBLIC	??_C@_1GI@GGOBNHPI@?$AAr?$AAo?$AAw?$AA?5?$AA?$DO?$AA?$DN?$AA?5?$AA0?$AA?5?$AA?$CG?$AA?$CG?$AA?5?$AAr?$AAo?$AAw@ ; `string'
PUBLIC	??_C@_0BD@OLBABOEK@vector?$DMT?$DO?5too?5long@	; `string'
EXTRN	??2@YAPAXI@Z:PROC				; operator new
EXTRN	??3@YAXPAXI@Z:PROC				; operator delete
EXTRN	__invalid_parameter_noinfo_noreturn:PROC
EXTRN	?_Xlength_error@std@@YAXPBD@Z:PROC		; std::_Xlength_error
EXTRN	__wassert:PROC
EXTRN	?Instance@Graphics@graphics@core@@SAPAV123@XZ:PROC ; core::graphics::Graphics::Instance
EXTRN	?DrawFillRect@Graphics@graphics@core@@QAEXHHHHVColor@3@@Z:PROC ; core::graphics::Graphics::DrawFillRect
EXTRN	?DrawRect@Graphics@graphics@core@@QAEXHHHHVColor@3@@Z:PROC ; core::graphics::Graphics::DrawRect
EXTRN	@__security_check_cookie@4:PROC
EXTRN	__CxxThrowException@8:PROC
EXTRN	___CxxFrameHandler3:PROC
EXTRN	_memmove:PROC
EXTRN	_memset:PROC
EXTRN	?s_base@Palette@core@@2QBVColor@2@B:BYTE	; core::Palette::s_base
EXTRN	?s_light@Palette@core@@2QBVColor@2@B:BYTE	; core::Palette::s_light
EXTRN	?s_dark@Palette@core@@2QBVColor@2@B:BYTE	; core::Palette::s_dark
EXTRN	___security_cookie:DWORD
;	COMDAT ??_C@_0BD@OLBABOEK@vector?$DMT?$DO?5too?5long@
CONST	SEGMENT
??_C@_0BD@OLBABOEK@vector?$DMT?$DO?5too?5long@ DB 'vector<T> too long', 00H ; `string'
CONST	ENDS
;	COMDAT ??_C@_1GI@GGOBNHPI@?$AAr?$AAo?$AAw?$AA?5?$AA?$DO?$AA?$DN?$AA?5?$AA0?$AA?5?$AA?$CG?$AA?$CG?$AA?5?$AAr?$AAo?$AAw@
CONST	SEGMENT
??_C@_1GI@GGOBNHPI@?$AAr?$AAo?$AAw?$AA?5?$AA?$DO?$AA?$DN?$AA?5?$AA0?$AA?5?$AA?$CG?$AA?$CG?$AA?5?$AAr?$AAo?$AAw@ DB 'r'
	DB	00H, 'o', 00H, 'w', 00H, ' ', 00H, '>', 00H, '=', 00H, ' ', 00H
	DB	'0', 00H, ' ', 00H, '&', 00H, '&', 00H, ' ', 00H, 'r', 00H, 'o'
	DB	00H, 'w', 00H, ' ', 00H, '<', 00H, ' ', 00H, 'm', 00H, '_', 00H
	DB	'r', 00H, 'o', 00H, 'w', 00H, 's', 00H, ' ', 00H, '&', 00H, '&'
	DB	00H, ' ', 00H, 'c', 00H, 'o', 00H, 'l', 00H, ' ', 00H, '>', 00H
	DB	'=', 00H, '0', 00H, ' ', 00H, '&', 00H, '&', 00H, ' ', 00H, 'c'
	DB	00H, 'o', 00H, 'l', 00H, ' ', 00H, '<', 00H, ' ', 00H, 'm', 00H
	DB	'_', 00H, 'c', 00H, 'o', 00H, 'l', 00H, 's', 00H, 00H, 00H ; `string'
CONST	ENDS
;	COMDAT ??_C@_1EE@HDIKHOLG@?$AAc?$AA?3?$AA?2?$AAd?$AAe?$AAv?$AA?2?$AAt?$AAe?$AAt?$AAr?$AAi?$AAs?$AA?2?$AAs@
CONST	SEGMENT
??_C@_1EE@HDIKHOLG@?$AAc?$AA?3?$AA?2?$AAd?$AAe?$AAv?$AA?2?$AAt?$AAe?$AAt?$AAr?$AAi?$AAs?$AA?2?$AAs@ DB 'c'
	DB	00H, ':', 00H, '\', 00H, 'd', 00H, 'e', 00H, 'v', 00H, '\', 00H
	DB	't', 00H, 'e', 00H, 't', 00H, 'r', 00H, 'i', 00H, 's', 00H, '\'
	DB	00H, 's', 00H, 'r', 00H, 'c', 00H, '\', 00H, 'm', 00H, 'a', 00H
	DB	't', 00H, 'h', 00H, '\', 00H, 'm', 00H, 'a', 00H, 't', 00H, 'r'
	DB	00H, 'i', 00H, 'x', 00H, '.', 00H, 'h', 00H, 'p', 00H, 'p', 00H
	DB	00H, 00H					; `string'
CONST	ENDS
;	COMDAT xdata$x
xdata$x	SEGMENT
__catchsym$??$_Resize@V<lambda_4f2fd6a84b983411848f0e0333d0ea32>@@@?$vector@HV?$allocator@H@std@@@std@@AAEXIV<lambda_4f2fd6a84b983411848f0e0333d0ea32>@@@Z$2 DD 040H
	DD	00H
	DD	00H
	DD	FLAT:__catch$??$_Resize@V<lambda_4f2fd6a84b983411848f0e0333d0ea32>@@@?$vector@HV?$allocator@H@std@@@std@@AAEXIV<lambda_4f2fd6a84b983411848f0e0333d0ea32>@@@Z$0
__unwindtable$??$_Resize@V<lambda_4f2fd6a84b983411848f0e0333d0ea32>@@@?$vector@HV?$allocator@H@std@@@std@@AAEXIV<lambda_4f2fd6a84b983411848f0e0333d0ea32>@@@Z DD 0ffffffffH
	DD	00H
	DD	0ffffffffH
	DD	00H
__tryblocktable$??$_Resize@V<lambda_4f2fd6a84b983411848f0e0333d0ea32>@@@?$vector@HV?$allocator@H@std@@@std@@AAEXIV<lambda_4f2fd6a84b983411848f0e0333d0ea32>@@@Z DD 00H
	DD	00H
	DD	01H
	DD	01H
	DD	FLAT:__catchsym$??$_Resize@V<lambda_4f2fd6a84b983411848f0e0333d0ea32>@@@?$vector@HV?$allocator@H@std@@@std@@AAEXIV<lambda_4f2fd6a84b983411848f0e0333d0ea32>@@@Z$2
__ehfuncinfo$??$_Resize@V<lambda_4f2fd6a84b983411848f0e0333d0ea32>@@@?$vector@HV?$allocator@H@std@@@std@@AAEXIV<lambda_4f2fd6a84b983411848f0e0333d0ea32>@@@Z DD 019930522H
	DD	02H
	DD	FLAT:__unwindtable$??$_Resize@V<lambda_4f2fd6a84b983411848f0e0333d0ea32>@@@?$vector@HV?$allocator@H@std@@@std@@AAEXIV<lambda_4f2fd6a84b983411848f0e0333d0ea32>@@@Z
	DD	01H
	DD	FLAT:__tryblocktable$??$_Resize@V<lambda_4f2fd6a84b983411848f0e0333d0ea32>@@@?$vector@HV?$allocator@H@std@@@std@@AAEXIV<lambda_4f2fd6a84b983411848f0e0333d0ea32>@@@Z
	DD	2 DUP(00H)
	DD	00H
	DD	01H
xdata$x	ENDS
xdata$x	SEGMENT
__unwindtable$??0Board@gameplay@core@@QAE@HHHH@Z DD 0ffffffffH
	DD	FLAT:__unwindfunclet$??0Board@gameplay@core@@QAE@HHHH@Z$0
__ehfuncinfo$??0Board@gameplay@core@@QAE@HHHH@Z DD 019930522H
	DD	01H
	DD	FLAT:__unwindtable$??0Board@gameplay@core@@QAE@HHHH@Z
	DD	2 DUP(00H)
	DD	2 DUP(00H)
	DD	00H
	DD	01H
xdata$x	ENDS
;	COMDAT xdata$x
xdata$x	SEGMENT
__ehfuncinfo$?end@?$vector@HV?$allocator@H@std@@@std@@QAE?AV?$_Vector_iterator@V?$_Vector_val@U?$_Simple_types@H@std@@@std@@@2@XZ DD 019930522H
	DD	00H
	DD	00H
	DD	2 DUP(00H)
	DD	2 DUP(00H)
	DD	00H
	DD	05H
xdata$x	ENDS
;	COMDAT xdata$x
xdata$x	SEGMENT
__ehfuncinfo$?begin@?$vector@HV?$allocator@H@std@@@std@@QAE?AV?$_Vector_iterator@V?$_Vector_val@U?$_Simple_types@H@std@@@std@@@2@XZ DD 019930522H
	DD	00H
	DD	00H
	DD	2 DUP(00H)
	DD	2 DUP(00H)
	DD	00H
	DD	05H
xdata$x	ENDS
;	COMDAT xdata$x
xdata$x	SEGMENT
__ehfuncinfo$??1?$vector@HV?$allocator@H@std@@@std@@QAE@XZ DD 019930522H
	DD	00H
	DD	00H
	DD	2 DUP(00H)
	DD	2 DUP(00H)
	DD	00H
	DD	05H
xdata$x	ENDS
;	COMDAT xdata$x
xdata$x	SEGMENT
__ehfuncinfo$??0?$vector@HV?$allocator@H@std@@@std@@QAE@XZ DD 019930522H
	DD	00H
	DD	00H
	DD	2 DUP(00H)
	DD	2 DUP(00H)
	DD	00H
	DD	05H
xdata$x	ENDS
; Function compile flags: /Odtp
; File c:\program files (x86)\microsoft visual studio\2017\community\vc\tools\msvc\14.16.27023\include\xutility
;	COMDAT ??$_Copy_memmove@PAHPAH@std@@YAPAHPAH00@Z
_TEXT	SEGMENT
__Last_ch$ = -16					; size = 4
__Count$ = -12						; size = 4
__Dest_ch$ = -8						; size = 4
__First_ch$ = -4					; size = 4
__First$ = 8						; size = 4
__Last$ = 12						; size = 4
__Dest$ = 16						; size = 4
??$_Copy_memmove@PAHPAH@std@@YAPAHPAH00@Z PROC		; std::_Copy_memmove<int *,int *>, COMDAT

; 2398 : 	{	// implement copy-like function as memmove

  00000	55		 push	 ebp
  00001	8b ec		 mov	 ebp, esp
  00003	83 ec 10	 sub	 esp, 16			; 00000010H

; 2399 : 	const char * const _First_ch = const_cast<const char *>(reinterpret_cast<const volatile char *>(_First));

  00006	8b 45 08	 mov	 eax, DWORD PTR __First$[ebp]
  00009	89 45 fc	 mov	 DWORD PTR __First_ch$[ebp], eax

; 2400 : 	const char * const _Last_ch = const_cast<const char *>(reinterpret_cast<const volatile char *>(_Last));

  0000c	8b 4d 0c	 mov	 ecx, DWORD PTR __Last$[ebp]
  0000f	89 4d f0	 mov	 DWORD PTR __Last_ch$[ebp], ecx

; 2401 : 	char * const _Dest_ch = const_cast<char *>(reinterpret_cast<volatile char *>(_Dest));

  00012	8b 55 10	 mov	 edx, DWORD PTR __Dest$[ebp]
  00015	89 55 f8	 mov	 DWORD PTR __Dest_ch$[ebp], edx

; 2402 : 	const auto _Count = static_cast<size_t>(_Last_ch - _First_ch);

  00018	8b 45 f0	 mov	 eax, DWORD PTR __Last_ch$[ebp]
  0001b	2b 45 fc	 sub	 eax, DWORD PTR __First_ch$[ebp]
  0001e	89 45 f4	 mov	 DWORD PTR __Count$[ebp], eax

; 2403 : 	_CSTD memmove(_Dest_ch, _First_ch, _Count);

  00021	8b 4d f4	 mov	 ecx, DWORD PTR __Count$[ebp]
  00024	51		 push	 ecx
  00025	8b 55 fc	 mov	 edx, DWORD PTR __First_ch$[ebp]
  00028	52		 push	 edx
  00029	8b 45 f8	 mov	 eax, DWORD PTR __Dest_ch$[ebp]
  0002c	50		 push	 eax
  0002d	e8 00 00 00 00	 call	 _memmove
  00032	83 c4 0c	 add	 esp, 12			; 0000000cH

; 2404 : 	return (reinterpret_cast<_OutIt>(_Dest_ch + _Count));

  00035	8b 45 f8	 mov	 eax, DWORD PTR __Dest_ch$[ebp]
  00038	03 45 f4	 add	 eax, DWORD PTR __Count$[ebp]

; 2405 : 	}

  0003b	8b e5		 mov	 esp, ebp
  0003d	5d		 pop	 ebp
  0003e	c3		 ret	 0
??$_Copy_memmove@PAHPAH@std@@YAPAHPAH00@Z ENDP		; std::_Copy_memmove<int *,int *>
_TEXT	ENDS
; Function compile flags: /Odtp
; File c:\program files (x86)\microsoft visual studio\2017\community\vc\tools\msvc\14.16.27023\include\xmemory0
;	COMDAT ??$_Const_cast@$$CBH@std@@YAPAHPBH@Z
_TEXT	SEGMENT
__Ptr$ = 8						; size = 4
??$_Const_cast@$$CBH@std@@YAPAHPBH@Z PROC		; std::_Const_cast<int const >, COMDAT

; 386  : 	{	// remove constness from a plain pointer

  00000	55		 push	 ebp
  00001	8b ec		 mov	 ebp, esp

; 387  : 	return (const_cast<remove_const_t<_Ty> *>(_Ptr));

  00003	8b 45 08	 mov	 eax, DWORD PTR __Ptr$[ebp]

; 388  : 	}

  00006	5d		 pop	 ebp
  00007	c3		 ret	 0
??$_Const_cast@$$CBH@std@@YAPAHPBH@Z ENDP		; std::_Const_cast<int const >
_TEXT	ENDS
; Function compile flags: /Odtp
; File c:\program files (x86)\microsoft visual studio\2017\community\vc\tools\msvc\14.16.27023\include\xutility
;	COMDAT ??$_Seek_wrapped@H@std@@YAXAAPAHQAH@Z
_TEXT	SEGMENT
__It$ = 8						; size = 4
__UIt$ = 12						; size = 4
??$_Seek_wrapped@H@std@@YAXAAPAHQAH@Z PROC		; std::_Seek_wrapped<int>, COMDAT

; 871  : 	{

  00000	55		 push	 ebp
  00001	8b ec		 mov	 ebp, esp

; 872  : 	_It = _UIt;

  00003	8b 45 08	 mov	 eax, DWORD PTR __It$[ebp]
  00006	8b 4d 0c	 mov	 ecx, DWORD PTR __UIt$[ebp]
  00009	89 08		 mov	 DWORD PTR [eax], ecx

; 873  : 	}

  0000b	5d		 pop	 ebp
  0000c	c3		 ret	 0
??$_Seek_wrapped@H@std@@YAXAAPAHQAH@Z ENDP		; std::_Seek_wrapped<int>
_TEXT	ENDS
; Function compile flags: /Odtp
; File c:\program files (x86)\microsoft visual studio\2017\community\vc\tools\msvc\14.16.27023\include\xmemory
;	COMDAT ??$_Uninitialized_move_al_unchecked@HHV?$allocator@H@std@@@std@@YAPAHQAH00AAV?$allocator@H@0@U_Really_trivial_ptr_iterator_tag@0@U?$integral_constant@_N$00@0@@Z
_TEXT	SEGMENT
__First$ = 8						; size = 4
__Last$ = 12						; size = 4
__Dest$ = 16						; size = 4
___formal$ = 20						; size = 4
___formal$ = 24						; size = 1
___formal$ = 28						; size = 1
??$_Uninitialized_move_al_unchecked@HHV?$allocator@H@std@@@std@@YAPAHQAH00AAV?$allocator@H@0@U_Really_trivial_ptr_iterator_tag@0@U?$integral_constant@_N$00@0@@Z PROC ; std::_Uninitialized_move_al_unchecked<int,int,std::allocator<int> >, COMDAT

; 243  : 	{	// move [_First, _Last) to raw _Dest, using default _Alloc construct, memmove optimization

  00000	55		 push	 ebp
  00001	8b ec		 mov	 ebp, esp

; 244  : 	return (_Copy_memmove(_First, _Last, _Dest));

  00003	8b 45 10	 mov	 eax, DWORD PTR __Dest$[ebp]
  00006	50		 push	 eax
  00007	8b 4d 0c	 mov	 ecx, DWORD PTR __Last$[ebp]
  0000a	51		 push	 ecx
  0000b	8b 55 08	 mov	 edx, DWORD PTR __First$[ebp]
  0000e	52		 push	 edx
  0000f	e8 00 00 00 00	 call	 ??$_Copy_memmove@PAHPAH@std@@YAPAHPAH00@Z ; std::_Copy_memmove<int *,int *>
  00014	83 c4 0c	 add	 esp, 12			; 0000000cH

; 245  : 	}

  00017	5d		 pop	 ebp
  00018	c3		 ret	 0
??$_Uninitialized_move_al_unchecked@HHV?$allocator@H@std@@@std@@YAPAHQAH00AAV?$allocator@H@0@U_Really_trivial_ptr_iterator_tag@0@U?$integral_constant@_N$00@0@@Z ENDP ; std::_Uninitialized_move_al_unchecked<int,int,std::allocator<int> >
_TEXT	ENDS
; Function compile flags: /Odtp
; File c:\program files (x86)\microsoft visual studio\2017\community\vc\tools\msvc\14.16.27023\include\xutility
;	COMDAT ??$_Ptr_move_cat@HH@std@@YA?AU_Really_trivial_ptr_iterator_tag@0@ABQAH0@Z
_TEXT	SEGMENT
___$ReturnUdt$ = 8					; size = 4
___formal$ = 12						; size = 4
___formal$ = 16						; size = 4
??$_Ptr_move_cat@HH@std@@YA?AU_Really_trivial_ptr_iterator_tag@0@ABQAH0@Z PROC ; std::_Ptr_move_cat<int,int>, COMDAT

; 1086 : 	{	// return pointer move optimization category for pointers

  00000	55		 push	 ebp
  00001	8b ec		 mov	 ebp, esp

; 1087 : 	return {};

  00003	8b 45 08	 mov	 eax, DWORD PTR ___$ReturnUdt$[ebp]

; 1088 : 	}

  00006	5d		 pop	 ebp
  00007	c3		 ret	 0
??$_Ptr_move_cat@HH@std@@YA?AU_Really_trivial_ptr_iterator_tag@0@ABQAH0@Z ENDP ; std::_Ptr_move_cat<int,int>
_TEXT	ENDS
; Function compile flags: /Odtp
; File c:\program files (x86)\microsoft visual studio\2017\community\vc\tools\msvc\14.16.27023\include\xutility
;	COMDAT ??$_Get_unwrapped_n@HH$0A@@std@@YAPAHQAHH@Z
_TEXT	SEGMENT
__Src$ = 8						; size = 4
___formal$ = 12						; size = 4
??$_Get_unwrapped_n@HH$0A@@std@@YAPAHQAHH@Z PROC	; std::_Get_unwrapped_n<int,int,0>, COMDAT

; 808  : 	{

  00000	55		 push	 ebp
  00001	8b ec		 mov	 ebp, esp

; 809  : 	return (_Src);

  00003	8b 45 08	 mov	 eax, DWORD PTR __Src$[ebp]

; 810  : 	}

  00006	5d		 pop	 ebp
  00007	c3		 ret	 0
??$_Get_unwrapped_n@HH$0A@@std@@YAPAHQAHH@Z ENDP	; std::_Get_unwrapped_n<int,int,0>
_TEXT	ENDS
; Function compile flags: /Odtp
; File c:\program files (x86)\microsoft visual studio\2017\community\vc\tools\msvc\14.16.27023\include\xutility
;	COMDAT ??$_Idl_distance1@PAHPAH@std@@YAHABQAH0Urandom_access_iterator_tag@0@@Z
_TEXT	SEGMENT
__First$ = 8						; size = 4
__Last$ = 12						; size = 4
___formal$ = 16						; size = 1
??$_Idl_distance1@PAHPAH@std@@YAHABQAH0Urandom_access_iterator_tag@0@@Z PROC ; std::_Idl_distance1<int *,int *>, COMDAT

; 967  : 	{	// _Idl_distance for random-access iterators

  00000	55		 push	 ebp
  00001	8b ec		 mov	 ebp, esp

; 968  : 	return (static_cast<_Iter_diff_t<_Checked>>(_Last - _First));

  00003	8b 45 0c	 mov	 eax, DWORD PTR __Last$[ebp]
  00006	8b 4d 08	 mov	 ecx, DWORD PTR __First$[ebp]
  00009	8b 00		 mov	 eax, DWORD PTR [eax]
  0000b	2b 01		 sub	 eax, DWORD PTR [ecx]
  0000d	c1 f8 02	 sar	 eax, 2

; 969  : 	}

  00010	5d		 pop	 ebp
  00011	c3		 ret	 0
??$_Idl_distance1@PAHPAH@std@@YAHABQAH0Urandom_access_iterator_tag@0@@Z ENDP ; std::_Idl_distance1<int *,int *>
_TEXT	ENDS
; Function compile flags: /Odtp
; File c:\program files (x86)\microsoft visual studio\2017\community\vc\tools\msvc\14.16.27023\include\xutility
;	COMDAT ??$_Idl_distance@PAHPAH@std@@YAHABQAH0@Z
_TEXT	SEGMENT
$T1 = -1						; size = 1
__First$ = 8						; size = 4
__Last$ = 12						; size = 4
??$_Idl_distance@PAHPAH@std@@YAHABQAH0@Z PROC		; std::_Idl_distance<int *,int *>, COMDAT

; 974  : 	{	// tries to get the distance between _First and _Last if they are random-access iterators

  00000	55		 push	 ebp
  00001	8b ec		 mov	 ebp, esp
  00003	51		 push	 ecx

; 975  : 	return (_Idl_distance1<_Checked>(_First, _Last, _Iter_cat_t<_Iter>()));

  00004	0f b6 45 ff	 movzx	 eax, BYTE PTR $T1[ebp]
  00008	50		 push	 eax
  00009	8b 4d 0c	 mov	 ecx, DWORD PTR __Last$[ebp]
  0000c	51		 push	 ecx
  0000d	8b 55 08	 mov	 edx, DWORD PTR __First$[ebp]
  00010	52		 push	 edx
  00011	e8 00 00 00 00	 call	 ??$_Idl_distance1@PAHPAH@std@@YAHABQAH0Urandom_access_iterator_tag@0@@Z ; std::_Idl_distance1<int *,int *>
  00016	83 c4 0c	 add	 esp, 12			; 0000000cH

; 976  : 	}

  00019	8b e5		 mov	 esp, ebp
  0001b	5d		 pop	 ebp
  0001c	c3		 ret	 0
??$_Idl_distance@PAHPAH@std@@YAHABQAH0@Z ENDP		; std::_Idl_distance<int *,int *>
_TEXT	ENDS
; Function compile flags: /Odtp
; File c:\program files (x86)\microsoft visual studio\2017\community\vc\tools\msvc\14.16.27023\include\xutility
;	COMDAT ??$_Get_unwrapped@H@std@@YAPAHQAH@Z
_TEXT	SEGMENT
__Ptr$ = 8						; size = 4
??$_Get_unwrapped@H@std@@YAPAHQAH@Z PROC		; std::_Get_unwrapped<int>, COMDAT

; 662  : 	{	// special case already-unwrapped pointers

  00000	55		 push	 ebp
  00001	8b ec		 mov	 ebp, esp

; 663  : 	return (_Ptr);

  00003	8b 45 08	 mov	 eax, DWORD PTR __Ptr$[ebp]

; 664  : 	}

  00006	5d		 pop	 ebp
  00007	c3		 ret	 0
??$_Get_unwrapped@H@std@@YAPAHQAH@Z ENDP		; std::_Get_unwrapped<int>
_TEXT	ENDS
; Function compile flags: /Odtp
; File c:\program files (x86)\microsoft visual studio\2017\community\vc\tools\msvc\14.16.27023\include\xmemory
;	COMDAT ??$_Zero_range@PAH@std@@YAPAHQAH0@Z
_TEXT	SEGMENT
__Last_ch$ = -8						; size = 4
__First_ch$ = -4					; size = 4
__First$ = 8						; size = 4
__Last$ = 12						; size = 4
??$_Zero_range@PAH@std@@YAPAHQAH0@Z PROC		; std::_Zero_range<int *>, COMDAT

; 310  : 	{	// fill [_First, _Last) with zeroes

  00000	55		 push	 ebp
  00001	8b ec		 mov	 ebp, esp
  00003	83 ec 08	 sub	 esp, 8

; 311  : 	char * const _First_ch = reinterpret_cast<char *>(_First);

  00006	8b 45 08	 mov	 eax, DWORD PTR __First$[ebp]
  00009	89 45 fc	 mov	 DWORD PTR __First_ch$[ebp], eax

; 312  : 	char * const _Last_ch = reinterpret_cast<char *>(_Last);

  0000c	8b 4d 0c	 mov	 ecx, DWORD PTR __Last$[ebp]
  0000f	89 4d f8	 mov	 DWORD PTR __Last_ch$[ebp], ecx

; 313  : 	_CSTD memset(_First_ch, 0, static_cast<size_t>(_Last_ch - _First_ch));

  00012	8b 55 f8	 mov	 edx, DWORD PTR __Last_ch$[ebp]
  00015	2b 55 fc	 sub	 edx, DWORD PTR __First_ch$[ebp]
  00018	52		 push	 edx
  00019	6a 00		 push	 0
  0001b	8b 45 fc	 mov	 eax, DWORD PTR __First_ch$[ebp]
  0001e	50		 push	 eax
  0001f	e8 00 00 00 00	 call	 _memset
  00024	83 c4 0c	 add	 esp, 12			; 0000000cH

; 314  : 	return (_Last);

  00027	8b 45 0c	 mov	 eax, DWORD PTR __Last$[ebp]

; 315  : 	}

  0002a	8b e5		 mov	 esp, ebp
  0002c	5d		 pop	 ebp
  0002d	c3		 ret	 0
??$_Zero_range@PAH@std@@YAPAHQAH0@Z ENDP		; std::_Zero_range<int *>
_TEXT	ENDS
; Function compile flags: /Odtp
; File c:\program files (x86)\microsoft visual studio\2017\community\vc\tools\msvc\14.16.27023\include\xutility
;	COMDAT ??$_Copy_unchecked1@PAHPAH@std@@YAPAHPAH00U_Trivially_copyable_ptr_iterator_tag@0@@Z
_TEXT	SEGMENT
__First$ = 8						; size = 4
__Last$ = 12						; size = 4
__Dest$ = 16						; size = 4
___formal$ = 20						; size = 1
??$_Copy_unchecked1@PAHPAH@std@@YAPAHPAH00U_Trivially_copyable_ptr_iterator_tag@0@@Z PROC ; std::_Copy_unchecked1<int *,int *>, COMDAT

; 2424 : 	{	// copy [_First, _Last) to [_Dest, ...), pointers to trivially copyable

  00000	55		 push	 ebp
  00001	8b ec		 mov	 ebp, esp

; 2425 : 	return (_Copy_memmove(_First, _Last, _Dest));

  00003	8b 45 10	 mov	 eax, DWORD PTR __Dest$[ebp]
  00006	50		 push	 eax
  00007	8b 4d 0c	 mov	 ecx, DWORD PTR __Last$[ebp]
  0000a	51		 push	 ecx
  0000b	8b 55 08	 mov	 edx, DWORD PTR __First$[ebp]
  0000e	52		 push	 edx
  0000f	e8 00 00 00 00	 call	 ??$_Copy_memmove@PAHPAH@std@@YAPAHPAH00@Z ; std::_Copy_memmove<int *,int *>
  00014	83 c4 0c	 add	 esp, 12			; 0000000cH

; 2426 : 	}

  00017	5d		 pop	 ebp
  00018	c3		 ret	 0
??$_Copy_unchecked1@PAHPAH@std@@YAPAHPAH00U_Trivially_copyable_ptr_iterator_tag@0@@Z ENDP ; std::_Copy_unchecked1<int *,int *>
_TEXT	ENDS
; Function compile flags: /Odtp
; File c:\program files (x86)\microsoft visual studio\2017\community\vc\tools\msvc\14.16.27023\include\xutility
;	COMDAT ??$_Ptr_copy_cat@HH@std@@YA?AU_Really_trivial_ptr_iterator_tag@0@ABQAH0@Z
_TEXT	SEGMENT
___$ReturnUdt$ = 8					; size = 4
___formal$ = 12						; size = 4
___formal$ = 16						; size = 4
??$_Ptr_copy_cat@HH@std@@YA?AU_Really_trivial_ptr_iterator_tag@0@ABQAH0@Z PROC ; std::_Ptr_copy_cat<int,int>, COMDAT

; 1069 : 	{	// return pointer copy optimization category for pointers

  00000	55		 push	 ebp
  00001	8b ec		 mov	 ebp, esp

; 1070 : 	return {};

  00003	8b 45 08	 mov	 eax, DWORD PTR ___$ReturnUdt$[ebp]

; 1071 : 	}

  00006	5d		 pop	 ebp
  00007	c3		 ret	 0
??$_Ptr_copy_cat@HH@std@@YA?AU_Really_trivial_ptr_iterator_tag@0@ABQAH0@Z ENDP ; std::_Ptr_copy_cat<int,int>
_TEXT	ENDS
; Function compile flags: /Odtp
; File c:\program files (x86)\microsoft visual studio\2017\community\vc\tools\msvc\14.16.27023\include\xutility
;	COMDAT ??$_Fill_unchecked1@PAHH@std@@YAXPAH0ABHU?$integral_constant@_N$0A@@0@@Z
_TEXT	SEGMENT
__First$ = 8						; size = 4
__Last$ = 12						; size = 4
__Val$ = 16						; size = 4
___formal$ = 20						; size = 1
??$_Fill_unchecked1@PAHH@std@@YAXPAH0ABHU?$integral_constant@_N$0A@@0@@Z PROC ; std::_Fill_unchecked1<int *,int>, COMDAT

; 2901 : 	{	// copy _Val through [_First, _Last), no special optimization

  00000	55		 push	 ebp
  00001	8b ec		 mov	 ebp, esp

; 2902 : 	for (; _First != _Last; ++_First)

  00003	eb 09		 jmp	 SHORT $LN4@Fill_unche
$LN2@Fill_unche:
  00005	8b 45 08	 mov	 eax, DWORD PTR __First$[ebp]
  00008	83 c0 04	 add	 eax, 4
  0000b	89 45 08	 mov	 DWORD PTR __First$[ebp], eax
$LN4@Fill_unche:
  0000e	8b 4d 08	 mov	 ecx, DWORD PTR __First$[ebp]
  00011	3b 4d 0c	 cmp	 ecx, DWORD PTR __Last$[ebp]
  00014	74 0c		 je	 SHORT $LN1@Fill_unche

; 2903 : 		*_First = _Val;

  00016	8b 55 08	 mov	 edx, DWORD PTR __First$[ebp]
  00019	8b 45 10	 mov	 eax, DWORD PTR __Val$[ebp]
  0001c	8b 08		 mov	 ecx, DWORD PTR [eax]
  0001e	89 0a		 mov	 DWORD PTR [edx], ecx
  00020	eb e3		 jmp	 SHORT $LN2@Fill_unche
$LN1@Fill_unche:

; 2904 : 	}

  00022	5d		 pop	 ebp
  00023	c3		 ret	 0
??$_Fill_unchecked1@PAHH@std@@YAXPAH0ABHU?$integral_constant@_N$0A@@0@@Z ENDP ; std::_Fill_unchecked1<int *,int>
_TEXT	ENDS
; Function compile flags: /Odtp
; File c:\program files (x86)\microsoft visual studio\2017\community\vc\tools\msvc\14.16.27023\include\xutility
;	COMDAT ??$_Fill_memset_is_safe@PAHH@std@@YA?AU?$integral_constant@_N$0A@@0@ABQAHABH@Z
_TEXT	SEGMENT
$T1 = -1						; size = 1
___formal$ = 8						; size = 4
___formal$ = 12						; size = 4
??$_Fill_memset_is_safe@PAHH@std@@YA?AU?$integral_constant@_N$0A@@0@ABQAHABH@Z PROC ; std::_Fill_memset_is_safe<int *,int>, COMDAT

; 2894 : 	{	// type deduction for _Fill_memset_is_safe_helper

  00000	55		 push	 ebp
  00001	8b ec		 mov	 ebp, esp
  00003	51		 push	 ecx

; 2895 : 	return {};

  00004	33 c0		 xor	 eax, eax
  00006	88 45 ff	 mov	 BYTE PTR $T1[ebp], al
  00009	8a 45 ff	 mov	 al, BYTE PTR $T1[ebp]

; 2896 : 	}

  0000c	8b e5		 mov	 esp, ebp
  0000e	5d		 pop	 ebp
  0000f	c3		 ret	 0
??$_Fill_memset_is_safe@PAHH@std@@YA?AU?$integral_constant@_N$0A@@0@ABQAHABH@Z ENDP ; std::_Fill_memset_is_safe<int *,int>
_TEXT	ENDS
; Function compile flags: /Odtp
; File c:\program files (x86)\microsoft visual studio\2017\community\vc\tools\msvc\14.16.27023\include\xutility
;	COMDAT ??$_Adl_verify_range1@V?$_Vector_iterator@V?$_Vector_val@U?$_Simple_types@H@std@@@std@@@std@@V12@@std@@YAXABV?$_Vector_iterator@V?$_Vector_val@U?$_Simple_types@H@std@@@std@@@0@0U?$integral_constant@_N$0A@@0@@Z
_TEXT	SEGMENT
___formal$ = 8						; size = 4
___formal$ = 12						; size = 4
___formal$ = 16						; size = 1
??$_Adl_verify_range1@V?$_Vector_iterator@V?$_Vector_val@U?$_Simple_types@H@std@@@std@@@std@@V12@@std@@YAXABV?$_Vector_iterator@V?$_Vector_val@U?$_Simple_types@H@std@@@std@@@0@0U?$integral_constant@_N$0A@@0@@Z PROC ; std::_Adl_verify_range1<std::_Vector_iterator<std::_Vector_val<std::_Simple_types<int> > >,std::_Vector_iterator<std::_Vector_val<std::_Simple_types<int> > > >, COMDAT

; 609  : 	{	// (don't) check that [_First, _Last) forms an iterator range

  00000	55		 push	 ebp
  00001	8b ec		 mov	 ebp, esp

; 610  : 	}

  00003	5d		 pop	 ebp
  00004	c3		 ret	 0
??$_Adl_verify_range1@V?$_Vector_iterator@V?$_Vector_val@U?$_Simple_types@H@std@@@std@@@std@@V12@@std@@YAXABV?$_Vector_iterator@V?$_Vector_val@U?$_Simple_types@H@std@@@std@@@0@0U?$integral_constant@_N$0A@@0@@Z ENDP ; std::_Adl_verify_range1<std::_Vector_iterator<std::_Vector_val<std::_Simple_types<int> > >,std::_Vector_iterator<std::_Vector_val<std::_Simple_types<int> > > >
_TEXT	ENDS
; Function compile flags: /Odtp
; File c:\program files (x86)\microsoft visual studio\2017\community\vc\tools\msvc\14.16.27023\include\xmemory
;	COMDAT ??$_Uninitialized_move@PAHPAHV?$allocator@H@std@@@std@@YAPAHQAH0PAHAAV?$allocator@H@0@@Z
_TEXT	SEGMENT
__ULast$ = -16						; size = 4
__UDest$ = -12						; size = 4
__UFirst$ = -8						; size = 4
$T1 = -2						; size = 1
$T2 = -1						; size = 1
__First$ = 8						; size = 4
__Last$ = 12						; size = 4
__Dest$ = 16						; size = 4
__Al$ = 20						; size = 4
??$_Uninitialized_move@PAHPAHV?$allocator@H@std@@@std@@YAPAHQAH0PAHAAV?$allocator@H@0@@Z PROC ; std::_Uninitialized_move<int *,int *,std::allocator<int> >, COMDAT

; 251  : 	{	// move [_First, _Last) to raw _Dest, using _Al

  00000	55		 push	 ebp
  00001	8b ec		 mov	 ebp, esp
  00003	83 ec 10	 sub	 esp, 16			; 00000010H

; 252  : 		// note: only called internally from elsewhere in the STL
; 253  : 	const auto _UFirst = _Get_unwrapped(_First);

  00006	8b 45 08	 mov	 eax, DWORD PTR __First$[ebp]
  00009	50		 push	 eax
  0000a	e8 00 00 00 00	 call	 ??$_Get_unwrapped@H@std@@YAPAHQAH@Z ; std::_Get_unwrapped<int>
  0000f	83 c4 04	 add	 esp, 4
  00012	89 45 f8	 mov	 DWORD PTR __UFirst$[ebp], eax

; 254  : 	const auto _ULast = _Get_unwrapped(_Last);

  00015	8b 4d 0c	 mov	 ecx, DWORD PTR __Last$[ebp]
  00018	51		 push	 ecx
  00019	e8 00 00 00 00	 call	 ??$_Get_unwrapped@H@std@@YAPAHQAH@Z ; std::_Get_unwrapped<int>
  0001e	83 c4 04	 add	 esp, 4
  00021	89 45 f0	 mov	 DWORD PTR __ULast$[ebp], eax

; 255  : 	const auto _UDest = _Get_unwrapped_n(_Dest, _Idl_distance<_InIt>(_UFirst, _ULast));

  00024	8d 55 f0	 lea	 edx, DWORD PTR __ULast$[ebp]
  00027	52		 push	 edx
  00028	8d 45 f8	 lea	 eax, DWORD PTR __UFirst$[ebp]
  0002b	50		 push	 eax
  0002c	e8 00 00 00 00	 call	 ??$_Idl_distance@PAHPAH@std@@YAHABQAH0@Z ; std::_Idl_distance<int *,int *>
  00031	83 c4 08	 add	 esp, 8
  00034	50		 push	 eax
  00035	8b 4d 10	 mov	 ecx, DWORD PTR __Dest$[ebp]
  00038	51		 push	 ecx
  00039	e8 00 00 00 00	 call	 ??$_Get_unwrapped_n@HH$0A@@std@@YAPAHQAHH@Z ; std::_Get_unwrapped_n<int,int,0>
  0003e	83 c4 08	 add	 esp, 8
  00041	89 45 f4	 mov	 DWORD PTR __UDest$[ebp], eax

; 256  : 	_Seek_wrapped(_Dest,

  00044	0f b6 55 ff	 movzx	 edx, BYTE PTR $T2[ebp]
  00048	52		 push	 edx
  00049	8d 45 f4	 lea	 eax, DWORD PTR __UDest$[ebp]
  0004c	50		 push	 eax
  0004d	8d 4d f8	 lea	 ecx, DWORD PTR __UFirst$[ebp]
  00050	51		 push	 ecx
  00051	8d 55 fe	 lea	 edx, DWORD PTR $T1[ebp]
  00054	52		 push	 edx
  00055	e8 00 00 00 00	 call	 ??$_Ptr_move_cat@HH@std@@YA?AU_Really_trivial_ptr_iterator_tag@0@ABQAH0@Z ; std::_Ptr_move_cat<int,int>
  0005a	83 c4 0c	 add	 esp, 12			; 0000000cH
  0005d	8a 00		 mov	 al, BYTE PTR [eax]
  0005f	0f b6 c8	 movzx	 ecx, al
  00062	51		 push	 ecx
  00063	8b 55 14	 mov	 edx, DWORD PTR __Al$[ebp]
  00066	52		 push	 edx
  00067	8b 45 f4	 mov	 eax, DWORD PTR __UDest$[ebp]
  0006a	50		 push	 eax
  0006b	8b 4d f0	 mov	 ecx, DWORD PTR __ULast$[ebp]
  0006e	51		 push	 ecx
  0006f	8b 55 f8	 mov	 edx, DWORD PTR __UFirst$[ebp]
  00072	52		 push	 edx
  00073	e8 00 00 00 00	 call	 ??$_Uninitialized_move_al_unchecked@HHV?$allocator@H@std@@@std@@YAPAHQAH00AAV?$allocator@H@0@U_Really_trivial_ptr_iterator_tag@0@U?$integral_constant@_N$00@0@@Z ; std::_Uninitialized_move_al_unchecked<int,int,std::allocator<int> >
  00078	83 c4 18	 add	 esp, 24			; 00000018H
  0007b	50		 push	 eax
  0007c	8d 45 10	 lea	 eax, DWORD PTR __Dest$[ebp]
  0007f	50		 push	 eax
  00080	e8 00 00 00 00	 call	 ??$_Seek_wrapped@H@std@@YAXAAPAHQAH@Z ; std::_Seek_wrapped<int>
  00085	83 c4 08	 add	 esp, 8

; 257  : 		_Uninitialized_move_al_unchecked(_UFirst, _ULast, _UDest, _Al,
; 258  : 			_Ptr_move_cat(_UFirst, _UDest),
; 259  : 			_Uses_default_construct_t<_Alloc, decltype(_Unfancy(_UDest)), decltype(_STD move(*_UFirst))>()));
; 260  : 	return (_Dest);

  00088	8b 45 10	 mov	 eax, DWORD PTR __Dest$[ebp]

; 261  : 	}

  0008b	8b e5		 mov	 esp, ebp
  0008d	5d		 pop	 ebp
  0008e	c3		 ret	 0
??$_Uninitialized_move@PAHPAHV?$allocator@H@std@@@std@@YAPAHQAH0PAHAAV?$allocator@H@0@@Z ENDP ; std::_Uninitialized_move<int *,int *,std::allocator<int> >
_TEXT	ENDS
; Function compile flags: /Odtp
; File c:\program files (x86)\microsoft visual studio\2017\community\vc\tools\msvc\14.16.27023\include\xmemory0
;	COMDAT ??$_Get_size_of_n@$03@std@@YAII@Z
_TEXT	SEGMENT
__Max_possible$ = -8					; size = 4
__Result$ = -4						; size = 4
__Count$ = 8						; size = 4
??$_Get_size_of_n@$03@std@@YAII@Z PROC			; std::_Get_size_of_n<4>, COMDAT

; 23   : 	{	// gets the size of _Count copies of a type sized _Ty_size

  00000	55		 push	 ebp
  00001	8b ec		 mov	 ebp, esp
  00003	83 ec 08	 sub	 esp, 8

; 24   : 	constexpr size_t _Max_possible = static_cast<size_t>(-1) / _Ty_size;

  00006	c7 45 f8 ff ff
	ff 3f		 mov	 DWORD PTR __Max_possible$[ebp], 1073741823 ; 3fffffffH

; 25   : 	size_t _Result = _Count * _Ty_size;

  0000d	8b 45 08	 mov	 eax, DWORD PTR __Count$[ebp]
  00010	c1 e0 02	 shl	 eax, 2
  00013	89 45 fc	 mov	 DWORD PTR __Result$[ebp], eax

; 26   : 	if (_Max_possible < _Count)

  00016	81 7d 08 ff ff
	ff 3f		 cmp	 DWORD PTR __Count$[ebp], 1073741823 ; 3fffffffH
  0001d	76 07		 jbe	 SHORT $LN2@Get_size_o

; 27   : 		{	// multiply overflow, try allocating all of memory and assume the
; 28   : 			// allocation function will throw bad_alloc
; 29   : 		_Result = static_cast<size_t>(-1);

  0001f	c7 45 fc ff ff
	ff ff		 mov	 DWORD PTR __Result$[ebp], -1
$LN2@Get_size_o:

; 30   : 		}
; 31   : 
; 32   : 	return (_Result);

  00026	8b 45 fc	 mov	 eax, DWORD PTR __Result$[ebp]

; 33   : 	}

  00029	8b e5		 mov	 esp, ebp
  0002b	5d		 pop	 ebp
  0002c	c3		 ret	 0
??$_Get_size_of_n@$03@std@@YAII@Z ENDP			; std::_Get_size_of_n<4>
_TEXT	ENDS
; Function compile flags: /Odtp
; File c:\program files (x86)\microsoft visual studio\2017\community\vc\tools\msvc\14.16.27023\include\xmemory0
;	COMDAT ??$_Destroy_range1@V?$allocator@H@std@@@std@@YAXPAH0AAV?$allocator@H@0@U?$integral_constant@_N$00@0@@Z
_TEXT	SEGMENT
___formal$ = 8						; size = 4
___formal$ = 12						; size = 4
___formal$ = 16						; size = 4
___formal$ = 20						; size = 1
??$_Destroy_range1@V?$allocator@H@std@@@std@@YAXPAH0AAV?$allocator@H@0@U?$integral_constant@_N$00@0@@Z PROC ; std::_Destroy_range1<std::allocator<int> >, COMDAT

; 1145 : 	{	// destroy [_First, _Last), trivially destructible and default destroy

  00000	55		 push	 ebp
  00001	8b ec		 mov	 ebp, esp

; 1146 : 		// nothing to do
; 1147 : 	}

  00003	5d		 pop	 ebp
  00004	c3		 ret	 0
??$_Destroy_range1@V?$allocator@H@std@@@std@@YAXPAH0AAV?$allocator@H@0@U?$integral_constant@_N$00@0@@Z ENDP ; std::_Destroy_range1<std::allocator<int> >
_TEXT	ENDS
; Function compile flags: /Odtp
; File c:\program files (x86)\microsoft visual studio\2017\community\vc\tools\msvc\14.16.27023\include\xmemory0
;	COMDAT ??$_Allocate_manually_vector_aligned@U_Default_allocate_traits@std@@@std@@YAPAXI@Z
_TEXT	SEGMENT
__Ptr$ = -12						; size = 4
__Ptr_container$ = -8					; size = 4
__Block_size$ = -4					; size = 4
__Bytes$ = 8						; size = 4
??$_Allocate_manually_vector_aligned@U_Default_allocate_traits@std@@@std@@YAPAXI@Z PROC ; std::_Allocate_manually_vector_aligned<std::_Default_allocate_traits>, COMDAT

; 92   : 	{	// allocate _Bytes manually aligned to at least _Big_allocation_alignment

  00000	55		 push	 ebp
  00001	8b ec		 mov	 ebp, esp
  00003	83 ec 0c	 sub	 esp, 12			; 0000000cH

; 93   : 	size_t _Block_size = _Non_user_size + _Bytes;

  00006	8b 45 08	 mov	 eax, DWORD PTR __Bytes$[ebp]
  00009	83 c0 23	 add	 eax, 35			; 00000023H
  0000c	89 45 fc	 mov	 DWORD PTR __Block_size$[ebp], eax

; 94   : 	if (_Block_size <= _Bytes)

  0000f	8b 4d fc	 mov	 ecx, DWORD PTR __Block_size$[ebp]
  00012	3b 4d 08	 cmp	 ecx, DWORD PTR __Bytes$[ebp]
  00015	77 07		 ja	 SHORT $LN8@Allocate_m

; 95   : 		{	// add overflow, try allocating all of memory and assume the
; 96   : 			// allocation function will throw bad_alloc
; 97   : 		_Block_size = static_cast<size_t>(-1);

  00017	c7 45 fc ff ff
	ff ff		 mov	 DWORD PTR __Block_size$[ebp], -1
$LN8@Allocate_m:

; 98   : 		}
; 99   : 
; 100  : 	const uintptr_t _Ptr_container = reinterpret_cast<uintptr_t>(_Traits::_Allocate(_Block_size));

  0001e	8b 55 fc	 mov	 edx, DWORD PTR __Block_size$[ebp]
  00021	52		 push	 edx
  00022	e8 00 00 00 00	 call	 ?_Allocate@_Default_allocate_traits@std@@SAPAXI@Z ; std::_Default_allocate_traits::_Allocate
  00027	83 c4 04	 add	 esp, 4
  0002a	89 45 f8	 mov	 DWORD PTR __Ptr_container$[ebp], eax
$LN4@Allocate_m:

; 101  : 	_STL_VERIFY(_Ptr_container != 0, "invalid argument");	// validate even in release since we're doing p[-1]

  0002d	83 7d f8 00	 cmp	 DWORD PTR __Ptr_container$[ebp], 0
  00031	74 02		 je	 SHORT $LN7@Allocate_m
  00033	eb 09		 jmp	 SHORT $LN2@Allocate_m
$LN7@Allocate_m:
  00035	e8 00 00 00 00	 call	 __invalid_parameter_noinfo_noreturn
  0003a	33 c0		 xor	 eax, eax
  0003c	75 f7		 jne	 SHORT $LN7@Allocate_m
$LN2@Allocate_m:
  0003e	33 c9		 xor	 ecx, ecx
  00040	75 eb		 jne	 SHORT $LN4@Allocate_m

; 102  : 	void * const _Ptr = reinterpret_cast<void *>((_Ptr_container + _Non_user_size)
; 103  : 		& ~(_Big_allocation_alignment - 1));

  00042	8b 55 f8	 mov	 edx, DWORD PTR __Ptr_container$[ebp]
  00045	83 c2 23	 add	 edx, 35			; 00000023H
  00048	83 e2 e0	 and	 edx, -32		; ffffffe0H
  0004b	89 55 f4	 mov	 DWORD PTR __Ptr$[ebp], edx

; 104  : 	static_cast<uintptr_t *>(_Ptr)[-1] = _Ptr_container;

  0004e	b8 04 00 00 00	 mov	 eax, 4
  00053	6b c8 ff	 imul	 ecx, eax, -1
  00056	8b 55 f4	 mov	 edx, DWORD PTR __Ptr$[ebp]
  00059	8b 45 f8	 mov	 eax, DWORD PTR __Ptr_container$[ebp]
  0005c	89 04 0a	 mov	 DWORD PTR [edx+ecx], eax

; 105  : 
; 106  :   #ifdef _DEBUG
; 107  : 	static_cast<uintptr_t *>(_Ptr)[-2] = _Big_allocation_sentinel;
; 108  :   #endif /* _DEBUG */
; 109  : 	return (_Ptr);

  0005f	8b 45 f4	 mov	 eax, DWORD PTR __Ptr$[ebp]
$LN11@Allocate_m:

; 110  : 	}

  00062	8b e5		 mov	 esp, ebp
  00064	5d		 pop	 ebp
  00065	c3		 ret	 0
??$_Allocate_manually_vector_aligned@U_Default_allocate_traits@std@@@std@@YAPAXI@Z ENDP ; std::_Allocate_manually_vector_aligned<std::_Default_allocate_traits>
_TEXT	ENDS
; Function compile flags: /Odtp
; File c:\program files (x86)\microsoft visual studio\2017\community\vc\tools\msvc\14.16.27023\include\xmemory
;	COMDAT ??$_Uninitialized_value_construct_n1@PAHIV?$allocator@H@std@@@std@@YAPAHPAHIAAV?$allocator@H@0@U?$integral_constant@_N$00@0@@Z
_TEXT	SEGMENT
__First$ = 8						; size = 4
__Count$ = 12						; size = 4
___formal$ = 16						; size = 4
___formal$ = 20						; size = 1
??$_Uninitialized_value_construct_n1@PAHIV?$allocator@H@std@@@std@@YAPAHPAHIAAV?$allocator@H@0@U?$integral_constant@_N$00@0@@Z PROC ; std::_Uninitialized_value_construct_n1<int *,unsigned int,std::allocator<int> >, COMDAT

; 335  : 	{	// value-initialize _Count objects to raw _First, using default _Alloc construct, all-bits-zero type

  00000	55		 push	 ebp
  00001	8b ec		 mov	 ebp, esp

; 336  : 	return (_Zero_range(_First, _First + _Count));

  00003	8b 45 0c	 mov	 eax, DWORD PTR __Count$[ebp]
  00006	8b 4d 08	 mov	 ecx, DWORD PTR __First$[ebp]
  00009	8d 14 81	 lea	 edx, DWORD PTR [ecx+eax*4]
  0000c	52		 push	 edx
  0000d	8b 45 08	 mov	 eax, DWORD PTR __First$[ebp]
  00010	50		 push	 eax
  00011	e8 00 00 00 00	 call	 ??$_Zero_range@PAH@std@@YAPAHQAH0@Z ; std::_Zero_range<int *>
  00016	83 c4 08	 add	 esp, 8

; 337  : 	}

  00019	5d		 pop	 ebp
  0001a	c3		 ret	 0
??$_Uninitialized_value_construct_n1@PAHIV?$allocator@H@std@@@std@@YAPAHPAHIAAV?$allocator@H@0@U?$integral_constant@_N$00@0@@Z ENDP ; std::_Uninitialized_value_construct_n1<int *,unsigned int,std::allocator<int> >
_TEXT	ENDS
; Function compile flags: /Odtp
; File c:\program files (x86)\microsoft visual studio\2017\community\vc\tools\msvc\14.16.27023\include\xutility
;	COMDAT ??$_Seek_wrapped@V?$_Vector_iterator@V?$_Vector_val@U?$_Simple_types@H@std@@@std@@@std@@PAH$0A@@std@@YAXAAV?$_Vector_iterator@V?$_Vector_val@U?$_Simple_types@H@std@@@std@@@0@ABQAH@Z
_TEXT	SEGMENT
__It$ = 8						; size = 4
__UIt$ = 12						; size = 4
??$_Seek_wrapped@V?$_Vector_iterator@V?$_Vector_val@U?$_Simple_types@H@std@@@std@@@std@@PAH$0A@@std@@YAXAAV?$_Vector_iterator@V?$_Vector_val@U?$_Simple_types@H@std@@@std@@@0@ABQAH@Z PROC ; std::_Seek_wrapped<std::_Vector_iterator<std::_Vector_val<std::_Simple_types<int> > >,int *,0>, COMDAT

; 856  : 	{

  00000	55		 push	 ebp
  00001	8b ec		 mov	 ebp, esp

; 857  : 	_It._Seek_to(_UIt);

  00003	8b 45 0c	 mov	 eax, DWORD PTR __UIt$[ebp]
  00006	8b 08		 mov	 ecx, DWORD PTR [eax]
  00008	51		 push	 ecx
  00009	8b 4d 08	 mov	 ecx, DWORD PTR __It$[ebp]
  0000c	e8 00 00 00 00	 call	 ?_Seek_to@?$_Vector_const_iterator@V?$_Vector_val@U?$_Simple_types@H@std@@@std@@@std@@QAEXPBH@Z ; std::_Vector_const_iterator<std::_Vector_val<std::_Simple_types<int> > >::_Seek_to

; 858  : 	}

  00011	5d		 pop	 ebp
  00012	c3		 ret	 0
??$_Seek_wrapped@V?$_Vector_iterator@V?$_Vector_val@U?$_Simple_types@H@std@@@std@@@std@@PAH$0A@@std@@YAXAAV?$_Vector_iterator@V?$_Vector_val@U?$_Simple_types@H@std@@@std@@@0@ABQAH@Z ENDP ; std::_Seek_wrapped<std::_Vector_iterator<std::_Vector_val<std::_Simple_types<int> > >,int *,0>
_TEXT	ENDS
; Function compile flags: /Odtp
; File c:\program files (x86)\microsoft visual studio\2017\community\vc\tools\msvc\14.16.27023\include\xutility
;	COMDAT ??$_Copy_unchecked@PAHPAH@std@@YAPAHPAH00@Z
_TEXT	SEGMENT
$T1 = -2						; size = 1
$T2 = -1						; size = 1
__First$ = 8						; size = 4
__Last$ = 12						; size = 4
__Dest$ = 16						; size = 4
??$_Copy_unchecked@PAHPAH@std@@YAPAHPAH00@Z PROC	; std::_Copy_unchecked<int *,int *>, COMDAT

; 2432 : 	{	// copy [_First, _Last) to [_Dest, ...)

  00000	55		 push	 ebp
  00001	8b ec		 mov	 ebp, esp
  00003	51		 push	 ecx

; 2433 : 		// note: _Copy_unchecked is called directly from elsewhere in the STL
; 2434 : 	return (_Copy_unchecked1(_First, _Last, _Dest, _Ptr_copy_cat(_First, _Dest)));

  00004	8d 45 10	 lea	 eax, DWORD PTR __Dest$[ebp]
  00007	50		 push	 eax
  00008	8d 4d 08	 lea	 ecx, DWORD PTR __First$[ebp]
  0000b	51		 push	 ecx
  0000c	8d 55 ff	 lea	 edx, DWORD PTR $T2[ebp]
  0000f	52		 push	 edx
  00010	e8 00 00 00 00	 call	 ??$_Ptr_copy_cat@HH@std@@YA?AU_Really_trivial_ptr_iterator_tag@0@ABQAH0@Z ; std::_Ptr_copy_cat<int,int>
  00015	83 c4 0c	 add	 esp, 12			; 0000000cH
  00018	0f b6 45 fe	 movzx	 eax, BYTE PTR $T1[ebp]
  0001c	50		 push	 eax
  0001d	8b 4d 10	 mov	 ecx, DWORD PTR __Dest$[ebp]
  00020	51		 push	 ecx
  00021	8b 55 0c	 mov	 edx, DWORD PTR __Last$[ebp]
  00024	52		 push	 edx
  00025	8b 45 08	 mov	 eax, DWORD PTR __First$[ebp]
  00028	50		 push	 eax
  00029	e8 00 00 00 00	 call	 ??$_Copy_unchecked1@PAHPAH@std@@YAPAHPAH00U_Trivially_copyable_ptr_iterator_tag@0@@Z ; std::_Copy_unchecked1<int *,int *>
  0002e	83 c4 10	 add	 esp, 16			; 00000010H

; 2435 : 	}

  00031	8b e5		 mov	 esp, ebp
  00033	5d		 pop	 ebp
  00034	c3		 ret	 0
??$_Copy_unchecked@PAHPAH@std@@YAPAHPAH00@Z ENDP	; std::_Copy_unchecked<int *,int *>
_TEXT	ENDS
; Function compile flags: /Odtp
; File c:\program files (x86)\microsoft visual studio\2017\community\vc\tools\msvc\14.16.27023\include\xutility
;	COMDAT ??$_Get_unwrapped_n@V?$_Vector_iterator@V?$_Vector_val@U?$_Simple_types@H@std@@@std@@@std@@H$0A@@std@@YAPAHABV?$_Vector_iterator@V?$_Vector_val@U?$_Simple_types@H@std@@@std@@@0@H@Z
_TEXT	SEGMENT
__COff$ = -4						; size = 4
__It$ = 8						; size = 4
__Off$ = 12						; size = 4
??$_Get_unwrapped_n@V?$_Vector_iterator@V?$_Vector_val@U?$_Simple_types@H@std@@@std@@@std@@H$0A@@std@@YAPAHABV?$_Vector_iterator@V?$_Vector_val@U?$_Simple_types@H@std@@@std@@@0@H@Z PROC ; std::_Get_unwrapped_n<std::_Vector_iterator<std::_Vector_val<std::_Simple_types<int> > >,int,0>, COMDAT

; 760  : 	{	// ask an iterator to assert that the iterator moved _Off positions is valid, and unwrap

  00000	55		 push	 ebp
  00001	8b ec		 mov	 ebp, esp
  00003	51		 push	 ecx

; 761  : 	using _IDiff = _Iter_diff_t<_Iter>;
; 762  : 	using _CDiff = common_type_t<_Diff, _IDiff>;
; 763  : 	const auto _COff = static_cast<_CDiff>(_Off);

  00004	8b 45 0c	 mov	 eax, DWORD PTR __Off$[ebp]
  00007	89 45 fc	 mov	 DWORD PTR __COff$[ebp], eax

; 764  : 
; 765  : 	_STL_ASSERT(_COff <= static_cast<_CDiff>(_Max_possible_v<_IDiff>)
; 766  : 		&& (is_unsigned_v<_Diff> || static_cast<_CDiff>(_Min_possible_v<_IDiff>) <= _COff),
; 767  : 		"integer overflow");
; 768  : 	(void) _COff;
; 769  : 
; 770  : 	_It._Verify_offset(static_cast<_IDiff>(_Off));

  0000a	8b 4d 0c	 mov	 ecx, DWORD PTR __Off$[ebp]
  0000d	51		 push	 ecx
  0000e	8b 4d 08	 mov	 ecx, DWORD PTR __It$[ebp]
  00011	e8 00 00 00 00	 call	 ?_Verify_offset@?$_Vector_const_iterator@V?$_Vector_val@U?$_Simple_types@H@std@@@std@@@std@@QBEXH@Z ; std::_Vector_const_iterator<std::_Vector_val<std::_Simple_types<int> > >::_Verify_offset

; 771  : 	return (_It._Unwrapped());

  00016	8b 4d 08	 mov	 ecx, DWORD PTR __It$[ebp]
  00019	e8 00 00 00 00	 call	 ?_Unwrapped@?$_Vector_iterator@V?$_Vector_val@U?$_Simple_types@H@std@@@std@@@std@@QBEPAHXZ ; std::_Vector_iterator<std::_Vector_val<std::_Simple_types<int> > >::_Unwrapped

; 772  : 	}

  0001e	8b e5		 mov	 esp, ebp
  00020	5d		 pop	 ebp
  00021	c3		 ret	 0
??$_Get_unwrapped_n@V?$_Vector_iterator@V?$_Vector_val@U?$_Simple_types@H@std@@@std@@@std@@H$0A@@std@@YAPAHABV?$_Vector_iterator@V?$_Vector_val@U?$_Simple_types@H@std@@@std@@@0@H@Z ENDP ; std::_Get_unwrapped_n<std::_Vector_iterator<std::_Vector_val<std::_Simple_types<int> > >,int,0>
_TEXT	ENDS
; Function compile flags: /Odtp
; File c:\program files (x86)\microsoft visual studio\2017\community\vc\tools\msvc\14.16.27023\include\xutility
;	COMDAT ??$_Idl_distance1@V?$_Vector_iterator@V?$_Vector_val@U?$_Simple_types@H@std@@@std@@@std@@PAH@std@@YAHABQAH0Urandom_access_iterator_tag@0@@Z
_TEXT	SEGMENT
__First$ = 8						; size = 4
__Last$ = 12						; size = 4
___formal$ = 16						; size = 1
??$_Idl_distance1@V?$_Vector_iterator@V?$_Vector_val@U?$_Simple_types@H@std@@@std@@@std@@PAH@std@@YAHABQAH0Urandom_access_iterator_tag@0@@Z PROC ; std::_Idl_distance1<std::_Vector_iterator<std::_Vector_val<std::_Simple_types<int> > >,int *>, COMDAT

; 967  : 	{	// _Idl_distance for random-access iterators

  00000	55		 push	 ebp
  00001	8b ec		 mov	 ebp, esp

; 968  : 	return (static_cast<_Iter_diff_t<_Checked>>(_Last - _First));

  00003	8b 45 0c	 mov	 eax, DWORD PTR __Last$[ebp]
  00006	8b 4d 08	 mov	 ecx, DWORD PTR __First$[ebp]
  00009	8b 00		 mov	 eax, DWORD PTR [eax]
  0000b	2b 01		 sub	 eax, DWORD PTR [ecx]
  0000d	c1 f8 02	 sar	 eax, 2

; 969  : 	}

  00010	5d		 pop	 ebp
  00011	c3		 ret	 0
??$_Idl_distance1@V?$_Vector_iterator@V?$_Vector_val@U?$_Simple_types@H@std@@@std@@@std@@PAH@std@@YAHABQAH0Urandom_access_iterator_tag@0@@Z ENDP ; std::_Idl_distance1<std::_Vector_iterator<std::_Vector_val<std::_Simple_types<int> > >,int *>
_TEXT	ENDS
; Function compile flags: /Odtp
; File c:\program files (x86)\microsoft visual studio\2017\community\vc\tools\msvc\14.16.27023\include\xutility
;	COMDAT ??$_Idl_distance@V?$_Vector_iterator@V?$_Vector_val@U?$_Simple_types@H@std@@@std@@@std@@PAH@std@@YAHABQAH0@Z
_TEXT	SEGMENT
$T1 = -1						; size = 1
__First$ = 8						; size = 4
__Last$ = 12						; size = 4
??$_Idl_distance@V?$_Vector_iterator@V?$_Vector_val@U?$_Simple_types@H@std@@@std@@@std@@PAH@std@@YAHABQAH0@Z PROC ; std::_Idl_distance<std::_Vector_iterator<std::_Vector_val<std::_Simple_types<int> > >,int *>, COMDAT

; 974  : 	{	// tries to get the distance between _First and _Last if they are random-access iterators

  00000	55		 push	 ebp
  00001	8b ec		 mov	 ebp, esp
  00003	51		 push	 ecx

; 975  : 	return (_Idl_distance1<_Checked>(_First, _Last, _Iter_cat_t<_Iter>()));

  00004	0f b6 45 ff	 movzx	 eax, BYTE PTR $T1[ebp]
  00008	50		 push	 eax
  00009	8b 4d 0c	 mov	 ecx, DWORD PTR __Last$[ebp]
  0000c	51		 push	 ecx
  0000d	8b 55 08	 mov	 edx, DWORD PTR __First$[ebp]
  00010	52		 push	 edx
  00011	e8 00 00 00 00	 call	 ??$_Idl_distance1@V?$_Vector_iterator@V?$_Vector_val@U?$_Simple_types@H@std@@@std@@@std@@PAH@std@@YAHABQAH0Urandom_access_iterator_tag@0@@Z ; std::_Idl_distance1<std::_Vector_iterator<std::_Vector_val<std::_Simple_types<int> > >,int *>
  00016	83 c4 0c	 add	 esp, 12			; 0000000cH

; 976  : 	}

  00019	8b e5		 mov	 esp, ebp
  0001b	5d		 pop	 ebp
  0001c	c3		 ret	 0
??$_Idl_distance@V?$_Vector_iterator@V?$_Vector_val@U?$_Simple_types@H@std@@@std@@@std@@PAH@std@@YAHABQAH0@Z ENDP ; std::_Idl_distance<std::_Vector_iterator<std::_Vector_val<std::_Simple_types<int> > >,int *>
_TEXT	ENDS
; Function compile flags: /Odtp
; File c:\program files (x86)\microsoft visual studio\2017\community\vc\tools\msvc\14.16.27023\include\xutility
;	COMDAT ??$_Fill_unchecked@PAHH@std@@YAXPAH0ABH@Z
_TEXT	SEGMENT
$T1 = -1						; size = 1
__First$ = 8						; size = 4
__Last$ = 12						; size = 4
__Val$ = 16						; size = 4
??$_Fill_unchecked@PAHH@std@@YAXPAH0ABH@Z PROC		; std::_Fill_unchecked<int *,int>, COMDAT

; 2916 : 	{	// copy _Val through [_First, _Last), choose optimization

  00000	55		 push	 ebp
  00001	8b ec		 mov	 ebp, esp
  00003	51		 push	 ecx

; 2917 : 	_Fill_unchecked1(_First, _Last, _Val, _Fill_memset_is_safe(_First, _Val));

  00004	8b 45 10	 mov	 eax, DWORD PTR __Val$[ebp]
  00007	50		 push	 eax
  00008	8d 4d 08	 lea	 ecx, DWORD PTR __First$[ebp]
  0000b	51		 push	 ecx
  0000c	e8 00 00 00 00	 call	 ??$_Fill_memset_is_safe@PAHH@std@@YA?AU?$integral_constant@_N$0A@@0@ABQAHABH@Z ; std::_Fill_memset_is_safe<int *,int>
  00011	83 c4 08	 add	 esp, 8
  00014	88 45 ff	 mov	 BYTE PTR $T1[ebp], al
  00017	0f b6 55 ff	 movzx	 edx, BYTE PTR $T1[ebp]
  0001b	52		 push	 edx
  0001c	8b 45 10	 mov	 eax, DWORD PTR __Val$[ebp]
  0001f	50		 push	 eax
  00020	8b 4d 0c	 mov	 ecx, DWORD PTR __Last$[ebp]
  00023	51		 push	 ecx
  00024	8b 55 08	 mov	 edx, DWORD PTR __First$[ebp]
  00027	52		 push	 edx
  00028	e8 00 00 00 00	 call	 ??$_Fill_unchecked1@PAHH@std@@YAXPAH0ABHU?$integral_constant@_N$0A@@0@@Z ; std::_Fill_unchecked1<int *,int>
  0002d	83 c4 10	 add	 esp, 16			; 00000010H

; 2918 : 	}

  00030	8b e5		 mov	 esp, ebp
  00032	5d		 pop	 ebp
  00033	c3		 ret	 0
??$_Fill_unchecked@PAHH@std@@YAXPAH0ABH@Z ENDP		; std::_Fill_unchecked<int *,int>
_TEXT	ENDS
; Function compile flags: /Odtp
; File c:\program files (x86)\microsoft visual studio\2017\community\vc\tools\msvc\14.16.27023\include\xutility
;	COMDAT ??$_Get_unwrapped@V?$_Vector_iterator@V?$_Vector_val@U?$_Simple_types@H@std@@@std@@@std@@$0A@@std@@YAPAHABV?$_Vector_iterator@V?$_Vector_val@U?$_Simple_types@H@std@@@std@@@0@@Z
_TEXT	SEGMENT
__It$ = 8						; size = 4
??$_Get_unwrapped@V?$_Vector_iterator@V?$_Vector_val@U?$_Simple_types@H@std@@@std@@@std@@$0A@@std@@YAPAHABV?$_Vector_iterator@V?$_Vector_val@U?$_Simple_types@H@std@@@std@@@0@@Z PROC ; std::_Get_unwrapped<std::_Vector_iterator<std::_Vector_val<std::_Simple_types<int> > >,0>, COMDAT

; 642  : 	{	// unwrap an iterator previously subjected to _Adl_verify_range or otherwise validated

  00000	55		 push	 ebp
  00001	8b ec		 mov	 ebp, esp

; 643  : 	return (_It._Unwrapped());

  00003	8b 4d 08	 mov	 ecx, DWORD PTR __It$[ebp]
  00006	e8 00 00 00 00	 call	 ?_Unwrapped@?$_Vector_iterator@V?$_Vector_val@U?$_Simple_types@H@std@@@std@@@std@@QBEPAHXZ ; std::_Vector_iterator<std::_Vector_val<std::_Simple_types<int> > >::_Unwrapped

; 644  : 	}

  0000b	5d		 pop	 ebp
  0000c	c3		 ret	 0
??$_Get_unwrapped@V?$_Vector_iterator@V?$_Vector_val@U?$_Simple_types@H@std@@@std@@@std@@$0A@@std@@YAPAHABV?$_Vector_iterator@V?$_Vector_val@U?$_Simple_types@H@std@@@std@@@0@@Z ENDP ; std::_Get_unwrapped<std::_Vector_iterator<std::_Vector_val<std::_Simple_types<int> > >,0>
_TEXT	ENDS
; Function compile flags: /Odtp
; File c:\program files (x86)\microsoft visual studio\2017\community\vc\tools\msvc\14.16.27023\include\xutility
;	COMDAT ??$_Adl_verify_range@V?$_Vector_iterator@V?$_Vector_val@U?$_Simple_types@H@std@@@std@@@std@@V12@@std@@YAXABV?$_Vector_iterator@V?$_Vector_val@U?$_Simple_types@H@std@@@std@@@0@0@Z
_TEXT	SEGMENT
$T1 = -1						; size = 1
__First$ = 8						; size = 4
__Last$ = 12						; size = 4
??$_Adl_verify_range@V?$_Vector_iterator@V?$_Vector_val@U?$_Simple_types@H@std@@@std@@@std@@V12@@std@@YAXABV?$_Vector_iterator@V?$_Vector_val@U?$_Simple_types@H@std@@@std@@@0@0@Z PROC ; std::_Adl_verify_range<std::_Vector_iterator<std::_Vector_val<std::_Simple_types<int> > >,std::_Vector_iterator<std::_Vector_val<std::_Simple_types<int> > > >, COMDAT

; 615  : 	{	// check that [_First, _Last) forms an iterator range

  00000	55		 push	 ebp
  00001	8b ec		 mov	 ebp, esp
  00003	51		 push	 ecx

; 616  : 	_Adl_verify_range1(_First, _Last, bool_constant<_Range_verifiable_v<_Iter, _Sentinel>>{});

  00004	33 c0		 xor	 eax, eax
  00006	88 45 ff	 mov	 BYTE PTR $T1[ebp], al
  00009	0f b6 4d ff	 movzx	 ecx, BYTE PTR $T1[ebp]
  0000d	51		 push	 ecx
  0000e	8b 55 0c	 mov	 edx, DWORD PTR __Last$[ebp]
  00011	52		 push	 edx
  00012	8b 45 08	 mov	 eax, DWORD PTR __First$[ebp]
  00015	50		 push	 eax
  00016	e8 00 00 00 00	 call	 ??$_Adl_verify_range1@V?$_Vector_iterator@V?$_Vector_val@U?$_Simple_types@H@std@@@std@@@std@@V12@@std@@YAXABV?$_Vector_iterator@V?$_Vector_val@U?$_Simple_types@H@std@@@std@@@0@0U?$integral_constant@_N$0A@@0@@Z ; std::_Adl_verify_range1<std::_Vector_iterator<std::_Vector_val<std::_Simple_types<int> > >,std::_Vector_iterator<std::_Vector_val<std::_Simple_types<int> > > >
  0001b	83 c4 0c	 add	 esp, 12			; 0000000cH

; 617  : 	}

  0001e	8b e5		 mov	 esp, ebp
  00020	5d		 pop	 ebp
  00021	c3		 ret	 0
??$_Adl_verify_range@V?$_Vector_iterator@V?$_Vector_val@U?$_Simple_types@H@std@@@std@@@std@@V12@@std@@YAXABV?$_Vector_iterator@V?$_Vector_val@U?$_Simple_types@H@std@@@std@@@0@0@Z ENDP ; std::_Adl_verify_range<std::_Vector_iterator<std::_Vector_val<std::_Simple_types<int> > >,std::_Vector_iterator<std::_Vector_val<std::_Simple_types<int> > > >
_TEXT	ENDS
; Function compile flags: /Odtp
; File c:\program files (x86)\microsoft visual studio\2017\community\vc\tools\msvc\14.16.27023\include\xmemory0
;	COMDAT ??$_Destroy_range@V?$allocator@H@std@@@std@@YAXPAH0AAV?$allocator@H@0@@Z
_TEXT	SEGMENT
$T1 = -1						; size = 1
__First$ = 8						; size = 4
__Last$ = 12						; size = 4
__Al$ = 16						; size = 4
??$_Destroy_range@V?$allocator@H@std@@@std@@YAXPAH0AAV?$allocator@H@0@@Z PROC ; std::_Destroy_range<std::allocator<int> >, COMDAT

; 1154 : 	{	// destroy [_First, _Last), choose optimization

  00000	55		 push	 ebp
  00001	8b ec		 mov	 ebp, esp
  00003	51		 push	 ecx

; 1155 : 		// note that this is an optimization for debug mode codegen;
; 1156 : 		// in release mode the BE removes all of this
; 1157 : 	using _Val = typename _Alloc::value_type;
; 1158 : 	_Destroy_range1(_First, _Last, _Al, bool_constant<conjunction_v<

  00004	33 c0		 xor	 eax, eax
  00006	88 45 ff	 mov	 BYTE PTR $T1[ebp], al
  00009	0f b6 4d ff	 movzx	 ecx, BYTE PTR $T1[ebp]
  0000d	51		 push	 ecx
  0000e	8b 55 10	 mov	 edx, DWORD PTR __Al$[ebp]
  00011	52		 push	 edx
  00012	8b 45 0c	 mov	 eax, DWORD PTR __Last$[ebp]
  00015	50		 push	 eax
  00016	8b 4d 08	 mov	 ecx, DWORD PTR __First$[ebp]
  00019	51		 push	 ecx
  0001a	e8 00 00 00 00	 call	 ??$_Destroy_range1@V?$allocator@H@std@@@std@@YAXPAH0AAV?$allocator@H@0@U?$integral_constant@_N$00@0@@Z ; std::_Destroy_range1<std::allocator<int> >
  0001f	83 c4 10	 add	 esp, 16			; 00000010H

; 1159 : 		is_trivially_destructible<_Val>,
; 1160 : 		_Uses_default_destroy<_Alloc, _Val *>>>{});
; 1161 : 	}

  00022	8b e5		 mov	 esp, ebp
  00024	5d		 pop	 ebp
  00025	c3		 ret	 0
??$_Destroy_range@V?$allocator@H@std@@@std@@YAXPAH0AAV?$allocator@H@0@@Z ENDP ; std::_Destroy_range<std::allocator<int> >
_TEXT	ENDS
; Function compile flags: /Odtp
; File c:\program files (x86)\microsoft visual studio\2017\community\vc\tools\msvc\14.16.27023\include\xmemory0
;	COMDAT ??$_Deallocate@$07$0A@@std@@YAXPAXI@Z
_TEXT	SEGMENT
__Ptr$ = 8						; size = 4
__Bytes$ = 12						; size = 4
??$_Deallocate@$07$0A@@std@@YAXPAXI@Z PROC		; std::_Deallocate<8,0>, COMDAT

; 199  : 	{	// deallocate storage allocated by _Allocate when !_HAS_ALIGNED_NEW || _Align <= __STDCPP_DEFAULT_NEW_ALIGNMENT__

  00000	55		 push	 ebp
  00001	8b ec		 mov	 ebp, esp

; 200  :  #if defined(_M_IX86) || defined(_M_X64)
; 201  : 	if (_Bytes >= _Big_allocation_threshold)

  00003	81 7d 0c 00 10
	00 00		 cmp	 DWORD PTR __Bytes$[ebp], 4096 ; 00001000H
  0000a	72 10		 jb	 SHORT $LN2@Deallocate

; 202  : 		{	// boost the alignment of big allocations to help autovectorization
; 203  : 		_Adjust_manually_vector_aligned(_Ptr, _Bytes);

  0000c	8d 45 0c	 lea	 eax, DWORD PTR __Bytes$[ebp]
  0000f	50		 push	 eax
  00010	8d 4d 08	 lea	 ecx, DWORD PTR __Ptr$[ebp]
  00013	51		 push	 ecx
  00014	e8 00 00 00 00	 call	 ?_Adjust_manually_vector_aligned@std@@YAXAAPAXAAI@Z ; std::_Adjust_manually_vector_aligned
  00019	83 c4 08	 add	 esp, 8
$LN2@Deallocate:

; 204  : 		}
; 205  :  #endif /* defined(_M_IX86) || defined(_M_X64) */
; 206  : 
; 207  : 	::operator delete(_Ptr, _Bytes);

  0001c	8b 55 0c	 mov	 edx, DWORD PTR __Bytes$[ebp]
  0001f	52		 push	 edx
  00020	8b 45 08	 mov	 eax, DWORD PTR __Ptr$[ebp]
  00023	50		 push	 eax
  00024	e8 00 00 00 00	 call	 ??3@YAXPAXI@Z		; operator delete
  00029	83 c4 08	 add	 esp, 8

; 208  : 	}

  0002c	5d		 pop	 ebp
  0002d	c3		 ret	 0
??$_Deallocate@$07$0A@@std@@YAXPAXI@Z ENDP		; std::_Deallocate<8,0>
_TEXT	ENDS
; Function compile flags: /Odtp
; File c:\program files (x86)\microsoft visual studio\2017\community\vc\tools\msvc\14.16.27023\include\xmemory0
;	COMDAT ??$_Allocate@$07U_Default_allocate_traits@std@@$0A@@std@@YAPAXI@Z
_TEXT	SEGMENT
__Bytes$ = 8						; size = 4
??$_Allocate@$07U_Default_allocate_traits@std@@$0A@@std@@YAPAXI@Z PROC ; std::_Allocate<8,std::_Default_allocate_traits,0>, COMDAT

; 180  : 	{	// allocate _Bytes when !_HAS_ALIGNED_NEW || _Align <= __STDCPP_DEFAULT_NEW_ALIGNMENT__

  00000	55		 push	 ebp
  00001	8b ec		 mov	 ebp, esp

; 181  :  #if defined(_M_IX86) || defined(_M_X64)
; 182  : 	if (_Bytes >= _Big_allocation_threshold)

  00003	81 7d 08 00 10
	00 00		 cmp	 DWORD PTR __Bytes$[ebp], 4096 ; 00001000H
  0000a	72 0e		 jb	 SHORT $LN2@Allocate

; 183  : 		{	// boost the alignment of big allocations to help autovectorization
; 184  : 		return (_Allocate_manually_vector_aligned<_Traits>(_Bytes));

  0000c	8b 45 08	 mov	 eax, DWORD PTR __Bytes$[ebp]
  0000f	50		 push	 eax
  00010	e8 00 00 00 00	 call	 ??$_Allocate_manually_vector_aligned@U_Default_allocate_traits@std@@@std@@YAPAXI@Z ; std::_Allocate_manually_vector_aligned<std::_Default_allocate_traits>
  00015	83 c4 04	 add	 esp, 4
  00018	eb 16		 jmp	 SHORT $LN1@Allocate
$LN2@Allocate:

; 185  : 		}
; 186  :  #endif /* defined(_M_IX86) || defined(_M_X64) */
; 187  : 
; 188  : 	if (_Bytes != 0)

  0001a	83 7d 08 00	 cmp	 DWORD PTR __Bytes$[ebp], 0
  0001e	74 0e		 je	 SHORT $LN3@Allocate

; 189  : 		{
; 190  : 		return (_Traits::_Allocate(_Bytes));

  00020	8b 4d 08	 mov	 ecx, DWORD PTR __Bytes$[ebp]
  00023	51		 push	 ecx
  00024	e8 00 00 00 00	 call	 ?_Allocate@_Default_allocate_traits@std@@SAPAXI@Z ; std::_Default_allocate_traits::_Allocate
  00029	83 c4 04	 add	 esp, 4
  0002c	eb 02		 jmp	 SHORT $LN1@Allocate
$LN3@Allocate:

; 191  : 		}
; 192  : 
; 193  : 	return (nullptr);

  0002e	33 c0		 xor	 eax, eax
$LN1@Allocate:

; 194  : 	}

  00030	5d		 pop	 ebp
  00031	c3		 ret	 0
??$_Allocate@$07U_Default_allocate_traits@std@@$0A@@std@@YAPAXI@Z ENDP ; std::_Allocate<8,std::_Default_allocate_traits,0>
_TEXT	ENDS
; Function compile flags: /Odtp
; File c:\program files (x86)\microsoft visual studio\2017\community\vc\tools\msvc\14.16.27023\include\xmemory
;	COMDAT ??$_Uninitialized_value_construct_n@PAHIV?$allocator@H@std@@@std@@YAPAHPAHIAAV?$allocator@H@0@@Z
_TEXT	SEGMENT
$T1 = -1						; size = 1
__First$ = 8						; size = 4
__Count$ = 12						; size = 4
__Al$ = 16						; size = 4
??$_Uninitialized_value_construct_n@PAHIV?$allocator@H@std@@@std@@YAPAHPAHIAAV?$allocator@H@0@@Z PROC ; std::_Uninitialized_value_construct_n<int *,unsigned int,std::allocator<int> >, COMDAT

; 343  : 	{	// value-initialize _Count objects to raw _First, using _Al

  00000	55		 push	 ebp
  00001	8b ec		 mov	 ebp, esp
  00003	51		 push	 ecx

; 344  : 	return (_Uninitialized_value_construct_n1(_First, _Count, _Al,

  00004	33 c0		 xor	 eax, eax
  00006	88 45 ff	 mov	 BYTE PTR $T1[ebp], al
  00009	0f b6 4d ff	 movzx	 ecx, BYTE PTR $T1[ebp]
  0000d	51		 push	 ecx
  0000e	8b 55 10	 mov	 edx, DWORD PTR __Al$[ebp]
  00011	52		 push	 edx
  00012	8b 45 0c	 mov	 eax, DWORD PTR __Count$[ebp]
  00015	50		 push	 eax
  00016	8b 4d 08	 mov	 ecx, DWORD PTR __First$[ebp]
  00019	51		 push	 ecx
  0001a	e8 00 00 00 00	 call	 ??$_Uninitialized_value_construct_n1@PAHIV?$allocator@H@std@@@std@@YAPAHPAHIAAV?$allocator@H@0@U?$integral_constant@_N$00@0@@Z ; std::_Uninitialized_value_construct_n1<int *,unsigned int,std::allocator<int> >
  0001f	83 c4 10	 add	 esp, 16			; 00000010H

; 345  : 		bool_constant<conjunction_v<_Use_memset_value_construct_t<_FwdIt>,
; 346  : 			_Uses_default_construct<_Alloc, decltype(_Unfancy(_First))>>>{}));
; 347  : 	}

  00022	8b e5		 mov	 esp, ebp
  00024	5d		 pop	 ebp
  00025	c3		 ret	 0
??$_Uninitialized_value_construct_n@PAHIV?$allocator@H@std@@@std@@YAPAHPAHIAAV?$allocator@H@0@@Z ENDP ; std::_Uninitialized_value_construct_n<int *,unsigned int,std::allocator<int> >
_TEXT	ENDS
; Function compile flags: /Odtp
; File c:\program files (x86)\microsoft visual studio\2017\community\vc\tools\msvc\14.16.27023\include\xutility
;	COMDAT ??$?0$$V@?$_Compressed_pair@V?$allocator@H@std@@V?$_Vector_val@U?$_Simple_types@H@std@@@2@$00@std@@QAE@U_Zero_then_variadic_args_t@1@@Z
_TEXT	SEGMENT
_this$ = -4						; size = 4
___formal$ = 8						; size = 1
??$?0$$V@?$_Compressed_pair@V?$allocator@H@std@@V?$_Vector_val@U?$_Simple_types@H@std@@@2@$00@std@@QAE@U_Zero_then_variadic_args_t@1@@Z PROC ; std::_Compressed_pair<std::allocator<int>,std::_Vector_val<std::_Simple_types<int> >,1>::_Compressed_pair<std::allocator<int>,std::_Vector_val<std::_Simple_types<int> >,1><>, COMDAT
; _this$ = ecx

; 278  : 		{	// construct from forwarded values

  00000	55		 push	 ebp
  00001	8b ec		 mov	 ebp, esp
  00003	51		 push	 ecx
  00004	89 4d fc	 mov	 DWORD PTR _this$[ebp], ecx

; 277  : 		: _Ty1(), _Myval2(_STD forward<_Other2>(_Val2)...)

  00007	8b 4d fc	 mov	 ecx, DWORD PTR _this$[ebp]
  0000a	e8 00 00 00 00	 call	 ??0?$allocator@H@std@@QAE@XZ ; std::allocator<int>::allocator<int>
  0000f	8b 4d fc	 mov	 ecx, DWORD PTR _this$[ebp]
  00012	e8 00 00 00 00	 call	 ??0?$_Vector_val@U?$_Simple_types@H@std@@@std@@QAE@XZ ; std::_Vector_val<std::_Simple_types<int> >::_Vector_val<std::_Simple_types<int> >

; 279  : 		}

  00017	8b 45 fc	 mov	 eax, DWORD PTR _this$[ebp]
  0001a	8b e5		 mov	 esp, ebp
  0001c	5d		 pop	 ebp
  0001d	c2 04 00	 ret	 4
??$?0$$V@?$_Compressed_pair@V?$allocator@H@std@@V?$_Vector_val@U?$_Simple_types@H@std@@@2@$00@std@@QAE@U_Zero_then_variadic_args_t@1@@Z ENDP ; std::_Compressed_pair<std::allocator<int>,std::_Vector_val<std::_Simple_types<int> >,1>::_Compressed_pair<std::allocator<int>,std::_Vector_val<std::_Simple_types<int> >,1><>
_TEXT	ENDS
; Function compile flags: /Odtp
; File c:\program files (x86)\microsoft visual studio\2017\community\vc\tools\msvc\14.16.27023\include\vector
;	COMDAT ??$_Resize@V<lambda_4f2fd6a84b983411848f0e0333d0ea32>@@@?$vector@HV?$allocator@H@std@@@std@@AAEXIV<lambda_4f2fd6a84b983411848f0e0333d0ea32>@@@Z
_TEXT	SEGMENT
tv215 = -56						; size = 4
__Oldcapacity$ = -52					; size = 4
__Appended_last$2 = -48					; size = 4
__Newlast$3 = -44					; size = 4
__Oldlast$4 = -40					; size = 4
__Newcapacity$5 = -36					; size = 4
__Appended_first$6 = -32				; size = 4
__Newvec$7 = -28					; size = 4
__Oldsize$ = -24					; size = 4
_this$ = -20						; size = 4
__$EHRec$ = -16						; size = 16
__Newsize$ = 8						; size = 4
__Udefault_or_fill$ = 12				; size = 4
??$_Resize@V<lambda_4f2fd6a84b983411848f0e0333d0ea32>@@@?$vector@HV?$allocator@H@std@@@std@@AAEXIV<lambda_4f2fd6a84b983411848f0e0333d0ea32>@@@Z PROC ; std::vector<int,std::allocator<int> >::_Resize<<lambda_4f2fd6a84b983411848f0e0333d0ea32> >, COMDAT
; _this$ = ecx

; 1428 : 		{	// trim or append elements, provide strong guarantee

  00000	55		 push	 ebp
  00001	8b ec		 mov	 ebp, esp
  00003	6a ff		 push	 -1
  00005	68 00 00 00 00	 push	 __ehhandler$??$_Resize@V<lambda_4f2fd6a84b983411848f0e0333d0ea32>@@@?$vector@HV?$allocator@H@std@@@std@@AAEXIV<lambda_4f2fd6a84b983411848f0e0333d0ea32>@@@Z
  0000a	64 a1 00 00 00
	00		 mov	 eax, DWORD PTR fs:0
  00010	50		 push	 eax
  00011	51		 push	 ecx
  00012	83 ec 28	 sub	 esp, 40			; 00000028H
  00015	53		 push	 ebx
  00016	56		 push	 esi
  00017	57		 push	 edi
  00018	a1 00 00 00 00	 mov	 eax, DWORD PTR ___security_cookie
  0001d	33 c5		 xor	 eax, ebp
  0001f	50		 push	 eax
  00020	8d 45 f4	 lea	 eax, DWORD PTR __$EHRec$[ebp+4]
  00023	64 a3 00 00 00
	00		 mov	 DWORD PTR fs:0, eax
  00029	89 65 f0	 mov	 DWORD PTR __$EHRec$[ebp], esp
  0002c	89 4d ec	 mov	 DWORD PTR _this$[ebp], ecx

; 1429 : 		const size_type _Oldsize = size();

  0002f	8b 4d ec	 mov	 ecx, DWORD PTR _this$[ebp]
  00032	e8 00 00 00 00	 call	 ?size@?$vector@HV?$allocator@H@std@@@std@@QBEIXZ ; std::vector<int,std::allocator<int> >::size
  00037	89 45 e8	 mov	 DWORD PTR __Oldsize$[ebp], eax

; 1430 : 		const size_type _Oldcapacity = capacity();

  0003a	8b 4d ec	 mov	 ecx, DWORD PTR _this$[ebp]
  0003d	e8 00 00 00 00	 call	 ?capacity@?$vector@HV?$allocator@H@std@@@std@@QBEIXZ ; std::vector<int,std::allocator<int> >::capacity
  00042	89 45 cc	 mov	 DWORD PTR __Oldcapacity$[ebp], eax

; 1431 : 
; 1432 : 		if (_Newsize > _Oldcapacity)

  00045	8b 45 08	 mov	 eax, DWORD PTR __Newsize$[ebp]
  00048	3b 45 cc	 cmp	 eax, DWORD PTR __Oldcapacity$[ebp]
  0004b	0f 86 ef 00 00
	00		 jbe	 $LN2@Resize

; 1433 : 			{	// reallocate
; 1434 : 			if (_Newsize > max_size())

  00051	8b 4d ec	 mov	 ecx, DWORD PTR _this$[ebp]
  00054	e8 00 00 00 00	 call	 ?max_size@?$vector@HV?$allocator@H@std@@@std@@QBEIXZ ; std::vector<int,std::allocator<int> >::max_size
  00059	39 45 08	 cmp	 DWORD PTR __Newsize$[ebp], eax
  0005c	76 05		 jbe	 SHORT $LN4@Resize

; 1435 : 				{
; 1436 : 				_Xlength();

  0005e	e8 00 00 00 00	 call	 ?_Xlength@?$vector@HV?$allocator@H@std@@@std@@CAXXZ ; std::vector<int,std::allocator<int> >::_Xlength
$LN4@Resize:

; 1437 : 				}
; 1438 : 
; 1439 : 			const size_type _Newcapacity = _Calculate_growth(_Newsize);

  00063	8b 4d 08	 mov	 ecx, DWORD PTR __Newsize$[ebp]
  00066	51		 push	 ecx
  00067	8b 4d ec	 mov	 ecx, DWORD PTR _this$[ebp]
  0006a	e8 00 00 00 00	 call	 ?_Calculate_growth@?$vector@HV?$allocator@H@std@@@std@@ABEII@Z ; std::vector<int,std::allocator<int> >::_Calculate_growth
  0006f	89 45 dc	 mov	 DWORD PTR __Newcapacity$5[ebp], eax

; 1440 : 
; 1441 : 			const pointer _Newvec = this->_Getal().allocate(_Newcapacity);

  00072	8b 55 dc	 mov	 edx, DWORD PTR __Newcapacity$5[ebp]
  00075	52		 push	 edx
  00076	8b 4d ec	 mov	 ecx, DWORD PTR _this$[ebp]
  00079	e8 00 00 00 00	 call	 ?_Getal@?$_Vector_alloc@U?$_Vec_base_types@HV?$allocator@H@std@@@std@@@std@@QAEAAV?$allocator@H@2@XZ ; std::_Vector_alloc<std::_Vec_base_types<int,std::allocator<int> > >::_Getal
  0007e	8b c8		 mov	 ecx, eax
  00080	e8 00 00 00 00	 call	 ?allocate@?$allocator@H@std@@QAEPAHI@Z ; std::allocator<int>::allocate
  00085	89 45 e4	 mov	 DWORD PTR __Newvec$7[ebp], eax

; 1442 : 			const pointer _Appended_first = _Newvec + _Oldsize;

  00088	8b 45 e8	 mov	 eax, DWORD PTR __Oldsize$[ebp]
  0008b	8b 4d e4	 mov	 ecx, DWORD PTR __Newvec$7[ebp]
  0008e	8d 14 81	 lea	 edx, DWORD PTR [ecx+eax*4]
  00091	89 55 e0	 mov	 DWORD PTR __Appended_first$6[ebp], edx

; 1443 : 			pointer _Appended_last = _Appended_first;

  00094	8b 45 e0	 mov	 eax, DWORD PTR __Appended_first$6[ebp]
  00097	89 45 d0	 mov	 DWORD PTR __Appended_last$2[ebp], eax

; 1444 : 
; 1445 : 			_TRY_BEGIN

  0009a	c7 45 fc 00 00
	00 00		 mov	 DWORD PTR __$EHRec$[ebp+12], 0

; 1446 : 			_Appended_last = _Udefault_or_fill(_Appended_first, _Newsize - _Oldsize);

  000a1	8b 4d 08	 mov	 ecx, DWORD PTR __Newsize$[ebp]
  000a4	2b 4d e8	 sub	 ecx, DWORD PTR __Oldsize$[ebp]
  000a7	51		 push	 ecx
  000a8	8b 55 e0	 mov	 edx, DWORD PTR __Appended_first$6[ebp]
  000ab	52		 push	 edx
  000ac	8d 4d 0c	 lea	 ecx, DWORD PTR __Udefault_or_fill$[ebp]
  000af	e8 00 00 00 00	 call	 ??R<lambda_4f2fd6a84b983411848f0e0333d0ea32>@@QBEPAHPAHI@Z ; <lambda_4f2fd6a84b983411848f0e0333d0ea32>::operator()
  000b4	89 45 c8	 mov	 DWORD PTR tv215[ebp], eax
  000b7	8b 45 c8	 mov	 eax, DWORD PTR tv215[ebp]
  000ba	89 45 d0	 mov	 DWORD PTR __Appended_last$2[ebp], eax

; 1447 : 			_Umove_if_noexcept(this->_Myfirst(), this->_Mylast(), _Newvec);

  000bd	8b 4d e4	 mov	 ecx, DWORD PTR __Newvec$7[ebp]
  000c0	51		 push	 ecx
  000c1	8b 4d ec	 mov	 ecx, DWORD PTR _this$[ebp]
  000c4	e8 00 00 00 00	 call	 ?_Mylast@?$_Vector_alloc@U?$_Vec_base_types@HV?$allocator@H@std@@@std@@@std@@QAEAAPAHXZ ; std::_Vector_alloc<std::_Vec_base_types<int,std::allocator<int> > >::_Mylast
  000c9	8b 10		 mov	 edx, DWORD PTR [eax]
  000cb	52		 push	 edx
  000cc	8b 4d ec	 mov	 ecx, DWORD PTR _this$[ebp]
  000cf	e8 00 00 00 00	 call	 ?_Myfirst@?$_Vector_alloc@U?$_Vec_base_types@HV?$allocator@H@std@@@std@@@std@@QAEAAPAHXZ ; std::_Vector_alloc<std::_Vec_base_types<int,std::allocator<int> > >::_Myfirst
  000d4	8b 00		 mov	 eax, DWORD PTR [eax]
  000d6	50		 push	 eax
  000d7	8b 4d ec	 mov	 ecx, DWORD PTR _this$[ebp]
  000da	e8 00 00 00 00	 call	 ?_Umove_if_noexcept@?$vector@HV?$allocator@H@std@@@std@@AAEXPAH00@Z ; std::vector<int,std::allocator<int> >::_Umove_if_noexcept
  000df	eb 36		 jmp	 SHORT $LN11@Resize
__catch$??$_Resize@V<lambda_4f2fd6a84b983411848f0e0333d0ea32>@@@?$vector@HV?$allocator@H@std@@@std@@AAEXIV<lambda_4f2fd6a84b983411848f0e0333d0ea32>@@@Z$0:

; 1448 : 			_CATCH_ALL
; 1449 : 			_Destroy(_Appended_first, _Appended_last);

  000e1	8b 4d d0	 mov	 ecx, DWORD PTR __Appended_last$2[ebp]
  000e4	51		 push	 ecx
  000e5	8b 55 e0	 mov	 edx, DWORD PTR __Appended_first$6[ebp]
  000e8	52		 push	 edx
  000e9	8b 4d ec	 mov	 ecx, DWORD PTR _this$[ebp]
  000ec	e8 00 00 00 00	 call	 ?_Destroy@?$vector@HV?$allocator@H@std@@@std@@AAEXPAH0@Z ; std::vector<int,std::allocator<int> >::_Destroy

; 1450 : 			this->_Getal().deallocate(_Newvec, _Newcapacity);

  000f1	8b 45 dc	 mov	 eax, DWORD PTR __Newcapacity$5[ebp]
  000f4	50		 push	 eax
  000f5	8b 4d e4	 mov	 ecx, DWORD PTR __Newvec$7[ebp]
  000f8	51		 push	 ecx
  000f9	8b 4d ec	 mov	 ecx, DWORD PTR _this$[ebp]
  000fc	e8 00 00 00 00	 call	 ?_Getal@?$_Vector_alloc@U?$_Vec_base_types@HV?$allocator@H@std@@@std@@@std@@QAEAAV?$allocator@H@2@XZ ; std::_Vector_alloc<std::_Vec_base_types<int,std::allocator<int> > >::_Getal
  00101	8b c8		 mov	 ecx, eax
  00103	e8 00 00 00 00	 call	 ?deallocate@?$allocator@H@std@@QAEXQAHI@Z ; std::allocator<int>::deallocate

; 1451 : 			_RERAISE;

  00108	6a 00		 push	 0
  0010a	6a 00		 push	 0
  0010c	e8 00 00 00 00	 call	 __CxxThrowException@8

; 1452 : 			_CATCH_END

  00111	b8 00 00 00 00	 mov	 eax, $LN14@Resize
  00116	c3		 ret	 0
$LN11@Resize:
  00117	c7 45 fc ff ff
	ff ff		 mov	 DWORD PTR __$EHRec$[ebp+12], -1
  0011e	eb 07		 jmp	 SHORT __tryend$??$_Resize@V<lambda_4f2fd6a84b983411848f0e0333d0ea32>@@@?$vector@HV?$allocator@H@std@@@std@@AAEXIV<lambda_4f2fd6a84b983411848f0e0333d0ea32>@@@Z$1
$LN14@Resize:
  00120	c7 45 fc ff ff
	ff ff		 mov	 DWORD PTR __$EHRec$[ebp+12], -1
__tryend$??$_Resize@V<lambda_4f2fd6a84b983411848f0e0333d0ea32>@@@?$vector@HV?$allocator@H@std@@@std@@AAEXIV<lambda_4f2fd6a84b983411848f0e0333d0ea32>@@@Z$1:

; 1453 : 
; 1454 : 			_Change_array(_Newvec, _Newsize, _Newcapacity);

  00127	8b 55 dc	 mov	 edx, DWORD PTR __Newcapacity$5[ebp]
  0012a	52		 push	 edx
  0012b	8b 45 08	 mov	 eax, DWORD PTR __Newsize$[ebp]
  0012e	50		 push	 eax
  0012f	8b 4d e4	 mov	 ecx, DWORD PTR __Newvec$7[ebp]
  00132	51		 push	 ecx
  00133	8b 4d ec	 mov	 ecx, DWORD PTR _this$[ebp]
  00136	e8 00 00 00 00	 call	 ?_Change_array@?$vector@HV?$allocator@H@std@@@std@@AAEXQAHII@Z ; std::vector<int,std::allocator<int> >::_Change_array
  0013b	e9 9e 00 00 00	 jmp	 $LN10@Resize
$LN2@Resize:

; 1455 : 			}
; 1456 : 		else if (_Newsize > _Oldsize)

  00140	8b 55 08	 mov	 edx, DWORD PTR __Newsize$[ebp]
  00143	3b 55 e8	 cmp	 edx, DWORD PTR __Oldsize$[ebp]
  00146	76 3e		 jbe	 SHORT $LN6@Resize

; 1457 : 			{	// append
; 1458 : 			const pointer _Oldlast = this->_Mylast();

  00148	8b 4d ec	 mov	 ecx, DWORD PTR _this$[ebp]
  0014b	e8 00 00 00 00	 call	 ?_Mylast@?$_Vector_alloc@U?$_Vec_base_types@HV?$allocator@H@std@@@std@@@std@@QAEAAPAHXZ ; std::_Vector_alloc<std::_Vec_base_types<int,std::allocator<int> > >::_Mylast
  00150	8b 00		 mov	 eax, DWORD PTR [eax]
  00152	89 45 d8	 mov	 DWORD PTR __Oldlast$4[ebp], eax

; 1459 : 			this->_Mylast() = _Udefault_or_fill(_Oldlast, _Newsize - _Oldsize);

  00155	8b 4d 08	 mov	 ecx, DWORD PTR __Newsize$[ebp]
  00158	2b 4d e8	 sub	 ecx, DWORD PTR __Oldsize$[ebp]
  0015b	51		 push	 ecx
  0015c	8b 55 d8	 mov	 edx, DWORD PTR __Oldlast$4[ebp]
  0015f	52		 push	 edx
  00160	8d 4d 0c	 lea	 ecx, DWORD PTR __Udefault_or_fill$[ebp]
  00163	e8 00 00 00 00	 call	 ??R<lambda_4f2fd6a84b983411848f0e0333d0ea32>@@QBEPAHPAHI@Z ; <lambda_4f2fd6a84b983411848f0e0333d0ea32>::operator()
  00168	8b f0		 mov	 esi, eax
  0016a	8b 4d ec	 mov	 ecx, DWORD PTR _this$[ebp]
  0016d	e8 00 00 00 00	 call	 ?_Mylast@?$_Vector_alloc@U?$_Vec_base_types@HV?$allocator@H@std@@@std@@@std@@QAEAAPAHXZ ; std::_Vector_alloc<std::_Vec_base_types<int,std::allocator<int> > >::_Mylast
  00172	89 30		 mov	 DWORD PTR [eax], esi

; 1460 : 			_Orphan_range(_Oldlast, _Oldlast);

  00174	8b 45 d8	 mov	 eax, DWORD PTR __Oldlast$4[ebp]
  00177	50		 push	 eax
  00178	8b 4d d8	 mov	 ecx, DWORD PTR __Oldlast$4[ebp]
  0017b	51		 push	 ecx
  0017c	8b 4d ec	 mov	 ecx, DWORD PTR _this$[ebp]
  0017f	e8 00 00 00 00	 call	 ?_Orphan_range@?$vector@HV?$allocator@H@std@@@std@@ABEXPAH0@Z ; std::vector<int,std::allocator<int> >::_Orphan_range
  00184	eb 58		 jmp	 SHORT $LN10@Resize
$LN6@Resize:

; 1461 : 			}
; 1462 : 		else if (_Newsize == _Oldsize)

  00186	8b 55 08	 mov	 edx, DWORD PTR __Newsize$[ebp]
  00189	3b 55 e8	 cmp	 edx, DWORD PTR __Oldsize$[ebp]
  0018c	75 02		 jne	 SHORT $LN8@Resize

; 1463 : 			{	// nothing to do, avoid invalidating iterators
; 1464 : 			}
; 1465 : 		else

  0018e	eb 4e		 jmp	 SHORT $LN10@Resize
$LN8@Resize:

; 1466 : 			{	// trim
; 1467 : 			const pointer _Newlast = this->_Myfirst() + _Newsize;

  00190	8b 4d ec	 mov	 ecx, DWORD PTR _this$[ebp]
  00193	e8 00 00 00 00	 call	 ?_Myfirst@?$_Vector_alloc@U?$_Vec_base_types@HV?$allocator@H@std@@@std@@@std@@QAEAAPAHXZ ; std::_Vector_alloc<std::_Vec_base_types<int,std::allocator<int> > >::_Myfirst
  00198	8b 00		 mov	 eax, DWORD PTR [eax]
  0019a	8b 4d 08	 mov	 ecx, DWORD PTR __Newsize$[ebp]
  0019d	8d 14 88	 lea	 edx, DWORD PTR [eax+ecx*4]
  001a0	89 55 d4	 mov	 DWORD PTR __Newlast$3[ebp], edx

; 1468 : 			_Orphan_range(_Newlast, this->_Mylast());

  001a3	8b 4d ec	 mov	 ecx, DWORD PTR _this$[ebp]
  001a6	e8 00 00 00 00	 call	 ?_Mylast@?$_Vector_alloc@U?$_Vec_base_types@HV?$allocator@H@std@@@std@@@std@@QAEAAPAHXZ ; std::_Vector_alloc<std::_Vec_base_types<int,std::allocator<int> > >::_Mylast
  001ab	8b 00		 mov	 eax, DWORD PTR [eax]
  001ad	50		 push	 eax
  001ae	8b 4d d4	 mov	 ecx, DWORD PTR __Newlast$3[ebp]
  001b1	51		 push	 ecx
  001b2	8b 4d ec	 mov	 ecx, DWORD PTR _this$[ebp]
  001b5	e8 00 00 00 00	 call	 ?_Orphan_range@?$vector@HV?$allocator@H@std@@@std@@ABEXPAH0@Z ; std::vector<int,std::allocator<int> >::_Orphan_range

; 1469 : 			_Destroy(_Newlast, this->_Mylast());

  001ba	8b 4d ec	 mov	 ecx, DWORD PTR _this$[ebp]
  001bd	e8 00 00 00 00	 call	 ?_Mylast@?$_Vector_alloc@U?$_Vec_base_types@HV?$allocator@H@std@@@std@@@std@@QAEAAPAHXZ ; std::_Vector_alloc<std::_Vec_base_types<int,std::allocator<int> > >::_Mylast
  001c2	8b 10		 mov	 edx, DWORD PTR [eax]
  001c4	52		 push	 edx
  001c5	8b 45 d4	 mov	 eax, DWORD PTR __Newlast$3[ebp]
  001c8	50		 push	 eax
  001c9	8b 4d ec	 mov	 ecx, DWORD PTR _this$[ebp]
  001cc	e8 00 00 00 00	 call	 ?_Destroy@?$vector@HV?$allocator@H@std@@@std@@AAEXPAH0@Z ; std::vector<int,std::allocator<int> >::_Destroy

; 1470 : 			this->_Mylast() = _Newlast;

  001d1	8b 4d ec	 mov	 ecx, DWORD PTR _this$[ebp]
  001d4	e8 00 00 00 00	 call	 ?_Mylast@?$_Vector_alloc@U?$_Vec_base_types@HV?$allocator@H@std@@@std@@@std@@QAEAAPAHXZ ; std::_Vector_alloc<std::_Vec_base_types<int,std::allocator<int> > >::_Mylast
  001d9	8b 4d d4	 mov	 ecx, DWORD PTR __Newlast$3[ebp]
  001dc	89 08		 mov	 DWORD PTR [eax], ecx
$LN10@Resize:

; 1471 : 			}
; 1472 : 		}

  001de	8b 4d f4	 mov	 ecx, DWORD PTR __$EHRec$[ebp+4]
  001e1	64 89 0d 00 00
	00 00		 mov	 DWORD PTR fs:0, ecx
  001e8	59		 pop	 ecx
  001e9	5f		 pop	 edi
  001ea	5e		 pop	 esi
  001eb	5b		 pop	 ebx
  001ec	8b e5		 mov	 esp, ebp
  001ee	5d		 pop	 ebp
  001ef	c2 08 00	 ret	 8
_TEXT	ENDS
;	COMDAT text$x
text$x	SEGMENT
__ehhandler$??$_Resize@V<lambda_4f2fd6a84b983411848f0e0333d0ea32>@@@?$vector@HV?$allocator@H@std@@@std@@AAEXIV<lambda_4f2fd6a84b983411848f0e0333d0ea32>@@@Z:
  00000	8b 54 24 08	 mov	 edx, DWORD PTR [esp+8]
  00004	8d 42 0c	 lea	 eax, DWORD PTR [edx+12]
  00007	8b 4a c4	 mov	 ecx, DWORD PTR [edx-60]
  0000a	33 c8		 xor	 ecx, eax
  0000c	e8 00 00 00 00	 call	 @__security_check_cookie@4
  00011	b8 00 00 00 00	 mov	 eax, OFFSET __ehfuncinfo$??$_Resize@V<lambda_4f2fd6a84b983411848f0e0333d0ea32>@@@?$vector@HV?$allocator@H@std@@@std@@AAEXIV<lambda_4f2fd6a84b983411848f0e0333d0ea32>@@@Z
  00016	e9 00 00 00 00	 jmp	 ___CxxFrameHandler3
text$x	ENDS
??$_Resize@V<lambda_4f2fd6a84b983411848f0e0333d0ea32>@@@?$vector@HV?$allocator@H@std@@@std@@AAEXIV<lambda_4f2fd6a84b983411848f0e0333d0ea32>@@@Z ENDP ; std::vector<int,std::allocator<int> >::_Resize<<lambda_4f2fd6a84b983411848f0e0333d0ea32> >
; Function compile flags: /Odtp
; File c:\program files (x86)\microsoft visual studio\2017\community\vc\tools\msvc\14.16.27023\include\vector
;	COMDAT ??0<lambda_4f2fd6a84b983411848f0e0333d0ea32>@@QAE@QAV?$vector@HV?$allocator@H@std@@@std@@@Z
_TEXT	SEGMENT
_this$ = -4						; size = 4
__This$ = 8						; size = 4
??0<lambda_4f2fd6a84b983411848f0e0333d0ea32>@@QAE@QAV?$vector@HV?$allocator@H@std@@@std@@@Z PROC ; <lambda_4f2fd6a84b983411848f0e0333d0ea32>::<lambda_4f2fd6a84b983411848f0e0333d0ea32>, COMDAT
; _this$ = ecx

; 1480 : 			};

  00000	55		 push	 ebp
  00001	8b ec		 mov	 ebp, esp
  00003	51		 push	 ecx
  00004	89 4d fc	 mov	 DWORD PTR _this$[ebp], ecx
  00007	8b 45 fc	 mov	 eax, DWORD PTR _this$[ebp]
  0000a	8b 4d 08	 mov	 ecx, DWORD PTR __This$[ebp]
  0000d	89 08		 mov	 DWORD PTR [eax], ecx
  0000f	8b 45 fc	 mov	 eax, DWORD PTR _this$[ebp]
  00012	8b e5		 mov	 esp, ebp
  00014	5d		 pop	 ebp
  00015	c2 04 00	 ret	 4
??0<lambda_4f2fd6a84b983411848f0e0333d0ea32>@@QAE@QAV?$vector@HV?$allocator@H@std@@@std@@@Z ENDP ; <lambda_4f2fd6a84b983411848f0e0333d0ea32>::<lambda_4f2fd6a84b983411848f0e0333d0ea32>
_TEXT	ENDS
; Function compile flags: /Odtp
; File c:\program files (x86)\microsoft visual studio\2017\community\vc\tools\msvc\14.16.27023\include\vector
;	COMDAT ??R<lambda_4f2fd6a84b983411848f0e0333d0ea32>@@QBEPAHPAHI@Z
_TEXT	SEGMENT
_this$ = -4						; size = 4
__Dest$ = 8						; size = 4
__Count$ = 12						; size = 4
??R<lambda_4f2fd6a84b983411848f0e0333d0ea32>@@QBEPAHPAHI@Z PROC ; <lambda_4f2fd6a84b983411848f0e0333d0ea32>::operator(), COMDAT
; _this$ = ecx

; 1478 : 			{

  00000	55		 push	 ebp
  00001	8b ec		 mov	 ebp, esp
  00003	51		 push	 ecx
  00004	89 4d fc	 mov	 DWORD PTR _this$[ebp], ecx

; 1479 : 			return (_Udefault(_Dest, _Count));

  00007	8b 45 0c	 mov	 eax, DWORD PTR __Count$[ebp]
  0000a	50		 push	 eax
  0000b	8b 4d 08	 mov	 ecx, DWORD PTR __Dest$[ebp]
  0000e	51		 push	 ecx
  0000f	8b 55 fc	 mov	 edx, DWORD PTR _this$[ebp]
  00012	8b 0a		 mov	 ecx, DWORD PTR [edx]
  00014	e8 00 00 00 00	 call	 ?_Udefault@?$vector@HV?$allocator@H@std@@@std@@AAEPAHPAHI@Z ; std::vector<int,std::allocator<int> >::_Udefault

; 1480 : 			};

  00019	8b e5		 mov	 esp, ebp
  0001b	5d		 pop	 ebp
  0001c	c2 08 00	 ret	 8
??R<lambda_4f2fd6a84b983411848f0e0333d0ea32>@@QBEPAHPAHI@Z ENDP ; <lambda_4f2fd6a84b983411848f0e0333d0ea32>::operator()
_TEXT	ENDS
; Function compile flags: /Odtp
; File c:\program files (x86)\microsoft visual studio\2017\community\vc\tools\msvc\14.16.27023\include\xstddef
;	COMDAT ??$addressof@V?$_Vector_val@U?$_Simple_types@H@std@@@std@@@std@@YAPAV?$_Vector_val@U?$_Simple_types@H@std@@@0@AAV10@@Z
_TEXT	SEGMENT
__Val$ = 8						; size = 4
??$addressof@V?$_Vector_val@U?$_Simple_types@H@std@@@std@@@std@@YAPAV?$_Vector_val@U?$_Simple_types@H@std@@@0@AAV10@@Z PROC ; std::addressof<std::_Vector_val<std::_Simple_types<int> > >, COMDAT

; 329  : 	{	// return address of _Val

  00000	55		 push	 ebp
  00001	8b ec		 mov	 ebp, esp

; 330  : 	return (__builtin_addressof(_Val));

  00003	8b 45 08	 mov	 eax, DWORD PTR __Val$[ebp]

; 331  : 	}

  00006	5d		 pop	 ebp
  00007	c3		 ret	 0
??$addressof@V?$_Vector_val@U?$_Simple_types@H@std@@@std@@@std@@YAPAV?$_Vector_val@U?$_Simple_types@H@std@@@0@AAV10@@Z ENDP ; std::addressof<std::_Vector_val<std::_Simple_types<int> > >
_TEXT	ENDS
; Function compile flags: /Odtp
; File c:\dev\tetris\src\color.hpp
;	COMDAT ??0Color@core@@QAE@ABV01@@Z
_TEXT	SEGMENT
_this$ = -4						; size = 4
_t_color$ = 8						; size = 4
??0Color@core@@QAE@ABV01@@Z PROC			; core::Color::Color, COMDAT
; _this$ = ecx

; 19   :         Color(const Color& t_color)

  00000	55		 push	 ebp
  00001	8b ec		 mov	 ebp, esp
  00003	51		 push	 ecx
  00004	89 4d fc	 mov	 DWORD PTR _this$[ebp], ecx

; 20   :         {
; 21   :             *this = t_color;

  00007	8b 45 08	 mov	 eax, DWORD PTR _t_color$[ebp]
  0000a	8b 08		 mov	 ecx, DWORD PTR [eax]
  0000c	8b 55 fc	 mov	 edx, DWORD PTR _this$[ebp]
  0000f	89 0a		 mov	 DWORD PTR [edx], ecx

; 22   :         }

  00011	8b 45 fc	 mov	 eax, DWORD PTR _this$[ebp]
  00014	8b e5		 mov	 esp, ebp
  00016	5d		 pop	 ebp
  00017	c2 04 00	 ret	 4
??0Color@core@@QAE@ABV01@@Z ENDP			; core::Color::Color
_TEXT	ENDS
; Function compile flags: /Odtp
; File c:\dev\tetris\src\board.hpp
;	COMDAT ?GetCellValue@Board@gameplay@core@@QBEHHH@Z
_TEXT	SEGMENT
_this$ = -4						; size = 4
_t_row$ = 8						; size = 4
_t_col$ = 12						; size = 4
?GetCellValue@Board@gameplay@core@@QBEHHH@Z PROC	; core::gameplay::Board::GetCellValue, COMDAT
; _this$ = ecx

; 53   :             { return m_boardData.GetValue(t_row, t_col); }

  00000	55		 push	 ebp
  00001	8b ec		 mov	 ebp, esp
  00003	51		 push	 ecx
  00004	89 4d fc	 mov	 DWORD PTR _this$[ebp], ecx
  00007	8b 45 0c	 mov	 eax, DWORD PTR _t_col$[ebp]
  0000a	50		 push	 eax
  0000b	8b 4d 08	 mov	 ecx, DWORD PTR _t_row$[ebp]
  0000e	51		 push	 ecx
  0000f	8b 4d fc	 mov	 ecx, DWORD PTR _this$[ebp]
  00012	83 c1 14	 add	 ecx, 20			; 00000014H
  00015	e8 00 00 00 00	 call	 ?GetValue@Matrix@math@core@@QBEHHH@Z ; core::math::Matrix::GetValue
  0001a	8b e5		 mov	 esp, ebp
  0001c	5d		 pop	 ebp
  0001d	c2 08 00	 ret	 8
?GetCellValue@Board@gameplay@core@@QBEHHH@Z ENDP	; core::gameplay::Board::GetCellValue
_TEXT	ENDS
; Function compile flags: /Odtp
; File c:\dev\tetris\src\board.cpp
_TEXT	SEGMENT
_destRow$1 = -12					; size = 4
_this$ = -8						; size = 4
_srcRow$ = -4						; size = 4
_t_stats$ = 8						; size = 4
?ClearLines@Board@gameplay@core@@QAEXPAVStats@23@@Z PROC ; core::gameplay::Board::ClearLines
; _this$ = ecx

; 101  : {

  00000	55		 push	 ebp
  00001	8b ec		 mov	 ebp, esp
  00003	83 ec 0c	 sub	 esp, 12			; 0000000cH
  00006	89 4d f8	 mov	 DWORD PTR _this$[ebp], ecx

; 102  :     i32 srcRow = m_boardRows - 1;

  00009	8b 45 f8	 mov	 eax, DWORD PTR _this$[ebp]
  0000c	8b 48 04	 mov	 ecx, DWORD PTR [eax+4]
  0000f	83 e9 01	 sub	 ecx, 1
  00012	89 4d fc	 mov	 DWORD PTR _srcRow$[ebp], ecx

; 103  :     for (i32 destRow = m_boardRows - 1; destRow >= 0; --destRow)

  00015	8b 55 f8	 mov	 edx, DWORD PTR _this$[ebp]
  00018	8b 42 04	 mov	 eax, DWORD PTR [edx+4]
  0001b	83 e8 01	 sub	 eax, 1
  0001e	89 45 f4	 mov	 DWORD PTR _destRow$1[ebp], eax
  00021	eb 09		 jmp	 SHORT $LN4@ClearLines
$LN2@ClearLines:
  00023	8b 4d f4	 mov	 ecx, DWORD PTR _destRow$1[ebp]
  00026	83 e9 01	 sub	 ecx, 1
  00029	89 4d f4	 mov	 DWORD PTR _destRow$1[ebp], ecx
$LN4@ClearLines:
  0002c	83 7d f4 00	 cmp	 DWORD PTR _destRow$1[ebp], 0
  00030	0f 8c 84 00 00
	00		 jl	 $LN1@ClearLines
$LN5@ClearLines:

; 104  :     {
; 105  :         while (srcRow >= 0 && t_stats->GetLines()[srcRow])

  00036	83 7d fc 00	 cmp	 DWORD PTR _srcRow$[ebp], 0
  0003a	7c 1e		 jl	 SHORT $LN6@ClearLines
  0003c	8b 4d 08	 mov	 ecx, DWORD PTR _t_stats$[ebp]
  0003f	e8 00 00 00 00	 call	 ?GetLines@Stats@gameplay@core@@QAEPA_NXZ ; core::gameplay::Stats::GetLines
  00044	8b 55 fc	 mov	 edx, DWORD PTR _srcRow$[ebp]
  00047	0f b6 04 10	 movzx	 eax, BYTE PTR [eax+edx]
  0004b	85 c0		 test	 eax, eax
  0004d	74 0b		 je	 SHORT $LN6@ClearLines

; 106  :         {
; 107  :             --srcRow;

  0004f	8b 4d fc	 mov	 ecx, DWORD PTR _srcRow$[ebp]
  00052	83 e9 01	 sub	 ecx, 1
  00055	89 4d fc	 mov	 DWORD PTR _srcRow$[ebp], ecx

; 108  :         }

  00058	eb dc		 jmp	 SHORT $LN5@ClearLines
$LN6@ClearLines:

; 109  :         
; 110  :         if (srcRow < 0)

  0005a	83 7d fc 00	 cmp	 DWORD PTR _srcRow$[ebp], 0
  0005e	7d 1c		 jge	 SHORT $LN7@ClearLines

; 111  :         {
; 112  :             m_boardData.SetElements(0, destRow * m_boardCols, 0);

  00060	6a 00		 push	 0
  00062	8b 55 f8	 mov	 edx, DWORD PTR _this$[ebp]
  00065	8b 45 f4	 mov	 eax, DWORD PTR _destRow$1[ebp]
  00068	0f af 42 08	 imul	 eax, DWORD PTR [edx+8]
  0006c	50		 push	 eax
  0006d	6a 00		 push	 0
  0006f	8b 4d f8	 mov	 ecx, DWORD PTR _this$[ebp]
  00072	83 c1 14	 add	 ecx, 20			; 00000014H
  00075	e8 00 00 00 00	 call	 ?SetElements@Matrix@math@core@@QAEXHHH@Z ; core::math::Matrix::SetElements

; 113  :         }
; 114  :         else

  0007a	eb 39		 jmp	 SHORT $LN8@ClearLines
$LN7@ClearLines:

; 115  :         {
; 116  :             if (srcRow != destRow)

  0007c	8b 4d fc	 mov	 ecx, DWORD PTR _srcRow$[ebp]
  0007f	3b 4d f4	 cmp	 ecx, DWORD PTR _destRow$1[ebp]
  00082	74 28		 je	 SHORT $LN9@ClearLines

; 117  :             {
; 118  :                 m_boardData.CopyElements(destRow * m_boardCols, srcRow * m_boardCols, m_boardCols);

  00084	8b 55 f8	 mov	 edx, DWORD PTR _this$[ebp]
  00087	8b 42 08	 mov	 eax, DWORD PTR [edx+8]
  0008a	50		 push	 eax
  0008b	8b 4d f8	 mov	 ecx, DWORD PTR _this$[ebp]
  0008e	8b 55 fc	 mov	 edx, DWORD PTR _srcRow$[ebp]
  00091	0f af 51 08	 imul	 edx, DWORD PTR [ecx+8]
  00095	52		 push	 edx
  00096	8b 45 f8	 mov	 eax, DWORD PTR _this$[ebp]
  00099	8b 4d f4	 mov	 ecx, DWORD PTR _destRow$1[ebp]
  0009c	0f af 48 08	 imul	 ecx, DWORD PTR [eax+8]
  000a0	51		 push	 ecx
  000a1	8b 4d f8	 mov	 ecx, DWORD PTR _this$[ebp]
  000a4	83 c1 14	 add	 ecx, 20			; 00000014H
  000a7	e8 00 00 00 00	 call	 ?CopyElements@Matrix@math@core@@QAEXHHH@Z ; core::math::Matrix::CopyElements
$LN9@ClearLines:

; 119  :             }
; 120  :             
; 121  :             --srcRow;

  000ac	8b 55 fc	 mov	 edx, DWORD PTR _srcRow$[ebp]
  000af	83 ea 01	 sub	 edx, 1
  000b2	89 55 fc	 mov	 DWORD PTR _srcRow$[ebp], edx
$LN8@ClearLines:

; 122  :         }
; 123  :     }

  000b5	e9 69 ff ff ff	 jmp	 $LN2@ClearLines
$LN1@ClearLines:

; 124  : }

  000ba	8b e5		 mov	 esp, ebp
  000bc	5d		 pop	 ebp
  000bd	c2 04 00	 ret	 4
?ClearLines@Board@gameplay@core@@QAEXPAVStats@23@@Z ENDP ; core::gameplay::Board::ClearLines
_TEXT	ENDS
; Function compile flags: /Odtp
; File c:\dev\tetris\src\board.cpp
_TEXT	SEGMENT
_this$ = -16						; size = 4
_count$ = -12						; size = 4
_row$1 = -8						; size = 4
_isFilled$2 = -1					; size = 1
_t_stats$ = 8						; size = 4
?FindLines@Board@gameplay@core@@QAEXPAVStats@23@@Z PROC	; core::gameplay::Board::FindLines
; _this$ = ecx

; 85   : {

  00000	55		 push	 ebp
  00001	8b ec		 mov	 ebp, esp
  00003	83 ec 10	 sub	 esp, 16			; 00000010H
  00006	89 4d f0	 mov	 DWORD PTR _this$[ebp], ecx

; 86   :     i32 count = 0;

  00009	c7 45 f4 00 00
	00 00		 mov	 DWORD PTR _count$[ebp], 0

; 87   :     for (i32 row = 0; row < m_boardRows; ++row)

  00010	c7 45 f8 00 00
	00 00		 mov	 DWORD PTR _row$1[ebp], 0
  00017	eb 09		 jmp	 SHORT $LN4@FindLines
$LN2@FindLines:
  00019	8b 45 f8	 mov	 eax, DWORD PTR _row$1[ebp]
  0001c	83 c0 01	 add	 eax, 1
  0001f	89 45 f8	 mov	 DWORD PTR _row$1[ebp], eax
$LN4@FindLines:
  00022	8b 4d f0	 mov	 ecx, DWORD PTR _this$[ebp]
  00025	8b 55 f8	 mov	 edx, DWORD PTR _row$1[ebp]
  00028	3b 51 04	 cmp	 edx, DWORD PTR [ecx+4]
  0002b	7d 33		 jge	 SHORT $LN3@FindLines

; 88   :     {
; 89   :         bool isFilled = IsRowFilled(row);

  0002d	8b 45 f8	 mov	 eax, DWORD PTR _row$1[ebp]
  00030	50		 push	 eax
  00031	8b 4d f0	 mov	 ecx, DWORD PTR _this$[ebp]
  00034	e8 00 00 00 00	 call	 ?IsRowFilled@Board@gameplay@core@@QAE_NH@Z ; core::gameplay::Board::IsRowFilled
  00039	88 45 ff	 mov	 BYTE PTR _isFilled$2[ebp], al

; 90   :         t_stats->GetLines()[row] = isFilled;

  0003c	8b 4d 08	 mov	 ecx, DWORD PTR _t_stats$[ebp]
  0003f	e8 00 00 00 00	 call	 ?GetLines@Stats@gameplay@core@@QAEPA_NXZ ; core::gameplay::Stats::GetLines
  00044	8b 4d f8	 mov	 ecx, DWORD PTR _row$1[ebp]
  00047	8a 55 ff	 mov	 dl, BYTE PTR _isFilled$2[ebp]
  0004a	88 14 08	 mov	 BYTE PTR [eax+ecx], dl

; 91   :         
; 92   :         if (isFilled)

  0004d	0f b6 45 ff	 movzx	 eax, BYTE PTR _isFilled$2[ebp]
  00051	85 c0		 test	 eax, eax
  00053	74 09		 je	 SHORT $LN5@FindLines

; 93   :         {
; 94   :             ++count;

  00055	8b 4d f4	 mov	 ecx, DWORD PTR _count$[ebp]
  00058	83 c1 01	 add	 ecx, 1
  0005b	89 4d f4	 mov	 DWORD PTR _count$[ebp], ecx
$LN5@FindLines:

; 95   :         }
; 96   :     }

  0005e	eb b9		 jmp	 SHORT $LN2@FindLines
$LN3@FindLines:

; 97   :     t_stats->SetPendingLineCount(count);

  00060	8b 55 f4	 mov	 edx, DWORD PTR _count$[ebp]
  00063	52		 push	 edx
  00064	8b 4d 08	 mov	 ecx, DWORD PTR _t_stats$[ebp]
  00067	e8 00 00 00 00	 call	 ?SetPendingLineCount@Stats@gameplay@core@@QAEXH@Z ; core::gameplay::Stats::SetPendingLineCount

; 98   : }

  0006c	8b e5		 mov	 esp, ebp
  0006e	5d		 pop	 ebp
  0006f	c2 04 00	 ret	 4
?FindLines@Board@gameplay@core@@QAEXPAVStats@23@@Z ENDP	; core::gameplay::Board::FindLines
_TEXT	ENDS
; Function compile flags: /Odtp
; File c:\dev\tetris\src\board.cpp
_TEXT	SEGMENT
_this$ = -8						; size = 4
_col$1 = -4						; size = 4
_t_row$ = 8						; size = 4
?IsRowEmpty@Board@gameplay@core@@QAE_NH@Z PROC		; core::gameplay::Board::IsRowEmpty
; _this$ = ecx

; 72   : {

  00000	55		 push	 ebp
  00001	8b ec		 mov	 ebp, esp
  00003	83 ec 08	 sub	 esp, 8
  00006	89 4d f8	 mov	 DWORD PTR _this$[ebp], ecx

; 73   :     for (i32 col = 0; col < m_boardCols; ++col)

  00009	c7 45 fc 00 00
	00 00		 mov	 DWORD PTR _col$1[ebp], 0
  00010	eb 09		 jmp	 SHORT $LN4@IsRowEmpty
$LN2@IsRowEmpty:
  00012	8b 45 fc	 mov	 eax, DWORD PTR _col$1[ebp]
  00015	83 c0 01	 add	 eax, 1
  00018	89 45 fc	 mov	 DWORD PTR _col$1[ebp], eax
$LN4@IsRowEmpty:
  0001b	8b 4d f8	 mov	 ecx, DWORD PTR _this$[ebp]
  0001e	8b 55 fc	 mov	 edx, DWORD PTR _col$1[ebp]
  00021	3b 51 08	 cmp	 edx, DWORD PTR [ecx+8]
  00024	7d 1a		 jge	 SHORT $LN3@IsRowEmpty

; 74   :     {
; 75   :         if (GetCellValue(t_row, col))

  00026	8b 45 fc	 mov	 eax, DWORD PTR _col$1[ebp]
  00029	50		 push	 eax
  0002a	8b 4d 08	 mov	 ecx, DWORD PTR _t_row$[ebp]
  0002d	51		 push	 ecx
  0002e	8b 4d f8	 mov	 ecx, DWORD PTR _this$[ebp]
  00031	e8 00 00 00 00	 call	 ?GetCellValue@Board@gameplay@core@@QBEHHH@Z ; core::gameplay::Board::GetCellValue
  00036	85 c0		 test	 eax, eax
  00038	74 04		 je	 SHORT $LN5@IsRowEmpty

; 76   :         {
; 77   :             return false;

  0003a	32 c0		 xor	 al, al
  0003c	eb 04		 jmp	 SHORT $LN1@IsRowEmpty
$LN5@IsRowEmpty:

; 78   :         }
; 79   :     }

  0003e	eb d2		 jmp	 SHORT $LN2@IsRowEmpty
$LN3@IsRowEmpty:

; 80   :     
; 81   :     return true;

  00040	b0 01		 mov	 al, 1
$LN1@IsRowEmpty:

; 82   : }

  00042	8b e5		 mov	 esp, ebp
  00044	5d		 pop	 ebp
  00045	c2 04 00	 ret	 4
?IsRowEmpty@Board@gameplay@core@@QAE_NH@Z ENDP		; core::gameplay::Board::IsRowEmpty
_TEXT	ENDS
; Function compile flags: /Odtp
; File c:\dev\tetris\src\board.cpp
_TEXT	SEGMENT
_this$ = -8						; size = 4
_col$1 = -4						; size = 4
_t_row$ = 8						; size = 4
?IsRowFilled@Board@gameplay@core@@QAE_NH@Z PROC		; core::gameplay::Board::IsRowFilled
; _this$ = ecx

; 59   : {

  00000	55		 push	 ebp
  00001	8b ec		 mov	 ebp, esp
  00003	83 ec 08	 sub	 esp, 8
  00006	89 4d f8	 mov	 DWORD PTR _this$[ebp], ecx

; 60   :     for (i32 col = 0; col < m_boardCols; ++col)

  00009	c7 45 fc 00 00
	00 00		 mov	 DWORD PTR _col$1[ebp], 0
  00010	eb 09		 jmp	 SHORT $LN4@IsRowFille
$LN2@IsRowFille:
  00012	8b 45 fc	 mov	 eax, DWORD PTR _col$1[ebp]
  00015	83 c0 01	 add	 eax, 1
  00018	89 45 fc	 mov	 DWORD PTR _col$1[ebp], eax
$LN4@IsRowFille:
  0001b	8b 4d f8	 mov	 ecx, DWORD PTR _this$[ebp]
  0001e	8b 55 fc	 mov	 edx, DWORD PTR _col$1[ebp]
  00021	3b 51 08	 cmp	 edx, DWORD PTR [ecx+8]
  00024	7d 1a		 jge	 SHORT $LN3@IsRowFille

; 61   :     {
; 62   :         if (!GetCellValue(t_row, col))

  00026	8b 45 fc	 mov	 eax, DWORD PTR _col$1[ebp]
  00029	50		 push	 eax
  0002a	8b 4d 08	 mov	 ecx, DWORD PTR _t_row$[ebp]
  0002d	51		 push	 ecx
  0002e	8b 4d f8	 mov	 ecx, DWORD PTR _this$[ebp]
  00031	e8 00 00 00 00	 call	 ?GetCellValue@Board@gameplay@core@@QBEHHH@Z ; core::gameplay::Board::GetCellValue
  00036	85 c0		 test	 eax, eax
  00038	75 04		 jne	 SHORT $LN5@IsRowFille

; 63   :         {
; 64   :             return false;

  0003a	32 c0		 xor	 al, al
  0003c	eb 04		 jmp	 SHORT $LN1@IsRowFille
$LN5@IsRowFille:

; 65   :         }
; 66   :     }

  0003e	eb d2		 jmp	 SHORT $LN2@IsRowFille
$LN3@IsRowFille:

; 67   :     
; 68   :     return true;

  00040	b0 01		 mov	 al, 1
$LN1@IsRowFille:

; 69   : }

  00042	8b e5		 mov	 esp, ebp
  00044	5d		 pop	 ebp
  00045	c2 04 00	 ret	 4
?IsRowFilled@Board@gameplay@core@@QAE_NH@Z ENDP		; core::gameplay::Board::IsRowFilled
_TEXT	ENDS
; Function compile flags: /Odtp
; File c:\dev\tetris\src\board.cpp
_TEXT	SEGMENT
_value$1 = -16						; size = 4
_row$2 = -12						; size = 4
_col$3 = -8						; size = 4
_this$ = -4						; size = 4
_t_xOffset$ = 8						; size = 4
_t_yOffset$ = 12					; size = 4
?DrawBoard@Board@gameplay@core@@QAEXHH@Z PROC		; core::gameplay::Board::DrawBoard
; _this$ = ecx

; 42   : {

  00000	55		 push	 ebp
  00001	8b ec		 mov	 ebp, esp
  00003	83 ec 10	 sub	 esp, 16			; 00000010H
  00006	89 4d fc	 mov	 DWORD PTR _this$[ebp], ecx

; 43   :     Graphics::Instance()->DrawFillRect(t_xOffset, t_yOffset, m_boardCols * m_boardGridSize, m_boardRows * m_boardGridSize, Palette::s_base[0]);

  00009	51		 push	 ecx
  0000a	8b cc		 mov	 ecx, esp
  0000c	b8 04 00 00 00	 mov	 eax, 4
  00011	6b d0 00	 imul	 edx, eax, 0
  00014	81 c2 00 00 00
	00		 add	 edx, OFFSET ?s_base@Palette@core@@2QBVColor@2@B ; core::Palette::s_base
  0001a	52		 push	 edx
  0001b	e8 00 00 00 00	 call	 ??0Color@core@@QAE@ABV01@@Z ; core::Color::Color
  00020	8b 45 fc	 mov	 eax, DWORD PTR _this$[ebp]
  00023	8b 4d fc	 mov	 ecx, DWORD PTR _this$[ebp]
  00026	8b 50 04	 mov	 edx, DWORD PTR [eax+4]
  00029	0f af 51 10	 imul	 edx, DWORD PTR [ecx+16]
  0002d	52		 push	 edx
  0002e	8b 45 fc	 mov	 eax, DWORD PTR _this$[ebp]
  00031	8b 4d fc	 mov	 ecx, DWORD PTR _this$[ebp]
  00034	8b 50 08	 mov	 edx, DWORD PTR [eax+8]
  00037	0f af 51 10	 imul	 edx, DWORD PTR [ecx+16]
  0003b	52		 push	 edx
  0003c	8b 45 0c	 mov	 eax, DWORD PTR _t_yOffset$[ebp]
  0003f	50		 push	 eax
  00040	8b 4d 08	 mov	 ecx, DWORD PTR _t_xOffset$[ebp]
  00043	51		 push	 ecx
  00044	e8 00 00 00 00	 call	 ?Instance@Graphics@graphics@core@@SAPAV123@XZ ; core::graphics::Graphics::Instance
  00049	8b c8		 mov	 ecx, eax
  0004b	e8 00 00 00 00	 call	 ?DrawFillRect@Graphics@graphics@core@@QAEXHHHHVColor@3@@Z ; core::graphics::Graphics::DrawFillRect

; 44   :     
; 45   :     for (i32 row = 0; row < m_boardRows; ++row)

  00050	c7 45 f4 00 00
	00 00		 mov	 DWORD PTR _row$2[ebp], 0
  00057	eb 09		 jmp	 SHORT $LN4@DrawBoard
$LN2@DrawBoard:
  00059	8b 55 f4	 mov	 edx, DWORD PTR _row$2[ebp]
  0005c	83 c2 01	 add	 edx, 1
  0005f	89 55 f4	 mov	 DWORD PTR _row$2[ebp], edx
$LN4@DrawBoard:
  00062	8b 45 fc	 mov	 eax, DWORD PTR _this$[ebp]
  00065	8b 4d f4	 mov	 ecx, DWORD PTR _row$2[ebp]
  00068	3b 48 04	 cmp	 ecx, DWORD PTR [eax+4]
  0006b	7d 58		 jge	 SHORT $LN1@DrawBoard

; 46   :     {
; 47   :         for (i32 col = 0; col < m_boardCols; ++col)

  0006d	c7 45 f8 00 00
	00 00		 mov	 DWORD PTR _col$3[ebp], 0
  00074	eb 09		 jmp	 SHORT $LN7@DrawBoard
$LN5@DrawBoard:
  00076	8b 55 f8	 mov	 edx, DWORD PTR _col$3[ebp]
  00079	83 c2 01	 add	 edx, 1
  0007c	89 55 f8	 mov	 DWORD PTR _col$3[ebp], edx
$LN7@DrawBoard:
  0007f	8b 45 fc	 mov	 eax, DWORD PTR _this$[ebp]
  00082	8b 4d f8	 mov	 ecx, DWORD PTR _col$3[ebp]
  00085	3b 48 08	 cmp	 ecx, DWORD PTR [eax+8]
  00088	7d 39		 jge	 SHORT $LN6@DrawBoard

; 48   :         {
; 49   :             i32 value = GetCellValue(row, col);

  0008a	8b 55 f8	 mov	 edx, DWORD PTR _col$3[ebp]
  0008d	52		 push	 edx
  0008e	8b 45 f4	 mov	 eax, DWORD PTR _row$2[ebp]
  00091	50		 push	 eax
  00092	8b 4d fc	 mov	 ecx, DWORD PTR _this$[ebp]
  00095	e8 00 00 00 00	 call	 ?GetCellValue@Board@gameplay@core@@QBEHHH@Z ; core::gameplay::Board::GetCellValue
  0009a	89 45 f0	 mov	 DWORD PTR _value$1[ebp], eax

; 50   :             if (value)

  0009d	83 7d f0 00	 cmp	 DWORD PTR _value$1[ebp], 0
  000a1	74 1e		 je	 SHORT $LN8@DrawBoard

; 51   :             {
; 52   :                 DrawCell(row, col, value, t_xOffset, t_yOffset);

  000a3	6a 00		 push	 0
  000a5	8b 4d 0c	 mov	 ecx, DWORD PTR _t_yOffset$[ebp]
  000a8	51		 push	 ecx
  000a9	8b 55 08	 mov	 edx, DWORD PTR _t_xOffset$[ebp]
  000ac	52		 push	 edx
  000ad	8b 45 f0	 mov	 eax, DWORD PTR _value$1[ebp]
  000b0	50		 push	 eax
  000b1	8b 4d f8	 mov	 ecx, DWORD PTR _col$3[ebp]
  000b4	51		 push	 ecx
  000b5	8b 55 f4	 mov	 edx, DWORD PTR _row$2[ebp]
  000b8	52		 push	 edx
  000b9	8b 4d fc	 mov	 ecx, DWORD PTR _this$[ebp]
  000bc	e8 00 00 00 00	 call	 ?DrawCell@Board@gameplay@core@@QAEXHHHHH_N@Z ; core::gameplay::Board::DrawCell
$LN8@DrawBoard:

; 53   :             }
; 54   :         }

  000c1	eb b3		 jmp	 SHORT $LN5@DrawBoard
$LN6@DrawBoard:

; 55   :     }

  000c3	eb 94		 jmp	 SHORT $LN2@DrawBoard
$LN1@DrawBoard:

; 56   : }

  000c5	8b e5		 mov	 esp, ebp
  000c7	5d		 pop	 ebp
  000c8	c2 08 00	 ret	 8
?DrawBoard@Board@gameplay@core@@QAEXHH@Z ENDP		; core::gameplay::Board::DrawBoard
_TEXT	ENDS
; Function compile flags: /Odtp
; File c:\dev\tetris\src\board.cpp
_TEXT	SEGMENT
_lightColor$ = -28					; size = 4
_darkColor$ = -24					; size = 4
_baseColor$ = -20					; size = 4
_x$ = -16						; size = 4
_y$ = -12						; size = 4
_edgeSize$ = -8						; size = 4
_this$ = -4						; size = 4
_t_row$ = 8						; size = 4
_t_col$ = 12						; size = 4
_t_value$ = 16						; size = 4
_t_xOffset$ = 20					; size = 4
_t_yOffset$ = 24					; size = 4
_t_outline$ = 28					; size = 1
?DrawCell@Board@gameplay@core@@QAEXHHHHH_N@Z PROC	; core::gameplay::Board::DrawCell
; _this$ = ecx

; 19   : {

  00000	55		 push	 ebp
  00001	8b ec		 mov	 ebp, esp
  00003	83 ec 1c	 sub	 esp, 28			; 0000001cH
  00006	89 4d fc	 mov	 DWORD PTR _this$[ebp], ecx

; 20   :     Color baseColor = Palette::s_base[t_value];

  00009	8b 45 10	 mov	 eax, DWORD PTR _t_value$[ebp]
  0000c	8d 0c 85 00 00
	00 00		 lea	 ecx, DWORD PTR ?s_base@Palette@core@@2QBVColor@2@B[eax*4]
  00013	51		 push	 ecx
  00014	8d 4d ec	 lea	 ecx, DWORD PTR _baseColor$[ebp]
  00017	e8 00 00 00 00	 call	 ??0Color@core@@QAE@ABV01@@Z ; core::Color::Color

; 21   :     Color lightColor = Palette::s_light[t_value];

  0001c	8b 55 10	 mov	 edx, DWORD PTR _t_value$[ebp]
  0001f	8d 04 95 00 00
	00 00		 lea	 eax, DWORD PTR ?s_light@Palette@core@@2QBVColor@2@B[edx*4]
  00026	50		 push	 eax
  00027	8d 4d e4	 lea	 ecx, DWORD PTR _lightColor$[ebp]
  0002a	e8 00 00 00 00	 call	 ??0Color@core@@QAE@ABV01@@Z ; core::Color::Color

; 22   :     Color darkColor = Palette::s_dark[t_value];

  0002f	8b 4d 10	 mov	 ecx, DWORD PTR _t_value$[ebp]
  00032	8d 14 8d 00 00
	00 00		 lea	 edx, DWORD PTR ?s_dark@Palette@core@@2QBVColor@2@B[ecx*4]
  00039	52		 push	 edx
  0003a	8d 4d e8	 lea	 ecx, DWORD PTR _darkColor$[ebp]
  0003d	e8 00 00 00 00	 call	 ??0Color@core@@QAE@ABV01@@Z ; core::Color::Color

; 23   :     
; 24   :     i32 edgeSize = m_boardGridSize / 8;

  00042	8b 45 fc	 mov	 eax, DWORD PTR _this$[ebp]
  00045	8b 40 10	 mov	 eax, DWORD PTR [eax+16]
  00048	99		 cdq
  00049	83 e2 07	 and	 edx, 7
  0004c	03 c2		 add	 eax, edx
  0004e	c1 f8 03	 sar	 eax, 3
  00051	89 45 f8	 mov	 DWORD PTR _edgeSize$[ebp], eax

; 25   :     
; 26   :     i32 x = t_col * m_boardGridSize + t_xOffset;

  00054	8b 4d fc	 mov	 ecx, DWORD PTR _this$[ebp]
  00057	8b 55 0c	 mov	 edx, DWORD PTR _t_col$[ebp]
  0005a	0f af 51 10	 imul	 edx, DWORD PTR [ecx+16]
  0005e	03 55 14	 add	 edx, DWORD PTR _t_xOffset$[ebp]
  00061	89 55 f0	 mov	 DWORD PTR _x$[ebp], edx

; 27   :     i32 y = t_row * m_boardGridSize + t_yOffset;

  00064	8b 45 fc	 mov	 eax, DWORD PTR _this$[ebp]
  00067	8b 4d 08	 mov	 ecx, DWORD PTR _t_row$[ebp]
  0006a	0f af 48 10	 imul	 ecx, DWORD PTR [eax+16]
  0006e	03 4d 18	 add	 ecx, DWORD PTR _t_yOffset$[ebp]
  00071	89 4d f4	 mov	 DWORD PTR _y$[ebp], ecx

; 28   :     
; 29   :     if (t_outline)

  00074	0f b6 55 1c	 movzx	 edx, BYTE PTR _t_outline$[ebp]
  00078	85 d2		 test	 edx, edx
  0007a	74 33		 je	 SHORT $LN2@DrawCell

; 30   :     {
; 31   :         Graphics::Instance()->DrawRect(x, y, m_boardGridSize, m_boardGridSize, baseColor);

  0007c	51		 push	 ecx
  0007d	8b cc		 mov	 ecx, esp
  0007f	8d 45 ec	 lea	 eax, DWORD PTR _baseColor$[ebp]
  00082	50		 push	 eax
  00083	e8 00 00 00 00	 call	 ??0Color@core@@QAE@ABV01@@Z ; core::Color::Color
  00088	8b 4d fc	 mov	 ecx, DWORD PTR _this$[ebp]
  0008b	8b 51 10	 mov	 edx, DWORD PTR [ecx+16]
  0008e	52		 push	 edx
  0008f	8b 45 fc	 mov	 eax, DWORD PTR _this$[ebp]
  00092	8b 48 10	 mov	 ecx, DWORD PTR [eax+16]
  00095	51		 push	 ecx
  00096	8b 55 f4	 mov	 edx, DWORD PTR _y$[ebp]
  00099	52		 push	 edx
  0009a	8b 45 f0	 mov	 eax, DWORD PTR _x$[ebp]
  0009d	50		 push	 eax
  0009e	e8 00 00 00 00	 call	 ?Instance@Graphics@graphics@core@@SAPAV123@XZ ; core::graphics::Graphics::Instance
  000a3	8b c8		 mov	 ecx, eax
  000a5	e8 00 00 00 00	 call	 ?DrawRect@Graphics@graphics@core@@QAEXHHHHVColor@3@@Z ; core::graphics::Graphics::DrawRect

; 32   :     }
; 33   :     else

  000aa	e9 a7 00 00 00	 jmp	 $LN1@DrawCell
$LN2@DrawCell:

; 34   :     {
; 35   :         Graphics::Instance()->DrawFillRect(x, y, m_boardGridSize, m_boardGridSize, darkColor);

  000af	51		 push	 ecx
  000b0	8b cc		 mov	 ecx, esp
  000b2	8d 55 e8	 lea	 edx, DWORD PTR _darkColor$[ebp]
  000b5	52		 push	 edx
  000b6	e8 00 00 00 00	 call	 ??0Color@core@@QAE@ABV01@@Z ; core::Color::Color
  000bb	8b 45 fc	 mov	 eax, DWORD PTR _this$[ebp]
  000be	8b 48 10	 mov	 ecx, DWORD PTR [eax+16]
  000c1	51		 push	 ecx
  000c2	8b 55 fc	 mov	 edx, DWORD PTR _this$[ebp]
  000c5	8b 42 10	 mov	 eax, DWORD PTR [edx+16]
  000c8	50		 push	 eax
  000c9	8b 4d f4	 mov	 ecx, DWORD PTR _y$[ebp]
  000cc	51		 push	 ecx
  000cd	8b 55 f0	 mov	 edx, DWORD PTR _x$[ebp]
  000d0	52		 push	 edx
  000d1	e8 00 00 00 00	 call	 ?Instance@Graphics@graphics@core@@SAPAV123@XZ ; core::graphics::Graphics::Instance
  000d6	8b c8		 mov	 ecx, eax
  000d8	e8 00 00 00 00	 call	 ?DrawFillRect@Graphics@graphics@core@@QAEXHHHHVColor@3@@Z ; core::graphics::Graphics::DrawFillRect

; 36   :         Graphics::Instance()->DrawFillRect(x + edgeSize, y, m_boardGridSize - edgeSize, m_boardGridSize - edgeSize, lightColor);

  000dd	51		 push	 ecx
  000de	8b cc		 mov	 ecx, esp
  000e0	8d 45 e4	 lea	 eax, DWORD PTR _lightColor$[ebp]
  000e3	50		 push	 eax
  000e4	e8 00 00 00 00	 call	 ??0Color@core@@QAE@ABV01@@Z ; core::Color::Color
  000e9	8b 4d fc	 mov	 ecx, DWORD PTR _this$[ebp]
  000ec	8b 51 10	 mov	 edx, DWORD PTR [ecx+16]
  000ef	2b 55 f8	 sub	 edx, DWORD PTR _edgeSize$[ebp]
  000f2	52		 push	 edx
  000f3	8b 45 fc	 mov	 eax, DWORD PTR _this$[ebp]
  000f6	8b 48 10	 mov	 ecx, DWORD PTR [eax+16]
  000f9	2b 4d f8	 sub	 ecx, DWORD PTR _edgeSize$[ebp]
  000fc	51		 push	 ecx
  000fd	8b 55 f4	 mov	 edx, DWORD PTR _y$[ebp]
  00100	52		 push	 edx
  00101	8b 45 f0	 mov	 eax, DWORD PTR _x$[ebp]
  00104	03 45 f8	 add	 eax, DWORD PTR _edgeSize$[ebp]
  00107	50		 push	 eax
  00108	e8 00 00 00 00	 call	 ?Instance@Graphics@graphics@core@@SAPAV123@XZ ; core::graphics::Graphics::Instance
  0010d	8b c8		 mov	 ecx, eax
  0010f	e8 00 00 00 00	 call	 ?DrawFillRect@Graphics@graphics@core@@QAEXHHHHVColor@3@@Z ; core::graphics::Graphics::DrawFillRect

; 37   :         Graphics::Instance()->DrawFillRect(x + edgeSize, y + edgeSize, m_boardGridSize - edgeSize * 2, m_boardGridSize - edgeSize * 2, baseColor);

  00114	51		 push	 ecx
  00115	8b cc		 mov	 ecx, esp
  00117	8d 55 ec	 lea	 edx, DWORD PTR _baseColor$[ebp]
  0011a	52		 push	 edx
  0011b	e8 00 00 00 00	 call	 ??0Color@core@@QAE@ABV01@@Z ; core::Color::Color
  00120	8b 45 f8	 mov	 eax, DWORD PTR _edgeSize$[ebp]
  00123	d1 e0		 shl	 eax, 1
  00125	8b 4d fc	 mov	 ecx, DWORD PTR _this$[ebp]
  00128	8b 51 10	 mov	 edx, DWORD PTR [ecx+16]
  0012b	2b d0		 sub	 edx, eax
  0012d	52		 push	 edx
  0012e	8b 45 f8	 mov	 eax, DWORD PTR _edgeSize$[ebp]
  00131	d1 e0		 shl	 eax, 1
  00133	8b 4d fc	 mov	 ecx, DWORD PTR _this$[ebp]
  00136	8b 51 10	 mov	 edx, DWORD PTR [ecx+16]
  00139	2b d0		 sub	 edx, eax
  0013b	52		 push	 edx
  0013c	8b 45 f4	 mov	 eax, DWORD PTR _y$[ebp]
  0013f	03 45 f8	 add	 eax, DWORD PTR _edgeSize$[ebp]
  00142	50		 push	 eax
  00143	8b 4d f0	 mov	 ecx, DWORD PTR _x$[ebp]
  00146	03 4d f8	 add	 ecx, DWORD PTR _edgeSize$[ebp]
  00149	51		 push	 ecx
  0014a	e8 00 00 00 00	 call	 ?Instance@Graphics@graphics@core@@SAPAV123@XZ ; core::graphics::Graphics::Instance
  0014f	8b c8		 mov	 ecx, eax
  00151	e8 00 00 00 00	 call	 ?DrawFillRect@Graphics@graphics@core@@QAEXHHHHVColor@3@@Z ; core::graphics::Graphics::DrawFillRect
$LN1@DrawCell:

; 38   :     }
; 39   : }

  00156	8b e5		 mov	 esp, ebp
  00158	5d		 pop	 ebp
  00159	c2 18 00	 ret	 24			; 00000018H
?DrawCell@Board@gameplay@core@@QAEXHHHHH_N@Z ENDP	; core::gameplay::Board::DrawCell
_TEXT	ENDS
; Function compile flags: /Odtp
; File c:\dev\tetris\src\board.cpp
_TEXT	SEGMENT
_this$ = -16						; size = 4
__$EHRec$ = -12						; size = 12
_t_boardRows$ = 8					; size = 4
_t_boardCols$ = 12					; size = 4
_t_boardVisibleRows$ = 16				; size = 4
_t_boardGridSize$ = 20					; size = 4
??0Board@gameplay@core@@QAE@HHHH@Z PROC			; core::gameplay::Board::Board
; _this$ = ecx

; 10   : {

  00000	55		 push	 ebp
  00001	8b ec		 mov	 ebp, esp
  00003	6a ff		 push	 -1
  00005	68 00 00 00 00	 push	 __ehhandler$??0Board@gameplay@core@@QAE@HHHH@Z
  0000a	64 a1 00 00 00
	00		 mov	 eax, DWORD PTR fs:0
  00010	50		 push	 eax
  00011	51		 push	 ecx
  00012	a1 00 00 00 00	 mov	 eax, DWORD PTR ___security_cookie
  00017	33 c5		 xor	 eax, ebp
  00019	50		 push	 eax
  0001a	8d 45 f4	 lea	 eax, DWORD PTR __$EHRec$[ebp]
  0001d	64 a3 00 00 00
	00		 mov	 DWORD PTR fs:0, eax
  00023	89 4d f0	 mov	 DWORD PTR _this$[ebp], ecx
  00026	8b 4d f0	 mov	 ecx, DWORD PTR _this$[ebp]
  00029	83 c1 14	 add	 ecx, 20			; 00000014H
  0002c	e8 00 00 00 00	 call	 ??0Matrix@math@core@@QAE@XZ ; core::math::Matrix::Matrix
  00031	c7 45 fc 00 00
	00 00		 mov	 DWORD PTR __$EHRec$[ebp+8], 0

; 11   :     m_boardRows = t_boardRows;

  00038	8b 45 f0	 mov	 eax, DWORD PTR _this$[ebp]
  0003b	8b 4d 08	 mov	 ecx, DWORD PTR _t_boardRows$[ebp]
  0003e	89 48 04	 mov	 DWORD PTR [eax+4], ecx

; 12   :     m_boardCols = t_boardCols;

  00041	8b 55 f0	 mov	 edx, DWORD PTR _this$[ebp]
  00044	8b 45 0c	 mov	 eax, DWORD PTR _t_boardCols$[ebp]
  00047	89 42 08	 mov	 DWORD PTR [edx+8], eax

; 13   :     m_boardVisibleRows = t_boardVisibleRows;

  0004a	8b 4d f0	 mov	 ecx, DWORD PTR _this$[ebp]
  0004d	8b 55 10	 mov	 edx, DWORD PTR _t_boardVisibleRows$[ebp]
  00050	89 51 0c	 mov	 DWORD PTR [ecx+12], edx

; 14   :     m_boardGridSize = t_boardGridSize;

  00053	8b 45 f0	 mov	 eax, DWORD PTR _this$[ebp]
  00056	8b 4d 14	 mov	 ecx, DWORD PTR _t_boardGridSize$[ebp]
  00059	89 48 10	 mov	 DWORD PTR [eax+16], ecx

; 15   :     m_boardData.Resize(t_boardRows, t_boardCols);

  0005c	8b 55 0c	 mov	 edx, DWORD PTR _t_boardCols$[ebp]
  0005f	52		 push	 edx
  00060	8b 45 08	 mov	 eax, DWORD PTR _t_boardRows$[ebp]
  00063	50		 push	 eax
  00064	8b 4d f0	 mov	 ecx, DWORD PTR _this$[ebp]
  00067	83 c1 14	 add	 ecx, 20			; 00000014H
  0006a	e8 00 00 00 00	 call	 ?Resize@Matrix@math@core@@QAEXHH@Z ; core::math::Matrix::Resize

; 16   : }

  0006f	c7 45 fc ff ff
	ff ff		 mov	 DWORD PTR __$EHRec$[ebp+8], -1
  00076	8b 45 f0	 mov	 eax, DWORD PTR _this$[ebp]
  00079	8b 4d f4	 mov	 ecx, DWORD PTR __$EHRec$[ebp]
  0007c	64 89 0d 00 00
	00 00		 mov	 DWORD PTR fs:0, ecx
  00083	59		 pop	 ecx
  00084	8b e5		 mov	 esp, ebp
  00086	5d		 pop	 ebp
  00087	c2 10 00	 ret	 16			; 00000010H
_TEXT	ENDS
text$x	SEGMENT
__unwindfunclet$??0Board@gameplay@core@@QAE@HHHH@Z$0:
  00000	8b 4d f0	 mov	 ecx, DWORD PTR _this$[ebp]
  00003	83 c1 14	 add	 ecx, 20			; 00000014H
  00006	e9 00 00 00 00	 jmp	 ??1Matrix@math@core@@QAE@XZ
__ehhandler$??0Board@gameplay@core@@QAE@HHHH@Z:
  0000b	8b 54 24 08	 mov	 edx, DWORD PTR [esp+8]
  0000f	8d 42 0c	 lea	 eax, DWORD PTR [edx+12]
  00012	8b 4a f8	 mov	 ecx, DWORD PTR [edx-8]
  00015	33 c8		 xor	 ecx, eax
  00017	e8 00 00 00 00	 call	 @__security_check_cookie@4
  0001c	b8 00 00 00 00	 mov	 eax, OFFSET __ehfuncinfo$??0Board@gameplay@core@@QAE@HHHH@Z
  00021	e9 00 00 00 00	 jmp	 ___CxxFrameHandler3
text$x	ENDS
??0Board@gameplay@core@@QAE@HHHH@Z ENDP			; core::gameplay::Board::Board
; Function compile flags: /Odtp
; File c:\dev\tetris\src\stats.hpp
;	COMDAT ?SetPendingLineCount@Stats@gameplay@core@@QAEXH@Z
_TEXT	SEGMENT
_this$ = -4						; size = 4
_t_pendingLineCount$ = 8				; size = 4
?SetPendingLineCount@Stats@gameplay@core@@QAEXH@Z PROC	; core::gameplay::Stats::SetPendingLineCount, COMDAT
; _this$ = ecx

; 38   :             inline void SetPendingLineCount(i32 t_pendingLineCount) { m_pendingLineCount = t_pendingLineCount; }

  00000	55		 push	 ebp
  00001	8b ec		 mov	 ebp, esp
  00003	51		 push	 ecx
  00004	89 4d fc	 mov	 DWORD PTR _this$[ebp], ecx
  00007	8b 45 fc	 mov	 eax, DWORD PTR _this$[ebp]
  0000a	8b 4d 08	 mov	 ecx, DWORD PTR _t_pendingLineCount$[ebp]
  0000d	89 48 18	 mov	 DWORD PTR [eax+24], ecx
  00010	8b e5		 mov	 esp, ebp
  00012	5d		 pop	 ebp
  00013	c2 04 00	 ret	 4
?SetPendingLineCount@Stats@gameplay@core@@QAEXH@Z ENDP	; core::gameplay::Stats::SetPendingLineCount
_TEXT	ENDS
; Function compile flags: /Odtp
; File c:\dev\tetris\src\stats.hpp
;	COMDAT ?GetLines@Stats@gameplay@core@@QAEPA_NXZ
_TEXT	SEGMENT
_this$ = -4						; size = 4
?GetLines@Stats@gameplay@core@@QAEPA_NXZ PROC		; core::gameplay::Stats::GetLines, COMDAT
; _this$ = ecx

; 31   :             inline bool* GetLines() { return m_lines; }

  00000	55		 push	 ebp
  00001	8b ec		 mov	 ebp, esp
  00003	51		 push	 ecx
  00004	89 4d fc	 mov	 DWORD PTR _this$[ebp], ecx
  00007	8b 45 fc	 mov	 eax, DWORD PTR _this$[ebp]
  0000a	8b e5		 mov	 esp, ebp
  0000c	5d		 pop	 ebp
  0000d	c3		 ret	 0
?GetLines@Stats@gameplay@core@@QAEPA_NXZ ENDP		; core::gameplay::Stats::GetLines
_TEXT	ENDS
; Function compile flags: /Odtp
; File c:\program files (x86)\microsoft visual studio\2017\community\vc\tools\msvc\14.16.27023\include\utility
;	COMDAT ??$_Min_value@I@std@@YAABIABI0@Z
_TEXT	SEGMENT
$T1 = -8						; size = 4
tv65 = -4						; size = 4
__Left$ = 8						; size = 4
__Right$ = 12						; size = 4
??$_Min_value@I@std@@YAABIABI0@Z PROC			; std::_Min_value<unsigned int>, COMDAT

; 23   : 	{	// return smaller of _Left and _Right

  00000	55		 push	 ebp
  00001	8b ec		 mov	 ebp, esp
  00003	83 ec 08	 sub	 esp, 8

; 24   : 	return (_Right < _Left ? _Right : _Left);

  00006	8b 45 0c	 mov	 eax, DWORD PTR __Right$[ebp]
  00009	8b 4d 08	 mov	 ecx, DWORD PTR __Left$[ebp]
  0000c	8b 10		 mov	 edx, DWORD PTR [eax]
  0000e	3b 11		 cmp	 edx, DWORD PTR [ecx]
  00010	73 08		 jae	 SHORT $LN3@Min_value
  00012	8b 45 0c	 mov	 eax, DWORD PTR __Right$[ebp]
  00015	89 45 fc	 mov	 DWORD PTR tv65[ebp], eax
  00018	eb 06		 jmp	 SHORT $LN4@Min_value
$LN3@Min_value:
  0001a	8b 4d 08	 mov	 ecx, DWORD PTR __Left$[ebp]
  0001d	89 4d fc	 mov	 DWORD PTR tv65[ebp], ecx
$LN4@Min_value:
  00020	8b 55 fc	 mov	 edx, DWORD PTR tv65[ebp]
  00023	89 55 f8	 mov	 DWORD PTR $T1[ebp], edx
  00026	8b 45 f8	 mov	 eax, DWORD PTR $T1[ebp]

; 25   : 	}

  00029	8b e5		 mov	 esp, ebp
  0002b	5d		 pop	 ebp
  0002c	c3		 ret	 0
??$_Min_value@I@std@@YAABIABI0@Z ENDP			; std::_Min_value<unsigned int>
_TEXT	ENDS
; Function compile flags: /Odtp
; File c:\program files (x86)\microsoft visual studio\2017\community\vc\tools\msvc\14.16.27023\include\xutility
;	COMDAT ??$copy@V?$_Vector_iterator@V?$_Vector_val@U?$_Simple_types@H@std@@@std@@@std@@V12@@std@@YA?AV?$_Vector_iterator@V?$_Vector_val@U?$_Simple_types@H@std@@@std@@@0@V10@00@Z
_TEXT	SEGMENT
$T1 = -16						; size = 4
__UDest$ = -12						; size = 4
__UFirst$ = -8						; size = 4
__ULast$ = -4						; size = 4
___$ReturnUdt$ = 8					; size = 4
__First$ = 12						; size = 4
__Last$ = 16						; size = 4
__Dest$ = 20						; size = 4
??$copy@V?$_Vector_iterator@V?$_Vector_val@U?$_Simple_types@H@std@@@std@@@std@@V12@@std@@YA?AV?$_Vector_iterator@V?$_Vector_val@U?$_Simple_types@H@std@@@std@@@0@V10@00@Z PROC ; std::copy<std::_Vector_iterator<std::_Vector_val<std::_Simple_types<int> > >,std::_Vector_iterator<std::_Vector_val<std::_Simple_types<int> > > >, COMDAT

; 2440 : 	{	// copy [_First, _Last) to [_Dest, ...)

  00000	55		 push	 ebp
  00001	8b ec		 mov	 ebp, esp
  00003	83 ec 10	 sub	 esp, 16			; 00000010H

; 2441 : 	_Adl_verify_range(_First, _Last);

  00006	8d 45 10	 lea	 eax, DWORD PTR __Last$[ebp]
  00009	50		 push	 eax
  0000a	8d 4d 0c	 lea	 ecx, DWORD PTR __First$[ebp]
  0000d	51		 push	 ecx
  0000e	e8 00 00 00 00	 call	 ??$_Adl_verify_range@V?$_Vector_iterator@V?$_Vector_val@U?$_Simple_types@H@std@@@std@@@std@@V12@@std@@YAXABV?$_Vector_iterator@V?$_Vector_val@U?$_Simple_types@H@std@@@std@@@0@0@Z ; std::_Adl_verify_range<std::_Vector_iterator<std::_Vector_val<std::_Simple_types<int> > >,std::_Vector_iterator<std::_Vector_val<std::_Simple_types<int> > > >
  00013	83 c4 08	 add	 esp, 8

; 2442 : 	const auto _UFirst = _Get_unwrapped(_First);

  00016	8d 55 0c	 lea	 edx, DWORD PTR __First$[ebp]
  00019	52		 push	 edx
  0001a	e8 00 00 00 00	 call	 ??$_Get_unwrapped@V?$_Vector_iterator@V?$_Vector_val@U?$_Simple_types@H@std@@@std@@@std@@$0A@@std@@YAPAHABV?$_Vector_iterator@V?$_Vector_val@U?$_Simple_types@H@std@@@std@@@0@@Z ; std::_Get_unwrapped<std::_Vector_iterator<std::_Vector_val<std::_Simple_types<int> > >,0>
  0001f	83 c4 04	 add	 esp, 4
  00022	89 45 f8	 mov	 DWORD PTR __UFirst$[ebp], eax

; 2443 : 	const auto _ULast = _Get_unwrapped(_Last);

  00025	8d 45 10	 lea	 eax, DWORD PTR __Last$[ebp]
  00028	50		 push	 eax
  00029	e8 00 00 00 00	 call	 ??$_Get_unwrapped@V?$_Vector_iterator@V?$_Vector_val@U?$_Simple_types@H@std@@@std@@@std@@$0A@@std@@YAPAHABV?$_Vector_iterator@V?$_Vector_val@U?$_Simple_types@H@std@@@std@@@0@@Z ; std::_Get_unwrapped<std::_Vector_iterator<std::_Vector_val<std::_Simple_types<int> > >,0>
  0002e	83 c4 04	 add	 esp, 4
  00031	89 45 fc	 mov	 DWORD PTR __ULast$[ebp], eax

; 2444 : 	const auto _UDest = _Get_unwrapped_n(_Dest, _Idl_distance<_InIt>(_UFirst, _ULast));

  00034	8d 4d fc	 lea	 ecx, DWORD PTR __ULast$[ebp]
  00037	51		 push	 ecx
  00038	8d 55 f8	 lea	 edx, DWORD PTR __UFirst$[ebp]
  0003b	52		 push	 edx
  0003c	e8 00 00 00 00	 call	 ??$_Idl_distance@V?$_Vector_iterator@V?$_Vector_val@U?$_Simple_types@H@std@@@std@@@std@@PAH@std@@YAHABQAH0@Z ; std::_Idl_distance<std::_Vector_iterator<std::_Vector_val<std::_Simple_types<int> > >,int *>
  00041	83 c4 08	 add	 esp, 8
  00044	50		 push	 eax
  00045	8d 45 14	 lea	 eax, DWORD PTR __Dest$[ebp]
  00048	50		 push	 eax
  00049	e8 00 00 00 00	 call	 ??$_Get_unwrapped_n@V?$_Vector_iterator@V?$_Vector_val@U?$_Simple_types@H@std@@@std@@@std@@H$0A@@std@@YAPAHABV?$_Vector_iterator@V?$_Vector_val@U?$_Simple_types@H@std@@@std@@@0@H@Z ; std::_Get_unwrapped_n<std::_Vector_iterator<std::_Vector_val<std::_Simple_types<int> > >,int,0>
  0004e	83 c4 08	 add	 esp, 8
  00051	89 45 f4	 mov	 DWORD PTR __UDest$[ebp], eax

; 2445 : 	_Seek_wrapped(_Dest, _Copy_unchecked(_UFirst, _ULast, _UDest));

  00054	8b 4d f4	 mov	 ecx, DWORD PTR __UDest$[ebp]
  00057	51		 push	 ecx
  00058	8b 55 fc	 mov	 edx, DWORD PTR __ULast$[ebp]
  0005b	52		 push	 edx
  0005c	8b 45 f8	 mov	 eax, DWORD PTR __UFirst$[ebp]
  0005f	50		 push	 eax
  00060	e8 00 00 00 00	 call	 ??$_Copy_unchecked@PAHPAH@std@@YAPAHPAH00@Z ; std::_Copy_unchecked<int *,int *>
  00065	83 c4 0c	 add	 esp, 12			; 0000000cH
  00068	89 45 f0	 mov	 DWORD PTR $T1[ebp], eax
  0006b	8d 4d f0	 lea	 ecx, DWORD PTR $T1[ebp]
  0006e	51		 push	 ecx
  0006f	8d 55 14	 lea	 edx, DWORD PTR __Dest$[ebp]
  00072	52		 push	 edx
  00073	e8 00 00 00 00	 call	 ??$_Seek_wrapped@V?$_Vector_iterator@V?$_Vector_val@U?$_Simple_types@H@std@@@std@@@std@@PAH$0A@@std@@YAXAAV?$_Vector_iterator@V?$_Vector_val@U?$_Simple_types@H@std@@@std@@@0@ABQAH@Z ; std::_Seek_wrapped<std::_Vector_iterator<std::_Vector_val<std::_Simple_types<int> > >,int *,0>
  00078	83 c4 08	 add	 esp, 8

; 2446 : 	return (_Dest);

  0007b	8b 45 08	 mov	 eax, DWORD PTR ___$ReturnUdt$[ebp]
  0007e	8b 4d 14	 mov	 ecx, DWORD PTR __Dest$[ebp]
  00081	89 08		 mov	 DWORD PTR [eax], ecx
  00083	8b 45 08	 mov	 eax, DWORD PTR ___$ReturnUdt$[ebp]

; 2447 : 	}

  00086	8b e5		 mov	 esp, ebp
  00088	5d		 pop	 ebp
  00089	c3		 ret	 0
??$copy@V?$_Vector_iterator@V?$_Vector_val@U?$_Simple_types@H@std@@@std@@@std@@V12@@std@@YA?AV?$_Vector_iterator@V?$_Vector_val@U?$_Simple_types@H@std@@@std@@@0@V10@00@Z ENDP ; std::copy<std::_Vector_iterator<std::_Vector_val<std::_Simple_types<int> > >,std::_Vector_iterator<std::_Vector_val<std::_Simple_types<int> > > >
_TEXT	ENDS
; Function compile flags: /Odtp
; File c:\program files (x86)\microsoft visual studio\2017\community\vc\tools\msvc\14.16.27023\include\xutility
;	COMDAT ??$fill@V?$_Vector_iterator@V?$_Vector_val@U?$_Simple_types@H@std@@@std@@@std@@H@std@@YAXV?$_Vector_iterator@V?$_Vector_val@U?$_Simple_types@H@std@@@std@@@0@0ABH@Z
_TEXT	SEGMENT
__First$ = 8						; size = 4
__Last$ = 12						; size = 4
__Val$ = 16						; size = 4
??$fill@V?$_Vector_iterator@V?$_Vector_val@U?$_Simple_types@H@std@@@std@@@std@@H@std@@YAXV?$_Vector_iterator@V?$_Vector_val@U?$_Simple_types@H@std@@@std@@@0@0ABH@Z PROC ; std::fill<std::_Vector_iterator<std::_Vector_val<std::_Simple_types<int> > >,int>, COMDAT

; 2923 : 	{	// copy _Val through [_First, _Last)

  00000	55		 push	 ebp
  00001	8b ec		 mov	 ebp, esp

; 2924 : 	_Adl_verify_range(_First, _Last);

  00003	8d 45 0c	 lea	 eax, DWORD PTR __Last$[ebp]
  00006	50		 push	 eax
  00007	8d 4d 08	 lea	 ecx, DWORD PTR __First$[ebp]
  0000a	51		 push	 ecx
  0000b	e8 00 00 00 00	 call	 ??$_Adl_verify_range@V?$_Vector_iterator@V?$_Vector_val@U?$_Simple_types@H@std@@@std@@@std@@V12@@std@@YAXABV?$_Vector_iterator@V?$_Vector_val@U?$_Simple_types@H@std@@@std@@@0@0@Z ; std::_Adl_verify_range<std::_Vector_iterator<std::_Vector_val<std::_Simple_types<int> > >,std::_Vector_iterator<std::_Vector_val<std::_Simple_types<int> > > >
  00010	83 c4 08	 add	 esp, 8

; 2925 : 	_Fill_unchecked(_Get_unwrapped(_First), _Get_unwrapped(_Last), _Val);

  00013	8b 55 10	 mov	 edx, DWORD PTR __Val$[ebp]
  00016	52		 push	 edx
  00017	8d 45 0c	 lea	 eax, DWORD PTR __Last$[ebp]
  0001a	50		 push	 eax
  0001b	e8 00 00 00 00	 call	 ??$_Get_unwrapped@V?$_Vector_iterator@V?$_Vector_val@U?$_Simple_types@H@std@@@std@@@std@@$0A@@std@@YAPAHABV?$_Vector_iterator@V?$_Vector_val@U?$_Simple_types@H@std@@@std@@@0@@Z ; std::_Get_unwrapped<std::_Vector_iterator<std::_Vector_val<std::_Simple_types<int> > >,0>
  00020	83 c4 04	 add	 esp, 4
  00023	50		 push	 eax
  00024	8d 4d 08	 lea	 ecx, DWORD PTR __First$[ebp]
  00027	51		 push	 ecx
  00028	e8 00 00 00 00	 call	 ??$_Get_unwrapped@V?$_Vector_iterator@V?$_Vector_val@U?$_Simple_types@H@std@@@std@@@std@@$0A@@std@@YAPAHABV?$_Vector_iterator@V?$_Vector_val@U?$_Simple_types@H@std@@@std@@@0@@Z ; std::_Get_unwrapped<std::_Vector_iterator<std::_Vector_val<std::_Simple_types<int> > >,0>
  0002d	83 c4 04	 add	 esp, 4
  00030	50		 push	 eax
  00031	e8 00 00 00 00	 call	 ??$_Fill_unchecked@PAHH@std@@YAXPAH0ABH@Z ; std::_Fill_unchecked<int *,int>
  00036	83 c4 0c	 add	 esp, 12			; 0000000cH

; 2926 : 	}

  00039	5d		 pop	 ebp
  0003a	c3		 ret	 0
??$fill@V?$_Vector_iterator@V?$_Vector_val@U?$_Simple_types@H@std@@@std@@@std@@H@std@@YAXV?$_Vector_iterator@V?$_Vector_val@U?$_Simple_types@H@std@@@std@@@0@0ABH@Z ENDP ; std::fill<std::_Vector_iterator<std::_Vector_val<std::_Simple_types<int> > >,int>
_TEXT	ENDS
; Function compile flags: /Odtp
; File c:\program files (x86)\microsoft visual studio\2017\community\vc\tools\msvc\14.16.27023\include\vector
;	COMDAT ?_Unwrapped@?$_Vector_iterator@V?$_Vector_val@U?$_Simple_types@H@std@@@std@@@std@@QBEPAHXZ
_TEXT	SEGMENT
_this$ = -4						; size = 4
?_Unwrapped@?$_Vector_iterator@V?$_Vector_val@U?$_Simple_types@H@std@@@std@@@std@@QBEPAHXZ PROC ; std::_Vector_iterator<std::_Vector_val<std::_Simple_types<int> > >::_Unwrapped, COMDAT
; _this$ = ecx

; 326  : 		{

  00000	55		 push	 ebp
  00001	8b ec		 mov	 ebp, esp
  00003	51		 push	 ecx
  00004	89 4d fc	 mov	 DWORD PTR _this$[ebp], ecx

; 327  : 		return (this->_Ptr);

  00007	8b 45 fc	 mov	 eax, DWORD PTR _this$[ebp]
  0000a	8b 00		 mov	 eax, DWORD PTR [eax]

; 328  : 		}

  0000c	8b e5		 mov	 esp, ebp
  0000e	5d		 pop	 ebp
  0000f	c3		 ret	 0
?_Unwrapped@?$_Vector_iterator@V?$_Vector_val@U?$_Simple_types@H@std@@@std@@@std@@QBEPAHXZ ENDP ; std::_Vector_iterator<std::_Vector_val<std::_Simple_types<int> > >::_Unwrapped
_TEXT	ENDS
; Function compile flags: /Odtp
; File c:\program files (x86)\microsoft visual studio\2017\community\vc\tools\msvc\14.16.27023\include\vector
;	COMDAT ??H?$_Vector_iterator@V?$_Vector_val@U?$_Simple_types@H@std@@@std@@@std@@QBE?AV01@H@Z
_TEXT	SEGMENT
__Tmp$ = -8						; size = 4
_this$ = -4						; size = 4
___$ReturnUdt$ = 8					; size = 4
__Off$ = 12						; size = 4
??H?$_Vector_iterator@V?$_Vector_val@U?$_Simple_types@H@std@@@std@@@std@@QBE?AV01@H@Z PROC ; std::_Vector_iterator<std::_Vector_val<std::_Simple_types<int> > >::operator+, COMDAT
; _this$ = ecx

; 299  : 		{	// return this + integer

  00000	55		 push	 ebp
  00001	8b ec		 mov	 ebp, esp
  00003	83 ec 08	 sub	 esp, 8
  00006	89 4d fc	 mov	 DWORD PTR _this$[ebp], ecx

; 300  : 		_Vector_iterator _Tmp = *this;

  00009	8b 45 fc	 mov	 eax, DWORD PTR _this$[ebp]
  0000c	8b 08		 mov	 ecx, DWORD PTR [eax]
  0000e	89 4d f8	 mov	 DWORD PTR __Tmp$[ebp], ecx

; 301  : 		return (_Tmp += _Off);

  00011	8b 55 0c	 mov	 edx, DWORD PTR __Off$[ebp]
  00014	52		 push	 edx
  00015	8d 4d f8	 lea	 ecx, DWORD PTR __Tmp$[ebp]
  00018	e8 00 00 00 00	 call	 ??Y?$_Vector_iterator@V?$_Vector_val@U?$_Simple_types@H@std@@@std@@@std@@QAEAAV01@H@Z ; std::_Vector_iterator<std::_Vector_val<std::_Simple_types<int> > >::operator+=
  0001d	8b 00		 mov	 eax, DWORD PTR [eax]
  0001f	8b 4d 08	 mov	 ecx, DWORD PTR ___$ReturnUdt$[ebp]
  00022	89 01		 mov	 DWORD PTR [ecx], eax
  00024	8b 45 08	 mov	 eax, DWORD PTR ___$ReturnUdt$[ebp]

; 302  : 		}

  00027	8b e5		 mov	 esp, ebp
  00029	5d		 pop	 ebp
  0002a	c2 08 00	 ret	 8
??H?$_Vector_iterator@V?$_Vector_val@U?$_Simple_types@H@std@@@std@@@std@@QBE?AV01@H@Z ENDP ; std::_Vector_iterator<std::_Vector_val<std::_Simple_types<int> > >::operator+
_TEXT	ENDS
; Function compile flags: /Odtp
; File c:\program files (x86)\microsoft visual studio\2017\community\vc\tools\msvc\14.16.27023\include\vector
;	COMDAT ??Y?$_Vector_iterator@V?$_Vector_val@U?$_Simple_types@H@std@@@std@@@std@@QAEAAV01@H@Z
_TEXT	SEGMENT
_this$ = -4						; size = 4
__Off$ = 8						; size = 4
??Y?$_Vector_iterator@V?$_Vector_val@U?$_Simple_types@H@std@@@std@@@std@@QAEAAV01@H@Z PROC ; std::_Vector_iterator<std::_Vector_val<std::_Simple_types<int> > >::operator+=, COMDAT
; _this$ = ecx

; 293  : 		{	// increment by integer

  00000	55		 push	 ebp
  00001	8b ec		 mov	 ebp, esp
  00003	51		 push	 ecx
  00004	89 4d fc	 mov	 DWORD PTR _this$[ebp], ecx

; 294  : 		*(_Mybase *)this += _Off;

  00007	8b 45 08	 mov	 eax, DWORD PTR __Off$[ebp]
  0000a	50		 push	 eax
  0000b	8b 4d fc	 mov	 ecx, DWORD PTR _this$[ebp]
  0000e	e8 00 00 00 00	 call	 ??Y?$_Vector_const_iterator@V?$_Vector_val@U?$_Simple_types@H@std@@@std@@@std@@QAEAAV01@H@Z ; std::_Vector_const_iterator<std::_Vector_val<std::_Simple_types<int> > >::operator+=

; 295  : 		return (*this);

  00013	8b 45 fc	 mov	 eax, DWORD PTR _this$[ebp]

; 296  : 		}

  00016	8b e5		 mov	 esp, ebp
  00018	5d		 pop	 ebp
  00019	c2 04 00	 ret	 4
??Y?$_Vector_iterator@V?$_Vector_val@U?$_Simple_types@H@std@@@std@@@std@@QAEAAV01@H@Z ENDP ; std::_Vector_iterator<std::_Vector_val<std::_Simple_types<int> > >::operator+=
_TEXT	ENDS
; Function compile flags: /Odtp
; File c:\program files (x86)\microsoft visual studio\2017\community\vc\tools\msvc\14.16.27023\include\vector
;	COMDAT ??0?$_Vector_iterator@V?$_Vector_val@U?$_Simple_types@H@std@@@std@@@std@@QAE@PAHPBU_Container_base0@1@@Z
_TEXT	SEGMENT
_this$ = -4						; size = 4
__Parg$ = 8						; size = 4
__Pvector$ = 12						; size = 4
??0?$_Vector_iterator@V?$_Vector_val@U?$_Simple_types@H@std@@@std@@@std@@QAE@PAHPBU_Container_base0@1@@Z PROC ; std::_Vector_iterator<std::_Vector_val<std::_Simple_types<int> > >::_Vector_iterator<std::_Vector_val<std::_Simple_types<int> > >, COMDAT
; _this$ = ecx

; 253  : 		{	// construct with pointer _Parg

  00000	55		 push	 ebp
  00001	8b ec		 mov	 ebp, esp
  00003	51		 push	 ecx
  00004	89 4d fc	 mov	 DWORD PTR _this$[ebp], ecx

; 252  : 		: _Mybase(_Parg, _Pvector)

  00007	8b 45 0c	 mov	 eax, DWORD PTR __Pvector$[ebp]
  0000a	50		 push	 eax
  0000b	8b 4d 08	 mov	 ecx, DWORD PTR __Parg$[ebp]
  0000e	51		 push	 ecx
  0000f	8b 4d fc	 mov	 ecx, DWORD PTR _this$[ebp]
  00012	e8 00 00 00 00	 call	 ??0?$_Vector_const_iterator@V?$_Vector_val@U?$_Simple_types@H@std@@@std@@@std@@QAE@PAHPBU_Container_base0@1@@Z ; std::_Vector_const_iterator<std::_Vector_val<std::_Simple_types<int> > >::_Vector_const_iterator<std::_Vector_val<std::_Simple_types<int> > >

; 254  : 		}

  00017	8b 45 fc	 mov	 eax, DWORD PTR _this$[ebp]
  0001a	8b e5		 mov	 esp, ebp
  0001c	5d		 pop	 ebp
  0001d	c2 08 00	 ret	 8
??0?$_Vector_iterator@V?$_Vector_val@U?$_Simple_types@H@std@@@std@@@std@@QAE@PAHPBU_Container_base0@1@@Z ENDP ; std::_Vector_iterator<std::_Vector_val<std::_Simple_types<int> > >::_Vector_iterator<std::_Vector_val<std::_Simple_types<int> > >
_TEXT	ENDS
; Function compile flags: /Odtp
; File c:\program files (x86)\microsoft visual studio\2017\community\vc\tools\msvc\14.16.27023\include\vector
;	COMDAT ?_Seek_to@?$_Vector_const_iterator@V?$_Vector_val@U?$_Simple_types@H@std@@@std@@@std@@QAEXPBH@Z
_TEXT	SEGMENT
_this$ = -4						; size = 4
__It$ = 8						; size = 4
?_Seek_to@?$_Vector_const_iterator@V?$_Vector_val@U?$_Simple_types@H@std@@@std@@@std@@QAEXPBH@Z PROC ; std::_Vector_const_iterator<std::_Vector_val<std::_Simple_types<int> > >::_Seek_to, COMDAT
; _this$ = ecx

; 218  : 		{

  00000	55		 push	 ebp
  00001	8b ec		 mov	 ebp, esp
  00003	51		 push	 ecx
  00004	89 4d fc	 mov	 DWORD PTR _this$[ebp], ecx

; 219  : 		_Ptr = _Const_cast(_It);

  00007	8b 45 08	 mov	 eax, DWORD PTR __It$[ebp]
  0000a	50		 push	 eax
  0000b	e8 00 00 00 00	 call	 ??$_Const_cast@$$CBH@std@@YAPAHPBH@Z ; std::_Const_cast<int const >
  00010	83 c4 04	 add	 esp, 4
  00013	8b 4d fc	 mov	 ecx, DWORD PTR _this$[ebp]
  00016	89 01		 mov	 DWORD PTR [ecx], eax

; 220  : 		}

  00018	8b e5		 mov	 esp, ebp
  0001a	5d		 pop	 ebp
  0001b	c2 04 00	 ret	 4
?_Seek_to@?$_Vector_const_iterator@V?$_Vector_val@U?$_Simple_types@H@std@@@std@@@std@@QAEXPBH@Z ENDP ; std::_Vector_const_iterator<std::_Vector_val<std::_Simple_types<int> > >::_Seek_to
_TEXT	ENDS
; Function compile flags: /Odtp
; File c:\program files (x86)\microsoft visual studio\2017\community\vc\tools\msvc\14.16.27023\include\vector
;	COMDAT ??Y?$_Vector_const_iterator@V?$_Vector_val@U?$_Simple_types@H@std@@@std@@@std@@QAEAAV01@H@Z
_TEXT	SEGMENT
_this$ = -4						; size = 4
__Off$ = 8						; size = 4
??Y?$_Vector_const_iterator@V?$_Vector_val@U?$_Simple_types@H@std@@@std@@@std@@QAEAAV01@H@Z PROC ; std::_Vector_const_iterator<std::_Vector_val<std::_Simple_types<int> > >::operator+=, COMDAT
; _this$ = ecx

; 128  : 		{	// increment by integer

  00000	55		 push	 ebp
  00001	8b ec		 mov	 ebp, esp
  00003	51		 push	 ecx
  00004	89 4d fc	 mov	 DWORD PTR _this$[ebp], ecx

; 129  : 		_Verify_offset(_Off);

  00007	8b 45 08	 mov	 eax, DWORD PTR __Off$[ebp]
  0000a	50		 push	 eax
  0000b	8b 4d fc	 mov	 ecx, DWORD PTR _this$[ebp]
  0000e	e8 00 00 00 00	 call	 ?_Verify_offset@?$_Vector_const_iterator@V?$_Vector_val@U?$_Simple_types@H@std@@@std@@@std@@QBEXH@Z ; std::_Vector_const_iterator<std::_Vector_val<std::_Simple_types<int> > >::_Verify_offset

; 130  : 		_Ptr += _Off;

  00013	8b 4d fc	 mov	 ecx, DWORD PTR _this$[ebp]
  00016	8b 11		 mov	 edx, DWORD PTR [ecx]
  00018	8b 45 08	 mov	 eax, DWORD PTR __Off$[ebp]
  0001b	8d 0c 82	 lea	 ecx, DWORD PTR [edx+eax*4]
  0001e	8b 55 fc	 mov	 edx, DWORD PTR _this$[ebp]
  00021	89 0a		 mov	 DWORD PTR [edx], ecx

; 131  : 		return (*this);

  00023	8b 45 fc	 mov	 eax, DWORD PTR _this$[ebp]

; 132  : 		}

  00026	8b e5		 mov	 esp, ebp
  00028	5d		 pop	 ebp
  00029	c2 04 00	 ret	 4
??Y?$_Vector_const_iterator@V?$_Vector_val@U?$_Simple_types@H@std@@@std@@@std@@QAEAAV01@H@Z ENDP ; std::_Vector_const_iterator<std::_Vector_val<std::_Simple_types<int> > >::operator+=
_TEXT	ENDS
; Function compile flags: /Odtp
; File c:\program files (x86)\microsoft visual studio\2017\community\vc\tools\msvc\14.16.27023\include\vector
;	COMDAT ?_Verify_offset@?$_Vector_const_iterator@V?$_Vector_val@U?$_Simple_types@H@std@@@std@@@std@@QBEXH@Z
_TEXT	SEGMENT
_this$ = -4						; size = 4
__Off$ = 8						; size = 4
?_Verify_offset@?$_Vector_const_iterator@V?$_Vector_val@U?$_Simple_types@H@std@@@std@@@std@@QBEXH@Z PROC ; std::_Vector_const_iterator<std::_Vector_val<std::_Simple_types<int> > >::_Verify_offset, COMDAT
; _this$ = ecx

; 109  : 		{

  00000	55		 push	 ebp
  00001	8b ec		 mov	 ebp, esp
  00003	51		 push	 ecx
  00004	89 4d fc	 mov	 DWORD PTR _this$[ebp], ecx

; 110  :  #if _ITERATOR_DEBUG_LEVEL == 0
; 111  : 		(void)_Off;
; 112  :  #else /* ^^^ _ITERATOR_DEBUG_LEVEL == 0 ^^^ // vvv _ITERATOR_DEBUG_LEVEL != 0 vvv */
; 113  : 		const auto _Mycont = static_cast<const _Myvec *>(this->_Getcont());
; 114  : 		_STL_VERIFY(_Off == 0 || _Ptr, "cannot seek value-initialized vector iterator");
; 115  : 		if (_Off < 0)
; 116  : 			{
; 117  : 			_STL_VERIFY(_Off >= _Mycont->_Myfirst - _Ptr, "cannot seek vector iterator before begin");
; 118  : 			}
; 119  : 
; 120  : 		if (_Off > 0)
; 121  : 			{
; 122  : 			_STL_VERIFY(_Off <= _Mycont->_Mylast - _Ptr, "cannot seek vector iterator after end");
; 123  : 			}
; 124  :  #endif /* _ITERATOR_DEBUG_LEVEL == 0 */
; 125  : 		}

  00007	8b e5		 mov	 esp, ebp
  00009	5d		 pop	 ebp
  0000a	c2 04 00	 ret	 4
?_Verify_offset@?$_Vector_const_iterator@V?$_Vector_val@U?$_Simple_types@H@std@@@std@@@std@@QBEXH@Z ENDP ; std::_Vector_const_iterator<std::_Vector_val<std::_Simple_types<int> > >::_Verify_offset
_TEXT	ENDS
; Function compile flags: /Odtp
; File c:\program files (x86)\microsoft visual studio\2017\community\vc\tools\msvc\14.16.27023\include\vector
;	COMDAT ??0?$_Vector_const_iterator@V?$_Vector_val@U?$_Simple_types@H@std@@@std@@@std@@QAE@PAHPBU_Container_base0@1@@Z
_TEXT	SEGMENT
_this$ = -4						; size = 4
__Parg$ = 8						; size = 4
__Pvector$ = 12						; size = 4
??0?$_Vector_const_iterator@V?$_Vector_val@U?$_Simple_types@H@std@@@std@@@std@@QAE@PAHPBU_Container_base0@1@@Z PROC ; std::_Vector_const_iterator<std::_Vector_val<std::_Simple_types<int> > >::_Vector_const_iterator<std::_Vector_val<std::_Simple_types<int> > >, COMDAT
; _this$ = ecx

; 42   : 		{	// construct with pointer _Parg

  00000	55		 push	 ebp
  00001	8b ec		 mov	 ebp, esp
  00003	51		 push	 ecx
  00004	89 4d fc	 mov	 DWORD PTR _this$[ebp], ecx

; 41   : 		: _Ptr(_Parg)

  00007	8b 45 fc	 mov	 eax, DWORD PTR _this$[ebp]
  0000a	8b 4d 08	 mov	 ecx, DWORD PTR __Parg$[ebp]
  0000d	89 08		 mov	 DWORD PTR [eax], ecx

; 43   : 		this->_Adopt(_Pvector);

  0000f	8b 55 0c	 mov	 edx, DWORD PTR __Pvector$[ebp]
  00012	52		 push	 edx
  00013	8b 4d fc	 mov	 ecx, DWORD PTR _this$[ebp]
  00016	e8 00 00 00 00	 call	 ?_Adopt@_Iterator_base0@std@@QAEXPBX@Z ; std::_Iterator_base0::_Adopt

; 44   : 		}

  0001b	8b 45 fc	 mov	 eax, DWORD PTR _this$[ebp]
  0001e	8b e5		 mov	 esp, ebp
  00020	5d		 pop	 ebp
  00021	c2 08 00	 ret	 8
??0?$_Vector_const_iterator@V?$_Vector_val@U?$_Simple_types@H@std@@@std@@@std@@QAE@PAHPBU_Container_base0@1@@Z ENDP ; std::_Vector_const_iterator<std::_Vector_val<std::_Simple_types<int> > >::_Vector_const_iterator<std::_Vector_val<std::_Simple_types<int> > >
_TEXT	ENDS
; Function compile flags: /Odtp
;	COMDAT ??1Matrix@math@core@@QAE@XZ
_TEXT	SEGMENT
_this$ = -4						; size = 4
??1Matrix@math@core@@QAE@XZ PROC			; core::math::Matrix::~Matrix, COMDAT
; _this$ = ecx
  00000	55		 push	 ebp
  00001	8b ec		 mov	 ebp, esp
  00003	51		 push	 ecx
  00004	89 4d fc	 mov	 DWORD PTR _this$[ebp], ecx
  00007	8b 4d fc	 mov	 ecx, DWORD PTR _this$[ebp]
  0000a	83 c1 08	 add	 ecx, 8
  0000d	e8 00 00 00 00	 call	 ??1?$vector@HV?$allocator@H@std@@@std@@QAE@XZ ; std::vector<int,std::allocator<int> >::~vector<int,std::allocator<int> >
  00012	8b e5		 mov	 esp, ebp
  00014	5d		 pop	 ebp
  00015	c3		 ret	 0
??1Matrix@math@core@@QAE@XZ ENDP			; core::math::Matrix::~Matrix
_TEXT	ENDS
; Function compile flags: /Odtp
; File c:\dev\tetris\src\math\matrix.hpp
;	COMDAT ?GetValue@Matrix@math@core@@QBEHHH@Z
_TEXT	SEGMENT
_this$ = -4						; size = 4
_row$ = 8						; size = 4
_col$ = 12						; size = 4
?GetValue@Matrix@math@core@@QBEHHH@Z PROC		; core::math::Matrix::GetValue, COMDAT
; _this$ = ecx

; 81   :             {

  00000	55		 push	 ebp
  00001	8b ec		 mov	 ebp, esp
  00003	51		 push	 ecx
  00004	89 4d fc	 mov	 DWORD PTR _this$[ebp], ecx

; 82   :                 assert(row >= 0 && row < m_rows && col >=0 && col < m_cols);

  00007	83 7d 08 00	 cmp	 DWORD PTR _row$[ebp], 0
  0000b	7c 1b		 jl	 SHORT $LN3@GetValue
  0000d	8b 45 fc	 mov	 eax, DWORD PTR _this$[ebp]
  00010	8b 4d 08	 mov	 ecx, DWORD PTR _row$[ebp]
  00013	3b 08		 cmp	 ecx, DWORD PTR [eax]
  00015	7d 11		 jge	 SHORT $LN3@GetValue
  00017	83 7d 0c 00	 cmp	 DWORD PTR _col$[ebp], 0
  0001b	7c 0b		 jl	 SHORT $LN3@GetValue
  0001d	8b 55 fc	 mov	 edx, DWORD PTR _this$[ebp]
  00020	8b 45 0c	 mov	 eax, DWORD PTR _col$[ebp]
  00023	3b 42 04	 cmp	 eax, DWORD PTR [edx+4]
  00026	7c 14		 jl	 SHORT $LN4@GetValue
$LN3@GetValue:
  00028	6a 52		 push	 82			; 00000052H
  0002a	68 00 00 00 00	 push	 OFFSET ??_C@_1EE@HDIKHOLG@?$AAc?$AA?3?$AA?2?$AAd?$AAe?$AAv?$AA?2?$AAt?$AAe?$AAt?$AAr?$AAi?$AAs?$AA?2?$AAs@
  0002f	68 00 00 00 00	 push	 OFFSET ??_C@_1GI@GGOBNHPI@?$AAr?$AAo?$AAw?$AA?5?$AA?$DO?$AA?$DN?$AA?5?$AA0?$AA?5?$AA?$CG?$AA?$CG?$AA?5?$AAr?$AAo?$AAw@
  00034	e8 00 00 00 00	 call	 __wassert
  00039	83 c4 0c	 add	 esp, 12			; 0000000cH
$LN4@GetValue:

; 83   :                 return m_data[row * m_cols + col];

  0003c	8b 55 fc	 mov	 edx, DWORD PTR _this$[ebp]
  0003f	8b 45 08	 mov	 eax, DWORD PTR _row$[ebp]
  00042	0f af 42 04	 imul	 eax, DWORD PTR [edx+4]
  00046	03 45 0c	 add	 eax, DWORD PTR _col$[ebp]
  00049	50		 push	 eax
  0004a	8b 4d fc	 mov	 ecx, DWORD PTR _this$[ebp]
  0004d	83 c1 08	 add	 ecx, 8
  00050	e8 00 00 00 00	 call	 ??A?$vector@HV?$allocator@H@std@@@std@@QBEABHI@Z ; std::vector<int,std::allocator<int> >::operator[]
  00055	8b 00		 mov	 eax, DWORD PTR [eax]

; 84   :             }

  00057	8b e5		 mov	 esp, ebp
  00059	5d		 pop	 ebp
  0005a	c2 08 00	 ret	 8
?GetValue@Matrix@math@core@@QBEHHH@Z ENDP		; core::math::Matrix::GetValue
_TEXT	ENDS
; Function compile flags: /Odtp
; File c:\dev\tetris\src\math\matrix.hpp
;	COMDAT ?CopyElements@Matrix@math@core@@QAEXHHH@Z
_TEXT	SEGMENT
$T1 = -36						; size = 4
$T2 = -32						; size = 4
$T3 = -28						; size = 4
$T4 = -24						; size = 4
$T5 = -20						; size = 4
$T6 = -16						; size = 4
$T7 = -12						; size = 4
$T8 = -8						; size = 4
_this$ = -4						; size = 4
_t_destIndex$ = 8					; size = 4
_t_srcIndex$ = 12					; size = 4
_t_length$ = 16						; size = 4
?CopyElements@Matrix@math@core@@QAEXHHH@Z PROC		; core::math::Matrix::CopyElements, COMDAT
; _this$ = ecx

; 64   :             {

  00000	55		 push	 ebp
  00001	8b ec		 mov	 ebp, esp
  00003	83 ec 24	 sub	 esp, 36			; 00000024H
  00006	89 4d fc	 mov	 DWORD PTR _this$[ebp], ecx

; 65   :                 std::copy(m_data.begin() + t_srcIndex,

  00009	8b 45 08	 mov	 eax, DWORD PTR _t_destIndex$[ebp]
  0000c	50		 push	 eax
  0000d	8d 4d f8	 lea	 ecx, DWORD PTR $T8[ebp]
  00010	51		 push	 ecx
  00011	8d 55 f4	 lea	 edx, DWORD PTR $T7[ebp]
  00014	52		 push	 edx
  00015	8b 4d fc	 mov	 ecx, DWORD PTR _this$[ebp]
  00018	83 c1 08	 add	 ecx, 8
  0001b	e8 00 00 00 00	 call	 ?begin@?$vector@HV?$allocator@H@std@@@std@@QAE?AV?$_Vector_iterator@V?$_Vector_val@U?$_Simple_types@H@std@@@std@@@2@XZ ; std::vector<int,std::allocator<int> >::begin
  00020	8b c8		 mov	 ecx, eax
  00022	e8 00 00 00 00	 call	 ??H?$_Vector_iterator@V?$_Vector_val@U?$_Simple_types@H@std@@@std@@@std@@QBE?AV01@H@Z ; std::_Vector_iterator<std::_Vector_val<std::_Simple_types<int> > >::operator+
  00027	8b 00		 mov	 eax, DWORD PTR [eax]
  00029	50		 push	 eax
  0002a	8b 4d 10	 mov	 ecx, DWORD PTR _t_length$[ebp]
  0002d	51		 push	 ecx
  0002e	8d 55 f0	 lea	 edx, DWORD PTR $T6[ebp]
  00031	52		 push	 edx
  00032	8b 45 0c	 mov	 eax, DWORD PTR _t_srcIndex$[ebp]
  00035	50		 push	 eax
  00036	8d 4d ec	 lea	 ecx, DWORD PTR $T5[ebp]
  00039	51		 push	 ecx
  0003a	8d 55 e8	 lea	 edx, DWORD PTR $T4[ebp]
  0003d	52		 push	 edx
  0003e	8b 4d fc	 mov	 ecx, DWORD PTR _this$[ebp]
  00041	83 c1 08	 add	 ecx, 8
  00044	e8 00 00 00 00	 call	 ?begin@?$vector@HV?$allocator@H@std@@@std@@QAE?AV?$_Vector_iterator@V?$_Vector_val@U?$_Simple_types@H@std@@@std@@@2@XZ ; std::vector<int,std::allocator<int> >::begin
  00049	8b c8		 mov	 ecx, eax
  0004b	e8 00 00 00 00	 call	 ??H?$_Vector_iterator@V?$_Vector_val@U?$_Simple_types@H@std@@@std@@@std@@QBE?AV01@H@Z ; std::_Vector_iterator<std::_Vector_val<std::_Simple_types<int> > >::operator+
  00050	8b c8		 mov	 ecx, eax
  00052	e8 00 00 00 00	 call	 ??H?$_Vector_iterator@V?$_Vector_val@U?$_Simple_types@H@std@@@std@@@std@@QBE?AV01@H@Z ; std::_Vector_iterator<std::_Vector_val<std::_Simple_types<int> > >::operator+
  00057	8b 00		 mov	 eax, DWORD PTR [eax]
  00059	50		 push	 eax
  0005a	8b 4d 0c	 mov	 ecx, DWORD PTR _t_srcIndex$[ebp]
  0005d	51		 push	 ecx
  0005e	8d 55 e4	 lea	 edx, DWORD PTR $T3[ebp]
  00061	52		 push	 edx
  00062	8d 45 e0	 lea	 eax, DWORD PTR $T2[ebp]
  00065	50		 push	 eax
  00066	8b 4d fc	 mov	 ecx, DWORD PTR _this$[ebp]
  00069	83 c1 08	 add	 ecx, 8
  0006c	e8 00 00 00 00	 call	 ?begin@?$vector@HV?$allocator@H@std@@@std@@QAE?AV?$_Vector_iterator@V?$_Vector_val@U?$_Simple_types@H@std@@@std@@@2@XZ ; std::vector<int,std::allocator<int> >::begin
  00071	8b c8		 mov	 ecx, eax
  00073	e8 00 00 00 00	 call	 ??H?$_Vector_iterator@V?$_Vector_val@U?$_Simple_types@H@std@@@std@@@std@@QBE?AV01@H@Z ; std::_Vector_iterator<std::_Vector_val<std::_Simple_types<int> > >::operator+
  00078	8b 08		 mov	 ecx, DWORD PTR [eax]
  0007a	51		 push	 ecx
  0007b	8d 55 dc	 lea	 edx, DWORD PTR $T1[ebp]
  0007e	52		 push	 edx
  0007f	e8 00 00 00 00	 call	 ??$copy@V?$_Vector_iterator@V?$_Vector_val@U?$_Simple_types@H@std@@@std@@@std@@V12@@std@@YA?AV?$_Vector_iterator@V?$_Vector_val@U?$_Simple_types@H@std@@@std@@@0@V10@00@Z ; std::copy<std::_Vector_iterator<std::_Vector_val<std::_Simple_types<int> > >,std::_Vector_iterator<std::_Vector_val<std::_Simple_types<int> > > >
  00084	83 c4 10	 add	 esp, 16			; 00000010H

; 66   :                           m_data.begin() + t_srcIndex + t_length,
; 67   :                           m_data.begin() + t_destIndex);
; 68   :             }

  00087	8b e5		 mov	 esp, ebp
  00089	5d		 pop	 ebp
  0008a	c2 0c 00	 ret	 12			; 0000000cH
?CopyElements@Matrix@math@core@@QAEXHHH@Z ENDP		; core::math::Matrix::CopyElements
_TEXT	ENDS
; Function compile flags: /Odtp
; File c:\dev\tetris\src\math\matrix.hpp
;	COMDAT ?SetElements@Matrix@math@core@@QAEXHHH@Z
_TEXT	SEGMENT
$T1 = -20						; size = 4
$T2 = -16						; size = 4
$T3 = -12						; size = 4
$T4 = -8						; size = 4
_this$ = -4						; size = 4
_t_startIndex$ = 8					; size = 4
_t_endIndex$ = 12					; size = 4
_t_value$ = 16						; size = 4
?SetElements@Matrix@math@core@@QAEXHHH@Z PROC		; core::math::Matrix::SetElements, COMDAT
; _this$ = ecx

; 57   :             {

  00000	55		 push	 ebp
  00001	8b ec		 mov	 ebp, esp
  00003	83 ec 14	 sub	 esp, 20			; 00000014H
  00006	89 4d fc	 mov	 DWORD PTR _this$[ebp], ecx

; 58   :                 std::fill(m_data.begin() + t_startIndex,

  00009	8d 45 10	 lea	 eax, DWORD PTR _t_value$[ebp]
  0000c	50		 push	 eax
  0000d	8b 4d 0c	 mov	 ecx, DWORD PTR _t_endIndex$[ebp]
  00010	51		 push	 ecx
  00011	8d 55 f8	 lea	 edx, DWORD PTR $T4[ebp]
  00014	52		 push	 edx
  00015	8d 45 f4	 lea	 eax, DWORD PTR $T3[ebp]
  00018	50		 push	 eax
  00019	8b 4d fc	 mov	 ecx, DWORD PTR _this$[ebp]
  0001c	83 c1 08	 add	 ecx, 8
  0001f	e8 00 00 00 00	 call	 ?begin@?$vector@HV?$allocator@H@std@@@std@@QAE?AV?$_Vector_iterator@V?$_Vector_val@U?$_Simple_types@H@std@@@std@@@2@XZ ; std::vector<int,std::allocator<int> >::begin
  00024	8b c8		 mov	 ecx, eax
  00026	e8 00 00 00 00	 call	 ??H?$_Vector_iterator@V?$_Vector_val@U?$_Simple_types@H@std@@@std@@@std@@QBE?AV01@H@Z ; std::_Vector_iterator<std::_Vector_val<std::_Simple_types<int> > >::operator+
  0002b	8b 08		 mov	 ecx, DWORD PTR [eax]
  0002d	51		 push	 ecx
  0002e	8b 55 08	 mov	 edx, DWORD PTR _t_startIndex$[ebp]
  00031	52		 push	 edx
  00032	8d 45 f0	 lea	 eax, DWORD PTR $T2[ebp]
  00035	50		 push	 eax
  00036	8d 4d ec	 lea	 ecx, DWORD PTR $T1[ebp]
  00039	51		 push	 ecx
  0003a	8b 4d fc	 mov	 ecx, DWORD PTR _this$[ebp]
  0003d	83 c1 08	 add	 ecx, 8
  00040	e8 00 00 00 00	 call	 ?begin@?$vector@HV?$allocator@H@std@@@std@@QAE?AV?$_Vector_iterator@V?$_Vector_val@U?$_Simple_types@H@std@@@std@@@2@XZ ; std::vector<int,std::allocator<int> >::begin
  00045	8b c8		 mov	 ecx, eax
  00047	e8 00 00 00 00	 call	 ??H?$_Vector_iterator@V?$_Vector_val@U?$_Simple_types@H@std@@@std@@@std@@QBE?AV01@H@Z ; std::_Vector_iterator<std::_Vector_val<std::_Simple_types<int> > >::operator+
  0004c	8b 10		 mov	 edx, DWORD PTR [eax]
  0004e	52		 push	 edx
  0004f	e8 00 00 00 00	 call	 ??$fill@V?$_Vector_iterator@V?$_Vector_val@U?$_Simple_types@H@std@@@std@@@std@@H@std@@YAXV?$_Vector_iterator@V?$_Vector_val@U?$_Simple_types@H@std@@@std@@@0@0ABH@Z ; std::fill<std::_Vector_iterator<std::_Vector_val<std::_Simple_types<int> > >,int>
  00054	83 c4 0c	 add	 esp, 12			; 0000000cH

; 59   :                           m_data.begin() + t_endIndex,
; 60   :                           t_value);
; 61   :             }

  00057	8b e5		 mov	 esp, ebp
  00059	5d		 pop	 ebp
  0005a	c2 0c 00	 ret	 12			; 0000000cH
?SetElements@Matrix@math@core@@QAEXHHH@Z ENDP		; core::math::Matrix::SetElements
_TEXT	ENDS
; Function compile flags: /Odtp
; File c:\dev\tetris\src\math\matrix.hpp
;	COMDAT ?Clear@Matrix@math@core@@QAEXXZ
_TEXT	SEGMENT
$T1 = -16						; size = 4
$T2 = -12						; size = 4
$T3 = -8						; size = 4
_this$ = -4						; size = 4
?Clear@Matrix@math@core@@QAEXXZ PROC			; core::math::Matrix::Clear, COMDAT
; _this$ = ecx

; 52   :             {

  00000	55		 push	 ebp
  00001	8b ec		 mov	 ebp, esp
  00003	83 ec 10	 sub	 esp, 16			; 00000010H
  00006	89 4d fc	 mov	 DWORD PTR _this$[ebp], ecx

; 53   :                 std::fill(m_data.begin(), m_data.end(), 0);

  00009	c7 45 f8 00 00
	00 00		 mov	 DWORD PTR $T3[ebp], 0
  00010	8d 45 f8	 lea	 eax, DWORD PTR $T3[ebp]
  00013	50		 push	 eax
  00014	8d 4d f4	 lea	 ecx, DWORD PTR $T2[ebp]
  00017	51		 push	 ecx
  00018	8b 4d fc	 mov	 ecx, DWORD PTR _this$[ebp]
  0001b	83 c1 08	 add	 ecx, 8
  0001e	e8 00 00 00 00	 call	 ?end@?$vector@HV?$allocator@H@std@@@std@@QAE?AV?$_Vector_iterator@V?$_Vector_val@U?$_Simple_types@H@std@@@std@@@2@XZ ; std::vector<int,std::allocator<int> >::end
  00023	8b 10		 mov	 edx, DWORD PTR [eax]
  00025	52		 push	 edx
  00026	8d 45 f0	 lea	 eax, DWORD PTR $T1[ebp]
  00029	50		 push	 eax
  0002a	8b 4d fc	 mov	 ecx, DWORD PTR _this$[ebp]
  0002d	83 c1 08	 add	 ecx, 8
  00030	e8 00 00 00 00	 call	 ?begin@?$vector@HV?$allocator@H@std@@@std@@QAE?AV?$_Vector_iterator@V?$_Vector_val@U?$_Simple_types@H@std@@@std@@@2@XZ ; std::vector<int,std::allocator<int> >::begin
  00035	8b 08		 mov	 ecx, DWORD PTR [eax]
  00037	51		 push	 ecx
  00038	e8 00 00 00 00	 call	 ??$fill@V?$_Vector_iterator@V?$_Vector_val@U?$_Simple_types@H@std@@@std@@@std@@H@std@@YAXV?$_Vector_iterator@V?$_Vector_val@U?$_Simple_types@H@std@@@std@@@0@0ABH@Z ; std::fill<std::_Vector_iterator<std::_Vector_val<std::_Simple_types<int> > >,int>
  0003d	83 c4 0c	 add	 esp, 12			; 0000000cH

; 54   :             }

  00040	8b e5		 mov	 esp, ebp
  00042	5d		 pop	 ebp
  00043	c3		 ret	 0
?Clear@Matrix@math@core@@QAEXXZ ENDP			; core::math::Matrix::Clear
_TEXT	ENDS
; Function compile flags: /Odtp
; File c:\dev\tetris\src\math\matrix.hpp
;	COMDAT ?Resize@Matrix@math@core@@QAEXHH@Z
_TEXT	SEGMENT
_this$ = -4						; size = 4
_rows$ = 8						; size = 4
_cols$ = 12						; size = 4
?Resize@Matrix@math@core@@QAEXHH@Z PROC			; core::math::Matrix::Resize, COMDAT
; _this$ = ecx

; 44   :             {

  00000	55		 push	 ebp
  00001	8b ec		 mov	 ebp, esp
  00003	51		 push	 ecx
  00004	89 4d fc	 mov	 DWORD PTR _this$[ebp], ecx

; 45   :                 m_rows = rows;

  00007	8b 45 fc	 mov	 eax, DWORD PTR _this$[ebp]
  0000a	8b 4d 08	 mov	 ecx, DWORD PTR _rows$[ebp]
  0000d	89 08		 mov	 DWORD PTR [eax], ecx

; 46   :                 m_cols = cols;

  0000f	8b 55 fc	 mov	 edx, DWORD PTR _this$[ebp]
  00012	8b 45 0c	 mov	 eax, DWORD PTR _cols$[ebp]
  00015	89 42 04	 mov	 DWORD PTR [edx+4], eax

; 47   :                 m_data.resize(rows * cols);

  00018	8b 4d 08	 mov	 ecx, DWORD PTR _rows$[ebp]
  0001b	0f af 4d 0c	 imul	 ecx, DWORD PTR _cols$[ebp]
  0001f	51		 push	 ecx
  00020	8b 4d fc	 mov	 ecx, DWORD PTR _this$[ebp]
  00023	83 c1 08	 add	 ecx, 8
  00026	e8 00 00 00 00	 call	 ?resize@?$vector@HV?$allocator@H@std@@@std@@QAEXI@Z ; std::vector<int,std::allocator<int> >::resize

; 48   :                 Clear();

  0002b	8b 4d fc	 mov	 ecx, DWORD PTR _this$[ebp]
  0002e	e8 00 00 00 00	 call	 ?Clear@Matrix@math@core@@QAEXXZ ; core::math::Matrix::Clear

; 49   :             }

  00033	8b e5		 mov	 esp, ebp
  00035	5d		 pop	 ebp
  00036	c2 08 00	 ret	 8
?Resize@Matrix@math@core@@QAEXHH@Z ENDP			; core::math::Matrix::Resize
_TEXT	ENDS
; Function compile flags: /Odtp
; File c:\dev\tetris\src\math\matrix.hpp
;	COMDAT ??0Matrix@math@core@@QAE@XZ
_TEXT	SEGMENT
_this$ = -4						; size = 4
??0Matrix@math@core@@QAE@XZ PROC			; core::math::Matrix::Matrix, COMDAT
; _this$ = ecx

; 22   :             Matrix() {}

  00000	55		 push	 ebp
  00001	8b ec		 mov	 ebp, esp
  00003	51		 push	 ecx
  00004	89 4d fc	 mov	 DWORD PTR _this$[ebp], ecx

; 18   :             std::vector<i32> m_data = std::vector<i32>();

  00007	8b 4d fc	 mov	 ecx, DWORD PTR _this$[ebp]
  0000a	83 c1 08	 add	 ecx, 8
  0000d	e8 00 00 00 00	 call	 ??0?$vector@HV?$allocator@H@std@@@std@@QAE@XZ ; std::vector<int,std::allocator<int> >::vector<int,std::allocator<int> >

; 22   :             Matrix() {}

  00012	8b 45 fc	 mov	 eax, DWORD PTR _this$[ebp]
  00015	8b e5		 mov	 esp, ebp
  00017	5d		 pop	 ebp
  00018	c3		 ret	 0
??0Matrix@math@core@@QAE@XZ ENDP			; core::math::Matrix::Matrix
_TEXT	ENDS
; Function compile flags: /Odtp
; File c:\program files (x86)\microsoft visual studio\2017\community\vc\tools\msvc\14.16.27023\include\vector
;	COMDAT ?_Orphan_range@?$vector@HV?$allocator@H@std@@@std@@ABEXPAH0@Z
_TEXT	SEGMENT
_this$ = -4						; size = 4
___formal$ = 8						; size = 4
___formal$ = 12						; size = 4
?_Orphan_range@?$vector@HV?$allocator@H@std@@@std@@ABEXPAH0@Z PROC ; std::vector<int,std::allocator<int> >::_Orphan_range, COMDAT
; _this$ = ecx

; 1959 : 		{	// orphan iterators within specified (inclusive) range

  00000	55		 push	 ebp
  00001	8b ec		 mov	 ebp, esp
  00003	51		 push	 ecx
  00004	89 4d fc	 mov	 DWORD PTR _this$[ebp], ecx

; 1960 : 		}

  00007	8b e5		 mov	 esp, ebp
  00009	5d		 pop	 ebp
  0000a	c2 08 00	 ret	 8
?_Orphan_range@?$vector@HV?$allocator@H@std@@@std@@ABEXPAH0@Z ENDP ; std::vector<int,std::allocator<int> >::_Orphan_range
_TEXT	ENDS
; Function compile flags: /Odtp
; File c:\program files (x86)\microsoft visual studio\2017\community\vc\tools\msvc\14.16.27023\include\vector
;	COMDAT ?_Xlength@?$vector@HV?$allocator@H@std@@@std@@CAXXZ
_TEXT	SEGMENT
?_Xlength@?$vector@HV?$allocator@H@std@@@std@@CAXXZ PROC ; std::vector<int,std::allocator<int> >::_Xlength, COMDAT

; 1925 : 		{	// report a length_error

  00000	55		 push	 ebp
  00001	8b ec		 mov	 ebp, esp

; 1926 : 		_Xlength_error("vector<T> too long");

  00003	68 00 00 00 00	 push	 OFFSET ??_C@_0BD@OLBABOEK@vector?$DMT?$DO?5too?5long@
  00008	e8 00 00 00 00	 call	 ?_Xlength_error@std@@YAXPBD@Z ; std::_Xlength_error
$LN2@Xlength:

; 1927 : 		}

  0000d	5d		 pop	 ebp
  0000e	c3		 ret	 0
?_Xlength@?$vector@HV?$allocator@H@std@@@std@@CAXXZ ENDP ; std::vector<int,std::allocator<int> >::_Xlength
_TEXT	ENDS
; Function compile flags: /Odtp
; File c:\program files (x86)\microsoft visual studio\2017\community\vc\tools\msvc\14.16.27023\include\vector
;	COMDAT ?_Tidy@?$vector@HV?$allocator@H@std@@@std@@AAEXXZ
_TEXT	SEGMENT
_this$ = -4						; size = 4
?_Tidy@?$vector@HV?$allocator@H@std@@@std@@AAEXXZ PROC	; std::vector<int,std::allocator<int> >::_Tidy, COMDAT
; _this$ = ecx

; 1910 : 		{	// free all storage

  00000	55		 push	 ebp
  00001	8b ec		 mov	 ebp, esp
  00003	51		 push	 ecx
  00004	89 4d fc	 mov	 DWORD PTR _this$[ebp], ecx

; 1911 : 		this->_Orphan_all();

  00007	8b 4d fc	 mov	 ecx, DWORD PTR _this$[ebp]
  0000a	e8 00 00 00 00	 call	 ?_Orphan_all@?$_Vector_alloc@U?$_Vec_base_types@HV?$allocator@H@std@@@std@@@std@@QAEXXZ ; std::_Vector_alloc<std::_Vec_base_types<int,std::allocator<int> > >::_Orphan_all

; 1912 : 
; 1913 : 		if (this->_Myfirst() != pointer())

  0000f	8b 4d fc	 mov	 ecx, DWORD PTR _this$[ebp]
  00012	e8 00 00 00 00	 call	 ?_Myfirst@?$_Vector_alloc@U?$_Vec_base_types@HV?$allocator@H@std@@@std@@@std@@QAEAAPAHXZ ; std::_Vector_alloc<std::_Vec_base_types<int,std::allocator<int> > >::_Myfirst
  00017	83 38 00	 cmp	 DWORD PTR [eax], 0
  0001a	74 6b		 je	 SHORT $LN1@Tidy

; 1914 : 			{	// destroy and deallocate old array
; 1915 : 			_Destroy(this->_Myfirst(), this->_Mylast());

  0001c	8b 4d fc	 mov	 ecx, DWORD PTR _this$[ebp]
  0001f	e8 00 00 00 00	 call	 ?_Mylast@?$_Vector_alloc@U?$_Vec_base_types@HV?$allocator@H@std@@@std@@@std@@QAEAAPAHXZ ; std::_Vector_alloc<std::_Vec_base_types<int,std::allocator<int> > >::_Mylast
  00024	8b 00		 mov	 eax, DWORD PTR [eax]
  00026	50		 push	 eax
  00027	8b 4d fc	 mov	 ecx, DWORD PTR _this$[ebp]
  0002a	e8 00 00 00 00	 call	 ?_Myfirst@?$_Vector_alloc@U?$_Vec_base_types@HV?$allocator@H@std@@@std@@@std@@QAEAAPAHXZ ; std::_Vector_alloc<std::_Vec_base_types<int,std::allocator<int> > >::_Myfirst
  0002f	8b 08		 mov	 ecx, DWORD PTR [eax]
  00031	51		 push	 ecx
  00032	8b 4d fc	 mov	 ecx, DWORD PTR _this$[ebp]
  00035	e8 00 00 00 00	 call	 ?_Destroy@?$vector@HV?$allocator@H@std@@@std@@AAEXPAH0@Z ; std::vector<int,std::allocator<int> >::_Destroy

; 1916 : 			this->_Getal().deallocate(this->_Myfirst(), capacity());

  0003a	8b 4d fc	 mov	 ecx, DWORD PTR _this$[ebp]
  0003d	e8 00 00 00 00	 call	 ?capacity@?$vector@HV?$allocator@H@std@@@std@@QBEIXZ ; std::vector<int,std::allocator<int> >::capacity
  00042	50		 push	 eax
  00043	8b 4d fc	 mov	 ecx, DWORD PTR _this$[ebp]
  00046	e8 00 00 00 00	 call	 ?_Myfirst@?$_Vector_alloc@U?$_Vec_base_types@HV?$allocator@H@std@@@std@@@std@@QAEAAPAHXZ ; std::_Vector_alloc<std::_Vec_base_types<int,std::allocator<int> > >::_Myfirst
  0004b	8b 10		 mov	 edx, DWORD PTR [eax]
  0004d	52		 push	 edx
  0004e	8b 4d fc	 mov	 ecx, DWORD PTR _this$[ebp]
  00051	e8 00 00 00 00	 call	 ?_Getal@?$_Vector_alloc@U?$_Vec_base_types@HV?$allocator@H@std@@@std@@@std@@QAEAAV?$allocator@H@2@XZ ; std::_Vector_alloc<std::_Vec_base_types<int,std::allocator<int> > >::_Getal
  00056	8b c8		 mov	 ecx, eax
  00058	e8 00 00 00 00	 call	 ?deallocate@?$allocator@H@std@@QAEXQAHI@Z ; std::allocator<int>::deallocate

; 1917 : 
; 1918 : 			this->_Myfirst() = pointer();

  0005d	8b 4d fc	 mov	 ecx, DWORD PTR _this$[ebp]
  00060	e8 00 00 00 00	 call	 ?_Myfirst@?$_Vector_alloc@U?$_Vec_base_types@HV?$allocator@H@std@@@std@@@std@@QAEAAPAHXZ ; std::_Vector_alloc<std::_Vec_base_types<int,std::allocator<int> > >::_Myfirst
  00065	c7 00 00 00 00
	00		 mov	 DWORD PTR [eax], 0

; 1919 : 			this->_Mylast() = pointer();

  0006b	8b 4d fc	 mov	 ecx, DWORD PTR _this$[ebp]
  0006e	e8 00 00 00 00	 call	 ?_Mylast@?$_Vector_alloc@U?$_Vec_base_types@HV?$allocator@H@std@@@std@@@std@@QAEAAPAHXZ ; std::_Vector_alloc<std::_Vec_base_types<int,std::allocator<int> > >::_Mylast
  00073	c7 00 00 00 00
	00		 mov	 DWORD PTR [eax], 0

; 1920 : 			this->_Myend() = pointer();

  00079	8b 4d fc	 mov	 ecx, DWORD PTR _this$[ebp]
  0007c	e8 00 00 00 00	 call	 ?_Myend@?$_Vector_alloc@U?$_Vec_base_types@HV?$allocator@H@std@@@std@@@std@@QAEAAPAHXZ ; std::_Vector_alloc<std::_Vec_base_types<int,std::allocator<int> > >::_Myend
  00081	c7 00 00 00 00
	00		 mov	 DWORD PTR [eax], 0
$LN1@Tidy:

; 1921 : 			}
; 1922 : 		}

  00087	8b e5		 mov	 esp, ebp
  00089	5d		 pop	 ebp
  0008a	c3		 ret	 0
?_Tidy@?$vector@HV?$allocator@H@std@@@std@@AAEXXZ ENDP	; std::vector<int,std::allocator<int> >::_Tidy
_TEXT	ENDS
; Function compile flags: /Odtp
; File c:\program files (x86)\microsoft visual studio\2017\community\vc\tools\msvc\14.16.27023\include\vector
;	COMDAT ?_Change_array@?$vector@HV?$allocator@H@std@@@std@@AAEXQAHII@Z
_TEXT	SEGMENT
_this$ = -4						; size = 4
__Newvec$ = 8						; size = 4
__Newsize$ = 12						; size = 4
__Newcapacity$ = 16					; size = 4
?_Change_array@?$vector@HV?$allocator@H@std@@@std@@AAEXQAHII@Z PROC ; std::vector<int,std::allocator<int> >::_Change_array, COMDAT
; _this$ = ecx

; 1895 : 		{	// orphan all iterators, discard old array, acquire new array

  00000	55		 push	 ebp
  00001	8b ec		 mov	 ebp, esp
  00003	51		 push	 ecx
  00004	56		 push	 esi
  00005	89 4d fc	 mov	 DWORD PTR _this$[ebp], ecx

; 1896 : 		this->_Orphan_all();

  00008	8b 4d fc	 mov	 ecx, DWORD PTR _this$[ebp]
  0000b	e8 00 00 00 00	 call	 ?_Orphan_all@?$_Vector_alloc@U?$_Vec_base_types@HV?$allocator@H@std@@@std@@@std@@QAEXXZ ; std::_Vector_alloc<std::_Vec_base_types<int,std::allocator<int> > >::_Orphan_all

; 1897 : 
; 1898 : 		if (this->_Myfirst() != pointer())

  00010	8b 4d fc	 mov	 ecx, DWORD PTR _this$[ebp]
  00013	e8 00 00 00 00	 call	 ?_Myfirst@?$_Vector_alloc@U?$_Vec_base_types@HV?$allocator@H@std@@@std@@@std@@QAEAAPAHXZ ; std::_Vector_alloc<std::_Vec_base_types<int,std::allocator<int> > >::_Myfirst
  00018	83 38 00	 cmp	 DWORD PTR [eax], 0
  0001b	74 41		 je	 SHORT $LN2@Change_arr

; 1899 : 			{	// destroy and deallocate old array
; 1900 : 			_Destroy(this->_Myfirst(), this->_Mylast());

  0001d	8b 4d fc	 mov	 ecx, DWORD PTR _this$[ebp]
  00020	e8 00 00 00 00	 call	 ?_Mylast@?$_Vector_alloc@U?$_Vec_base_types@HV?$allocator@H@std@@@std@@@std@@QAEAAPAHXZ ; std::_Vector_alloc<std::_Vec_base_types<int,std::allocator<int> > >::_Mylast
  00025	8b 00		 mov	 eax, DWORD PTR [eax]
  00027	50		 push	 eax
  00028	8b 4d fc	 mov	 ecx, DWORD PTR _this$[ebp]
  0002b	e8 00 00 00 00	 call	 ?_Myfirst@?$_Vector_alloc@U?$_Vec_base_types@HV?$allocator@H@std@@@std@@@std@@QAEAAPAHXZ ; std::_Vector_alloc<std::_Vec_base_types<int,std::allocator<int> > >::_Myfirst
  00030	8b 08		 mov	 ecx, DWORD PTR [eax]
  00032	51		 push	 ecx
  00033	8b 4d fc	 mov	 ecx, DWORD PTR _this$[ebp]
  00036	e8 00 00 00 00	 call	 ?_Destroy@?$vector@HV?$allocator@H@std@@@std@@AAEXPAH0@Z ; std::vector<int,std::allocator<int> >::_Destroy

; 1901 : 			this->_Getal().deallocate(this->_Myfirst(), capacity());

  0003b	8b 4d fc	 mov	 ecx, DWORD PTR _this$[ebp]
  0003e	e8 00 00 00 00	 call	 ?capacity@?$vector@HV?$allocator@H@std@@@std@@QBEIXZ ; std::vector<int,std::allocator<int> >::capacity
  00043	50		 push	 eax
  00044	8b 4d fc	 mov	 ecx, DWORD PTR _this$[ebp]
  00047	e8 00 00 00 00	 call	 ?_Myfirst@?$_Vector_alloc@U?$_Vec_base_types@HV?$allocator@H@std@@@std@@@std@@QAEAAPAHXZ ; std::_Vector_alloc<std::_Vec_base_types<int,std::allocator<int> > >::_Myfirst
  0004c	8b 10		 mov	 edx, DWORD PTR [eax]
  0004e	52		 push	 edx
  0004f	8b 4d fc	 mov	 ecx, DWORD PTR _this$[ebp]
  00052	e8 00 00 00 00	 call	 ?_Getal@?$_Vector_alloc@U?$_Vec_base_types@HV?$allocator@H@std@@@std@@@std@@QAEAAV?$allocator@H@2@XZ ; std::_Vector_alloc<std::_Vec_base_types<int,std::allocator<int> > >::_Getal
  00057	8b c8		 mov	 ecx, eax
  00059	e8 00 00 00 00	 call	 ?deallocate@?$allocator@H@std@@QAEXQAHI@Z ; std::allocator<int>::deallocate
$LN2@Change_arr:

; 1902 : 			}
; 1903 : 
; 1904 : 		this->_Myfirst() = _Newvec;

  0005e	8b 4d fc	 mov	 ecx, DWORD PTR _this$[ebp]
  00061	e8 00 00 00 00	 call	 ?_Myfirst@?$_Vector_alloc@U?$_Vec_base_types@HV?$allocator@H@std@@@std@@@std@@QAEAAPAHXZ ; std::_Vector_alloc<std::_Vec_base_types<int,std::allocator<int> > >::_Myfirst
  00066	8b 4d 08	 mov	 ecx, DWORD PTR __Newvec$[ebp]
  00069	89 08		 mov	 DWORD PTR [eax], ecx

; 1905 : 		this->_Mylast() = _Newvec + _Newsize;

  0006b	8b 55 0c	 mov	 edx, DWORD PTR __Newsize$[ebp]
  0006e	8b 45 08	 mov	 eax, DWORD PTR __Newvec$[ebp]
  00071	8d 34 90	 lea	 esi, DWORD PTR [eax+edx*4]
  00074	8b 4d fc	 mov	 ecx, DWORD PTR _this$[ebp]
  00077	e8 00 00 00 00	 call	 ?_Mylast@?$_Vector_alloc@U?$_Vec_base_types@HV?$allocator@H@std@@@std@@@std@@QAEAAPAHXZ ; std::_Vector_alloc<std::_Vec_base_types<int,std::allocator<int> > >::_Mylast
  0007c	89 30		 mov	 DWORD PTR [eax], esi

; 1906 : 		this->_Myend() = _Newvec + _Newcapacity;

  0007e	8b 4d 10	 mov	 ecx, DWORD PTR __Newcapacity$[ebp]
  00081	8b 55 08	 mov	 edx, DWORD PTR __Newvec$[ebp]
  00084	8d 34 8a	 lea	 esi, DWORD PTR [edx+ecx*4]
  00087	8b 4d fc	 mov	 ecx, DWORD PTR _this$[ebp]
  0008a	e8 00 00 00 00	 call	 ?_Myend@?$_Vector_alloc@U?$_Vec_base_types@HV?$allocator@H@std@@@std@@@std@@QAEAAPAHXZ ; std::_Vector_alloc<std::_Vec_base_types<int,std::allocator<int> > >::_Myend
  0008f	89 30		 mov	 DWORD PTR [eax], esi

; 1907 : 		}

  00091	5e		 pop	 esi
  00092	8b e5		 mov	 esp, ebp
  00094	5d		 pop	 ebp
  00095	c2 0c 00	 ret	 12			; 0000000cH
?_Change_array@?$vector@HV?$allocator@H@std@@@std@@AAEXQAHII@Z ENDP ; std::vector<int,std::allocator<int> >::_Change_array
_TEXT	ENDS
; Function compile flags: /Odtp
; File c:\program files (x86)\microsoft visual studio\2017\community\vc\tools\msvc\14.16.27023\include\vector
;	COMDAT ?_Calculate_growth@?$vector@HV?$allocator@H@std@@@std@@ABEII@Z
_TEXT	SEGMENT
__Geometric$ = -12					; size = 4
_this$ = -8						; size = 4
__Oldcapacity$ = -4					; size = 4
__Newsize$ = 8						; size = 4
?_Calculate_growth@?$vector@HV?$allocator@H@std@@@std@@ABEII@Z PROC ; std::vector<int,std::allocator<int> >::_Calculate_growth, COMDAT
; _this$ = ecx

; 1853 : 		{	// given _Oldcapacity and _Newsize, calculate geometric growth

  00000	55		 push	 ebp
  00001	8b ec		 mov	 ebp, esp
  00003	83 ec 0c	 sub	 esp, 12			; 0000000cH
  00006	89 4d f8	 mov	 DWORD PTR _this$[ebp], ecx

; 1854 : 		const size_type _Oldcapacity = capacity();

  00009	8b 4d f8	 mov	 ecx, DWORD PTR _this$[ebp]
  0000c	e8 00 00 00 00	 call	 ?capacity@?$vector@HV?$allocator@H@std@@@std@@QBEIXZ ; std::vector<int,std::allocator<int> >::capacity
  00011	89 45 fc	 mov	 DWORD PTR __Oldcapacity$[ebp], eax

; 1855 : 
; 1856 : 		if (_Oldcapacity > max_size() - _Oldcapacity / 2)

  00014	8b 4d f8	 mov	 ecx, DWORD PTR _this$[ebp]
  00017	e8 00 00 00 00	 call	 ?max_size@?$vector@HV?$allocator@H@std@@@std@@QBEIXZ ; std::vector<int,std::allocator<int> >::max_size
  0001c	8b 4d fc	 mov	 ecx, DWORD PTR __Oldcapacity$[ebp]
  0001f	d1 e9		 shr	 ecx, 1
  00021	2b c1		 sub	 eax, ecx
  00023	39 45 fc	 cmp	 DWORD PTR __Oldcapacity$[ebp], eax
  00026	76 05		 jbe	 SHORT $LN2@Calculate_

; 1857 : 			{
; 1858 : 			return (_Newsize);	// geometric growth would overflow

  00028	8b 45 08	 mov	 eax, DWORD PTR __Newsize$[ebp]
  0002b	eb 1b		 jmp	 SHORT $LN1@Calculate_
$LN2@Calculate_:

; 1859 : 			}
; 1860 : 
; 1861 : 		const size_type _Geometric = _Oldcapacity + _Oldcapacity / 2;

  0002d	8b 55 fc	 mov	 edx, DWORD PTR __Oldcapacity$[ebp]
  00030	d1 ea		 shr	 edx, 1
  00032	03 55 fc	 add	 edx, DWORD PTR __Oldcapacity$[ebp]
  00035	89 55 f4	 mov	 DWORD PTR __Geometric$[ebp], edx

; 1862 : 
; 1863 : 		if (_Geometric < _Newsize)

  00038	8b 45 f4	 mov	 eax, DWORD PTR __Geometric$[ebp]
  0003b	3b 45 08	 cmp	 eax, DWORD PTR __Newsize$[ebp]
  0003e	73 05		 jae	 SHORT $LN3@Calculate_

; 1864 : 			{
; 1865 : 			return (_Newsize);	// geometric growth would be insufficient

  00040	8b 45 08	 mov	 eax, DWORD PTR __Newsize$[ebp]
  00043	eb 03		 jmp	 SHORT $LN1@Calculate_
$LN3@Calculate_:

; 1866 : 			}
; 1867 : 
; 1868 : 		return (_Geometric);	// geometric growth is sufficient

  00045	8b 45 f4	 mov	 eax, DWORD PTR __Geometric$[ebp]
$LN1@Calculate_:

; 1869 : 		}

  00048	8b e5		 mov	 esp, ebp
  0004a	5d		 pop	 ebp
  0004b	c2 04 00	 ret	 4
?_Calculate_growth@?$vector@HV?$allocator@H@std@@@std@@ABEII@Z ENDP ; std::vector<int,std::allocator<int> >::_Calculate_growth
_TEXT	ENDS
; Function compile flags: /Odtp
; File c:\program files (x86)\microsoft visual studio\2017\community\vc\tools\msvc\14.16.27023\include\vector
;	COMDAT ?_Destroy@?$vector@HV?$allocator@H@std@@@std@@AAEXPAH0@Z
_TEXT	SEGMENT
_this$ = -4						; size = 4
__First$ = 8						; size = 4
__Last$ = 12						; size = 4
?_Destroy@?$vector@HV?$allocator@H@std@@@std@@AAEXPAH0@Z PROC ; std::vector<int,std::allocator<int> >::_Destroy, COMDAT
; _this$ = ecx

; 1848 : 		{	// destroy [_First, _Last) using allocator

  00000	55		 push	 ebp
  00001	8b ec		 mov	 ebp, esp
  00003	51		 push	 ecx
  00004	89 4d fc	 mov	 DWORD PTR _this$[ebp], ecx

; 1849 : 		_Destroy_range(_First, _Last, this->_Getal());

  00007	8b 4d fc	 mov	 ecx, DWORD PTR _this$[ebp]
  0000a	e8 00 00 00 00	 call	 ?_Getal@?$_Vector_alloc@U?$_Vec_base_types@HV?$allocator@H@std@@@std@@@std@@QAEAAV?$allocator@H@2@XZ ; std::_Vector_alloc<std::_Vec_base_types<int,std::allocator<int> > >::_Getal
  0000f	50		 push	 eax
  00010	8b 45 0c	 mov	 eax, DWORD PTR __Last$[ebp]
  00013	50		 push	 eax
  00014	8b 4d 08	 mov	 ecx, DWORD PTR __First$[ebp]
  00017	51		 push	 ecx
  00018	e8 00 00 00 00	 call	 ??$_Destroy_range@V?$allocator@H@std@@@std@@YAXPAH0AAV?$allocator@H@0@@Z ; std::_Destroy_range<std::allocator<int> >
  0001d	83 c4 0c	 add	 esp, 12			; 0000000cH

; 1850 : 		}

  00020	8b e5		 mov	 esp, ebp
  00022	5d		 pop	 ebp
  00023	c2 08 00	 ret	 8
?_Destroy@?$vector@HV?$allocator@H@std@@@std@@AAEXPAH0@Z ENDP ; std::vector<int,std::allocator<int> >::_Destroy
_TEXT	ENDS
; Function compile flags: /Odtp
; File c:\program files (x86)\microsoft visual studio\2017\community\vc\tools\msvc\14.16.27023\include\vector
;	COMDAT ?_Umove_if_noexcept@?$vector@HV?$allocator@H@std@@@std@@AAEXPAH00@Z
_TEXT	SEGMENT
_this$ = -8						; size = 4
$T1 = -1						; size = 1
__First$ = 8						; size = 4
__Last$ = 12						; size = 4
__Dest$ = 16						; size = 4
?_Umove_if_noexcept@?$vector@HV?$allocator@H@std@@@std@@AAEXPAH00@Z PROC ; std::vector<int,std::allocator<int> >::_Umove_if_noexcept, COMDAT
; _this$ = ecx

; 1842 : 		{	// move_if_noexcept [_First, _Last) to raw _Dest, using allocator

  00000	55		 push	 ebp
  00001	8b ec		 mov	 ebp, esp
  00003	83 ec 08	 sub	 esp, 8
  00006	89 4d f8	 mov	 DWORD PTR _this$[ebp], ecx

; 1843 : 		_Umove_if_noexcept1(_First, _Last, _Dest,

  00009	33 c0		 xor	 eax, eax
  0000b	88 45 ff	 mov	 BYTE PTR $T1[ebp], al
  0000e	0f b6 4d ff	 movzx	 ecx, BYTE PTR $T1[ebp]
  00012	51		 push	 ecx
  00013	8b 55 10	 mov	 edx, DWORD PTR __Dest$[ebp]
  00016	52		 push	 edx
  00017	8b 45 0c	 mov	 eax, DWORD PTR __Last$[ebp]
  0001a	50		 push	 eax
  0001b	8b 4d 08	 mov	 ecx, DWORD PTR __First$[ebp]
  0001e	51		 push	 ecx
  0001f	8b 4d f8	 mov	 ecx, DWORD PTR _this$[ebp]
  00022	e8 00 00 00 00	 call	 ?_Umove_if_noexcept1@?$vector@HV?$allocator@H@std@@@std@@AAEXPAH00U?$integral_constant@_N$00@2@@Z ; std::vector<int,std::allocator<int> >::_Umove_if_noexcept1

; 1844 : 			bool_constant<disjunction_v<is_nothrow_move_constructible<_Ty>, negation<is_copy_constructible<_Ty>>>>{});
; 1845 : 		}

  00027	8b e5		 mov	 esp, ebp
  00029	5d		 pop	 ebp
  0002a	c2 0c 00	 ret	 12			; 0000000cH
?_Umove_if_noexcept@?$vector@HV?$allocator@H@std@@@std@@AAEXPAH00@Z ENDP ; std::vector<int,std::allocator<int> >::_Umove_if_noexcept
_TEXT	ENDS
; Function compile flags: /Odtp
; File c:\program files (x86)\microsoft visual studio\2017\community\vc\tools\msvc\14.16.27023\include\vector
;	COMDAT ?_Umove_if_noexcept1@?$vector@HV?$allocator@H@std@@@std@@AAEXPAH00U?$integral_constant@_N$00@2@@Z
_TEXT	SEGMENT
_this$ = -4						; size = 4
__First$ = 8						; size = 4
__Last$ = 12						; size = 4
__Dest$ = 16						; size = 4
___formal$ = 20						; size = 1
?_Umove_if_noexcept1@?$vector@HV?$allocator@H@std@@@std@@AAEXPAH00U?$integral_constant@_N$00@2@@Z PROC ; std::vector<int,std::allocator<int> >::_Umove_if_noexcept1, COMDAT
; _this$ = ecx

; 1832 : 		{	// move [_First, _Last) to raw _Dest, using allocator

  00000	55		 push	 ebp
  00001	8b ec		 mov	 ebp, esp
  00003	51		 push	 ecx
  00004	89 4d fc	 mov	 DWORD PTR _this$[ebp], ecx

; 1833 : 		_Uninitialized_move(_First, _Last, _Dest, this->_Getal());

  00007	8b 4d fc	 mov	 ecx, DWORD PTR _this$[ebp]
  0000a	e8 00 00 00 00	 call	 ?_Getal@?$_Vector_alloc@U?$_Vec_base_types@HV?$allocator@H@std@@@std@@@std@@QAEAAV?$allocator@H@2@XZ ; std::_Vector_alloc<std::_Vec_base_types<int,std::allocator<int> > >::_Getal
  0000f	50		 push	 eax
  00010	8b 45 10	 mov	 eax, DWORD PTR __Dest$[ebp]
  00013	50		 push	 eax
  00014	8b 4d 0c	 mov	 ecx, DWORD PTR __Last$[ebp]
  00017	51		 push	 ecx
  00018	8b 55 08	 mov	 edx, DWORD PTR __First$[ebp]
  0001b	52		 push	 edx
  0001c	e8 00 00 00 00	 call	 ??$_Uninitialized_move@PAHPAHV?$allocator@H@std@@@std@@YAPAHQAH0PAHAAV?$allocator@H@0@@Z ; std::_Uninitialized_move<int *,int *,std::allocator<int> >
  00021	83 c4 10	 add	 esp, 16			; 00000010H

; 1834 : 		}

  00024	8b e5		 mov	 esp, ebp
  00026	5d		 pop	 ebp
  00027	c2 10 00	 ret	 16			; 00000010H
?_Umove_if_noexcept1@?$vector@HV?$allocator@H@std@@@std@@AAEXPAH00U?$integral_constant@_N$00@2@@Z ENDP ; std::vector<int,std::allocator<int> >::_Umove_if_noexcept1
_TEXT	ENDS
; Function compile flags: /Odtp
; File c:\program files (x86)\microsoft visual studio\2017\community\vc\tools\msvc\14.16.27023\include\vector
;	COMDAT ?_Udefault@?$vector@HV?$allocator@H@std@@@std@@AAEPAHPAHI@Z
_TEXT	SEGMENT
_this$ = -4						; size = 4
__Dest$ = 8						; size = 4
__Count$ = 12						; size = 4
?_Udefault@?$vector@HV?$allocator@H@std@@@std@@AAEPAHPAHI@Z PROC ; std::vector<int,std::allocator<int> >::_Udefault, COMDAT
; _this$ = ecx

; 1811 : 		{	// fill raw _Dest with _Count value-initialized objects, using allocator

  00000	55		 push	 ebp
  00001	8b ec		 mov	 ebp, esp
  00003	51		 push	 ecx
  00004	89 4d fc	 mov	 DWORD PTR _this$[ebp], ecx

; 1812 : 		return (_Uninitialized_value_construct_n(_Dest, _Count, this->_Getal()));

  00007	8b 4d fc	 mov	 ecx, DWORD PTR _this$[ebp]
  0000a	e8 00 00 00 00	 call	 ?_Getal@?$_Vector_alloc@U?$_Vec_base_types@HV?$allocator@H@std@@@std@@@std@@QAEAAV?$allocator@H@2@XZ ; std::_Vector_alloc<std::_Vec_base_types<int,std::allocator<int> > >::_Getal
  0000f	50		 push	 eax
  00010	8b 45 0c	 mov	 eax, DWORD PTR __Count$[ebp]
  00013	50		 push	 eax
  00014	8b 4d 08	 mov	 ecx, DWORD PTR __Dest$[ebp]
  00017	51		 push	 ecx
  00018	e8 00 00 00 00	 call	 ??$_Uninitialized_value_construct_n@PAHIV?$allocator@H@std@@@std@@YAPAHPAHIAAV?$allocator@H@0@@Z ; std::_Uninitialized_value_construct_n<int *,unsigned int,std::allocator<int> >
  0001d	83 c4 0c	 add	 esp, 12			; 0000000cH

; 1813 : 		}

  00020	8b e5		 mov	 esp, ebp
  00022	5d		 pop	 ebp
  00023	c2 08 00	 ret	 8
?_Udefault@?$vector@HV?$allocator@H@std@@@std@@AAEPAHPAHI@Z ENDP ; std::vector<int,std::allocator<int> >::_Udefault
_TEXT	ENDS
; Function compile flags: /Odtp
; File c:\program files (x86)\microsoft visual studio\2017\community\vc\tools\msvc\14.16.27023\include\vector
;	COMDAT ??A?$vector@HV?$allocator@H@std@@@std@@QBEABHI@Z
_TEXT	SEGMENT
_this$ = -4						; size = 4
__Pos$ = 8						; size = 4
??A?$vector@HV?$allocator@H@std@@@std@@QBEABHI@Z PROC	; std::vector<int,std::allocator<int> >::operator[], COMDAT
; _this$ = ecx

; 1740 : 		{	// subscript nonmutable sequence

  00000	55		 push	 ebp
  00001	8b ec		 mov	 ebp, esp
  00003	51		 push	 ecx
  00004	89 4d fc	 mov	 DWORD PTR _this$[ebp], ecx

; 1741 :  #if _ITERATOR_DEBUG_LEVEL != 0
; 1742 : 		_STL_VERIFY(_Pos < size(), "vector subscript out of range");
; 1743 :  #endif /* _ITERATOR_DEBUG_LEVEL != 0 */
; 1744 : 
; 1745 : 		return (this->_Myfirst()[_Pos]);

  00007	8b 4d fc	 mov	 ecx, DWORD PTR _this$[ebp]
  0000a	e8 00 00 00 00	 call	 ?_Myfirst@?$_Vector_alloc@U?$_Vec_base_types@HV?$allocator@H@std@@@std@@@std@@QBEABQAHXZ ; std::_Vector_alloc<std::_Vec_base_types<int,std::allocator<int> > >::_Myfirst
  0000f	8b 00		 mov	 eax, DWORD PTR [eax]
  00011	8b 4d 08	 mov	 ecx, DWORD PTR __Pos$[ebp]
  00014	8d 04 88	 lea	 eax, DWORD PTR [eax+ecx*4]

; 1746 : 		}

  00017	8b e5		 mov	 esp, ebp
  00019	5d		 pop	 ebp
  0001a	c2 04 00	 ret	 4
??A?$vector@HV?$allocator@H@std@@@std@@QBEABHI@Z ENDP	; std::vector<int,std::allocator<int> >::operator[]
_TEXT	ENDS
; Function compile flags: /Odtp
; File c:\program files (x86)\microsoft visual studio\2017\community\vc\tools\msvc\14.16.27023\include\vector
;	COMDAT ?capacity@?$vector@HV?$allocator@H@std@@@std@@QBEIXZ
_TEXT	SEGMENT
_this$ = -4						; size = 4
?capacity@?$vector@HV?$allocator@H@std@@@std@@QBEIXZ PROC ; std::vector<int,std::allocator<int> >::capacity, COMDAT
; _this$ = ecx

; 1714 : 		{	// return current length of allocated storage

  00000	55		 push	 ebp
  00001	8b ec		 mov	 ebp, esp
  00003	51		 push	 ecx
  00004	56		 push	 esi
  00005	89 4d fc	 mov	 DWORD PTR _this$[ebp], ecx

; 1715 : 		return (static_cast<size_type>(this->_Myend() - this->_Myfirst()));

  00008	8b 4d fc	 mov	 ecx, DWORD PTR _this$[ebp]
  0000b	e8 00 00 00 00	 call	 ?_Myend@?$_Vector_alloc@U?$_Vec_base_types@HV?$allocator@H@std@@@std@@@std@@QBEABQAHXZ ; std::_Vector_alloc<std::_Vec_base_types<int,std::allocator<int> > >::_Myend
  00010	8b f0		 mov	 esi, eax
  00012	8b 4d fc	 mov	 ecx, DWORD PTR _this$[ebp]
  00015	e8 00 00 00 00	 call	 ?_Myfirst@?$_Vector_alloc@U?$_Vec_base_types@HV?$allocator@H@std@@@std@@@std@@QBEABQAHXZ ; std::_Vector_alloc<std::_Vec_base_types<int,std::allocator<int> > >::_Myfirst
  0001a	8b 0e		 mov	 ecx, DWORD PTR [esi]
  0001c	2b 08		 sub	 ecx, DWORD PTR [eax]
  0001e	c1 f9 02	 sar	 ecx, 2
  00021	8b c1		 mov	 eax, ecx

; 1716 : 		}

  00023	5e		 pop	 esi
  00024	8b e5		 mov	 esp, ebp
  00026	5d		 pop	 ebp
  00027	c3		 ret	 0
?capacity@?$vector@HV?$allocator@H@std@@@std@@QBEIXZ ENDP ; std::vector<int,std::allocator<int> >::capacity
_TEXT	ENDS
; Function compile flags: /Odtp
; File c:\program files (x86)\microsoft visual studio\2017\community\vc\tools\msvc\14.16.27023\include\vector
;	COMDAT ?max_size@?$vector@HV?$allocator@H@std@@@std@@QBEIXZ
_TEXT	SEGMENT
$T1 = -12						; size = 4
$T2 = -8						; size = 4
_this$ = -4						; size = 4
?max_size@?$vector@HV?$allocator@H@std@@@std@@QBEIXZ PROC ; std::vector<int,std::allocator<int> >::max_size, COMDAT
; _this$ = ecx

; 1708 : 		{	// return maximum possible length of sequence

  00000	55		 push	 ebp
  00001	8b ec		 mov	 ebp, esp
  00003	83 ec 0c	 sub	 esp, 12			; 0000000cH
  00006	89 4d fc	 mov	 DWORD PTR _this$[ebp], ecx

; 1709 : 		return (_Min_value(static_cast<size_type>((numeric_limits<difference_type>::max)()),

  00009	8b 4d fc	 mov	 ecx, DWORD PTR _this$[ebp]
  0000c	e8 00 00 00 00	 call	 ?_Getal@?$_Vector_alloc@U?$_Vec_base_types@HV?$allocator@H@std@@@std@@@std@@QBEABV?$allocator@H@2@XZ ; std::_Vector_alloc<std::_Vec_base_types<int,std::allocator<int> > >::_Getal
  00011	50		 push	 eax
  00012	e8 00 00 00 00	 call	 ?max_size@?$_Default_allocator_traits@V?$allocator@H@std@@@std@@SAIABV?$allocator@H@2@@Z ; std::_Default_allocator_traits<std::allocator<int> >::max_size
  00017	83 c4 04	 add	 esp, 4
  0001a	89 45 f8	 mov	 DWORD PTR $T2[ebp], eax
  0001d	e8 00 00 00 00	 call	 ?max@?$numeric_limits@H@std@@SAHXZ ; std::numeric_limits<int>::max
  00022	89 45 f4	 mov	 DWORD PTR $T1[ebp], eax
  00025	8d 45 f8	 lea	 eax, DWORD PTR $T2[ebp]
  00028	50		 push	 eax
  00029	8d 4d f4	 lea	 ecx, DWORD PTR $T1[ebp]
  0002c	51		 push	 ecx
  0002d	e8 00 00 00 00	 call	 ??$_Min_value@I@std@@YAABIABI0@Z ; std::_Min_value<unsigned int>
  00032	83 c4 08	 add	 esp, 8
  00035	8b 00		 mov	 eax, DWORD PTR [eax]

; 1710 : 			_Alty_traits::max_size(this->_Getal())));
; 1711 : 		}

  00037	8b e5		 mov	 esp, ebp
  00039	5d		 pop	 ebp
  0003a	c3		 ret	 0
?max_size@?$vector@HV?$allocator@H@std@@@std@@QBEIXZ ENDP ; std::vector<int,std::allocator<int> >::max_size
_TEXT	ENDS
; Function compile flags: /Odtp
; File c:\program files (x86)\microsoft visual studio\2017\community\vc\tools\msvc\14.16.27023\include\vector
;	COMDAT ?size@?$vector@HV?$allocator@H@std@@@std@@QBEIXZ
_TEXT	SEGMENT
_this$ = -4						; size = 4
?size@?$vector@HV?$allocator@H@std@@@std@@QBEIXZ PROC	; std::vector<int,std::allocator<int> >::size, COMDAT
; _this$ = ecx

; 1703 : 		{	// return length of sequence

  00000	55		 push	 ebp
  00001	8b ec		 mov	 ebp, esp
  00003	51		 push	 ecx
  00004	56		 push	 esi
  00005	89 4d fc	 mov	 DWORD PTR _this$[ebp], ecx

; 1704 : 		return (static_cast<size_type>(this->_Mylast() - this->_Myfirst()));

  00008	8b 4d fc	 mov	 ecx, DWORD PTR _this$[ebp]
  0000b	e8 00 00 00 00	 call	 ?_Mylast@?$_Vector_alloc@U?$_Vec_base_types@HV?$allocator@H@std@@@std@@@std@@QBEABQAHXZ ; std::_Vector_alloc<std::_Vec_base_types<int,std::allocator<int> > >::_Mylast
  00010	8b f0		 mov	 esi, eax
  00012	8b 4d fc	 mov	 ecx, DWORD PTR _this$[ebp]
  00015	e8 00 00 00 00	 call	 ?_Myfirst@?$_Vector_alloc@U?$_Vec_base_types@HV?$allocator@H@std@@@std@@@std@@QBEABQAHXZ ; std::_Vector_alloc<std::_Vec_base_types<int,std::allocator<int> > >::_Myfirst
  0001a	8b 0e		 mov	 ecx, DWORD PTR [esi]
  0001c	2b 08		 sub	 ecx, DWORD PTR [eax]
  0001e	c1 f9 02	 sar	 ecx, 2
  00021	8b c1		 mov	 eax, ecx

; 1705 : 		}

  00023	5e		 pop	 esi
  00024	8b e5		 mov	 esp, ebp
  00026	5d		 pop	 ebp
  00027	c3		 ret	 0
?size@?$vector@HV?$allocator@H@std@@@std@@QBEIXZ ENDP	; std::vector<int,std::allocator<int> >::size
_TEXT	ENDS
; Function compile flags: /Odtp
; File c:\program files (x86)\microsoft visual studio\2017\community\vc\tools\msvc\14.16.27023\include\vector
;	COMDAT ?end@?$vector@HV?$allocator@H@std@@@std@@QAE?AV?$_Vector_iterator@V?$_Vector_val@U?$_Simple_types@H@std@@@std@@@2@XZ
_TEXT	SEGMENT
_this$ = -16						; size = 4
__$EHRec$ = -12						; size = 12
___$ReturnUdt$ = 8					; size = 4
?end@?$vector@HV?$allocator@H@std@@@std@@QAE?AV?$_Vector_iterator@V?$_Vector_val@U?$_Simple_types@H@std@@@std@@@2@XZ PROC ; std::vector<int,std::allocator<int> >::end, COMDAT
; _this$ = ecx

; 1628 : 		{	// return iterator for end of mutable sequence

  00000	55		 push	 ebp
  00001	8b ec		 mov	 ebp, esp
  00003	6a ff		 push	 -1
  00005	68 00 00 00 00	 push	 __ehhandler$?end@?$vector@HV?$allocator@H@std@@@std@@QAE?AV?$_Vector_iterator@V?$_Vector_val@U?$_Simple_types@H@std@@@std@@@2@XZ
  0000a	64 a1 00 00 00
	00		 mov	 eax, DWORD PTR fs:0
  00010	50		 push	 eax
  00011	51		 push	 ecx
  00012	a1 00 00 00 00	 mov	 eax, DWORD PTR ___security_cookie
  00017	33 c5		 xor	 eax, ebp
  00019	50		 push	 eax
  0001a	8d 45 f4	 lea	 eax, DWORD PTR __$EHRec$[ebp]
  0001d	64 a3 00 00 00
	00		 mov	 DWORD PTR fs:0, eax
  00023	89 4d f0	 mov	 DWORD PTR _this$[ebp], ecx

; 1629 : 		return (iterator(this->_Mylast(), _STD addressof(this->_Get_data())));

  00026	8b 4d f0	 mov	 ecx, DWORD PTR _this$[ebp]
  00029	e8 00 00 00 00	 call	 ?_Get_data@?$_Vector_alloc@U?$_Vec_base_types@HV?$allocator@H@std@@@std@@@std@@QAEAAV?$_Vector_val@U?$_Simple_types@H@std@@@2@XZ ; std::_Vector_alloc<std::_Vec_base_types<int,std::allocator<int> > >::_Get_data
  0002e	50		 push	 eax
  0002f	e8 00 00 00 00	 call	 ??$addressof@V?$_Vector_val@U?$_Simple_types@H@std@@@std@@@std@@YAPAV?$_Vector_val@U?$_Simple_types@H@std@@@0@AAV10@@Z ; std::addressof<std::_Vector_val<std::_Simple_types<int> > >
  00034	83 c4 04	 add	 esp, 4
  00037	50		 push	 eax
  00038	8b 4d f0	 mov	 ecx, DWORD PTR _this$[ebp]
  0003b	e8 00 00 00 00	 call	 ?_Mylast@?$_Vector_alloc@U?$_Vec_base_types@HV?$allocator@H@std@@@std@@@std@@QAEAAPAHXZ ; std::_Vector_alloc<std::_Vec_base_types<int,std::allocator<int> > >::_Mylast
  00040	8b 00		 mov	 eax, DWORD PTR [eax]
  00042	50		 push	 eax
  00043	8b 4d 08	 mov	 ecx, DWORD PTR ___$ReturnUdt$[ebp]
  00046	e8 00 00 00 00	 call	 ??0?$_Vector_iterator@V?$_Vector_val@U?$_Simple_types@H@std@@@std@@@std@@QAE@PAHPBU_Container_base0@1@@Z ; std::_Vector_iterator<std::_Vector_val<std::_Simple_types<int> > >::_Vector_iterator<std::_Vector_val<std::_Simple_types<int> > >
  0004b	8b 45 08	 mov	 eax, DWORD PTR ___$ReturnUdt$[ebp]

; 1630 : 		}

  0004e	8b 4d f4	 mov	 ecx, DWORD PTR __$EHRec$[ebp]
  00051	64 89 0d 00 00
	00 00		 mov	 DWORD PTR fs:0, ecx
  00058	59		 pop	 ecx
  00059	8b e5		 mov	 esp, ebp
  0005b	5d		 pop	 ebp
  0005c	c2 04 00	 ret	 4
_TEXT	ENDS
;	COMDAT text$x
text$x	SEGMENT
__ehhandler$?end@?$vector@HV?$allocator@H@std@@@std@@QAE?AV?$_Vector_iterator@V?$_Vector_val@U?$_Simple_types@H@std@@@std@@@2@XZ:
  00000	8b 54 24 08	 mov	 edx, DWORD PTR [esp+8]
  00004	8d 42 0c	 lea	 eax, DWORD PTR [edx+12]
  00007	8b 4a f8	 mov	 ecx, DWORD PTR [edx-8]
  0000a	33 c8		 xor	 ecx, eax
  0000c	e8 00 00 00 00	 call	 @__security_check_cookie@4
  00011	b8 00 00 00 00	 mov	 eax, OFFSET __ehfuncinfo$?end@?$vector@HV?$allocator@H@std@@@std@@QAE?AV?$_Vector_iterator@V?$_Vector_val@U?$_Simple_types@H@std@@@std@@@2@XZ
  00016	e9 00 00 00 00	 jmp	 ___CxxFrameHandler3
text$x	ENDS
?end@?$vector@HV?$allocator@H@std@@@std@@QAE?AV?$_Vector_iterator@V?$_Vector_val@U?$_Simple_types@H@std@@@std@@@2@XZ ENDP ; std::vector<int,std::allocator<int> >::end
; Function compile flags: /Odtp
; File c:\program files (x86)\microsoft visual studio\2017\community\vc\tools\msvc\14.16.27023\include\vector
;	COMDAT ?begin@?$vector@HV?$allocator@H@std@@@std@@QAE?AV?$_Vector_iterator@V?$_Vector_val@U?$_Simple_types@H@std@@@std@@@2@XZ
_TEXT	SEGMENT
_this$ = -16						; size = 4
__$EHRec$ = -12						; size = 12
___$ReturnUdt$ = 8					; size = 4
?begin@?$vector@HV?$allocator@H@std@@@std@@QAE?AV?$_Vector_iterator@V?$_Vector_val@U?$_Simple_types@H@std@@@std@@@2@XZ PROC ; std::vector<int,std::allocator<int> >::begin, COMDAT
; _this$ = ecx

; 1618 : 		{	// return iterator for beginning of mutable sequence

  00000	55		 push	 ebp
  00001	8b ec		 mov	 ebp, esp
  00003	6a ff		 push	 -1
  00005	68 00 00 00 00	 push	 __ehhandler$?begin@?$vector@HV?$allocator@H@std@@@std@@QAE?AV?$_Vector_iterator@V?$_Vector_val@U?$_Simple_types@H@std@@@std@@@2@XZ
  0000a	64 a1 00 00 00
	00		 mov	 eax, DWORD PTR fs:0
  00010	50		 push	 eax
  00011	51		 push	 ecx
  00012	a1 00 00 00 00	 mov	 eax, DWORD PTR ___security_cookie
  00017	33 c5		 xor	 eax, ebp
  00019	50		 push	 eax
  0001a	8d 45 f4	 lea	 eax, DWORD PTR __$EHRec$[ebp]
  0001d	64 a3 00 00 00
	00		 mov	 DWORD PTR fs:0, eax
  00023	89 4d f0	 mov	 DWORD PTR _this$[ebp], ecx

; 1619 : 		return (iterator(this->_Myfirst(), _STD addressof(this->_Get_data())));

  00026	8b 4d f0	 mov	 ecx, DWORD PTR _this$[ebp]
  00029	e8 00 00 00 00	 call	 ?_Get_data@?$_Vector_alloc@U?$_Vec_base_types@HV?$allocator@H@std@@@std@@@std@@QAEAAV?$_Vector_val@U?$_Simple_types@H@std@@@2@XZ ; std::_Vector_alloc<std::_Vec_base_types<int,std::allocator<int> > >::_Get_data
  0002e	50		 push	 eax
  0002f	e8 00 00 00 00	 call	 ??$addressof@V?$_Vector_val@U?$_Simple_types@H@std@@@std@@@std@@YAPAV?$_Vector_val@U?$_Simple_types@H@std@@@0@AAV10@@Z ; std::addressof<std::_Vector_val<std::_Simple_types<int> > >
  00034	83 c4 04	 add	 esp, 4
  00037	50		 push	 eax
  00038	8b 4d f0	 mov	 ecx, DWORD PTR _this$[ebp]
  0003b	e8 00 00 00 00	 call	 ?_Myfirst@?$_Vector_alloc@U?$_Vec_base_types@HV?$allocator@H@std@@@std@@@std@@QAEAAPAHXZ ; std::_Vector_alloc<std::_Vec_base_types<int,std::allocator<int> > >::_Myfirst
  00040	8b 00		 mov	 eax, DWORD PTR [eax]
  00042	50		 push	 eax
  00043	8b 4d 08	 mov	 ecx, DWORD PTR ___$ReturnUdt$[ebp]
  00046	e8 00 00 00 00	 call	 ??0?$_Vector_iterator@V?$_Vector_val@U?$_Simple_types@H@std@@@std@@@std@@QAE@PAHPBU_Container_base0@1@@Z ; std::_Vector_iterator<std::_Vector_val<std::_Simple_types<int> > >::_Vector_iterator<std::_Vector_val<std::_Simple_types<int> > >
  0004b	8b 45 08	 mov	 eax, DWORD PTR ___$ReturnUdt$[ebp]

; 1620 : 		}

  0004e	8b 4d f4	 mov	 ecx, DWORD PTR __$EHRec$[ebp]
  00051	64 89 0d 00 00
	00 00		 mov	 DWORD PTR fs:0, ecx
  00058	59		 pop	 ecx
  00059	8b e5		 mov	 esp, ebp
  0005b	5d		 pop	 ebp
  0005c	c2 04 00	 ret	 4
_TEXT	ENDS
;	COMDAT text$x
text$x	SEGMENT
__ehhandler$?begin@?$vector@HV?$allocator@H@std@@@std@@QAE?AV?$_Vector_iterator@V?$_Vector_val@U?$_Simple_types@H@std@@@std@@@2@XZ:
  00000	8b 54 24 08	 mov	 edx, DWORD PTR [esp+8]
  00004	8d 42 0c	 lea	 eax, DWORD PTR [edx+12]
  00007	8b 4a f8	 mov	 ecx, DWORD PTR [edx-8]
  0000a	33 c8		 xor	 ecx, eax
  0000c	e8 00 00 00 00	 call	 @__security_check_cookie@4
  00011	b8 00 00 00 00	 mov	 eax, OFFSET __ehfuncinfo$?begin@?$vector@HV?$allocator@H@std@@@std@@QAE?AV?$_Vector_iterator@V?$_Vector_val@U?$_Simple_types@H@std@@@std@@@2@XZ
  00016	e9 00 00 00 00	 jmp	 ___CxxFrameHandler3
text$x	ENDS
?begin@?$vector@HV?$allocator@H@std@@@std@@QAE?AV?$_Vector_iterator@V?$_Vector_val@U?$_Simple_types@H@std@@@std@@@2@XZ ENDP ; std::vector<int,std::allocator<int> >::begin
; Function compile flags: /Odtp
; File c:\program files (x86)\microsoft visual studio\2017\community\vc\tools\msvc\14.16.27023\include\vector
;	COMDAT ?resize@?$vector@HV?$allocator@H@std@@@std@@QAEXI@Z
_TEXT	SEGMENT
__Lambda_default$ = -8					; size = 4
_this$ = -4						; size = 4
__Newsize$ = 8						; size = 4
?resize@?$vector@HV?$allocator@H@std@@@std@@QAEXI@Z PROC ; std::vector<int,std::allocator<int> >::resize, COMDAT
; _this$ = ecx

; 1476 : 		{	// trim or append value-initialized elements, provide strong guarantee

  00000	55		 push	 ebp
  00001	8b ec		 mov	 ebp, esp
  00003	83 ec 08	 sub	 esp, 8
  00006	89 4d fc	 mov	 DWORD PTR _this$[ebp], ecx

; 1477 : 		const auto _Lambda_default = [this](pointer _Dest, const size_type _Count)
; 1478 : 			{
; 1479 : 			return (_Udefault(_Dest, _Count));
; 1480 : 			};

  00009	8b 45 fc	 mov	 eax, DWORD PTR _this$[ebp]
  0000c	50		 push	 eax
  0000d	8d 4d f8	 lea	 ecx, DWORD PTR __Lambda_default$[ebp]
  00010	e8 00 00 00 00	 call	 ??0<lambda_4f2fd6a84b983411848f0e0333d0ea32>@@QAE@QAV?$vector@HV?$allocator@H@std@@@std@@@Z ; <lambda_4f2fd6a84b983411848f0e0333d0ea32>::<lambda_4f2fd6a84b983411848f0e0333d0ea32>

; 1481 : 
; 1482 : 		_Resize(_Newsize, _Lambda_default);

  00015	8b 4d f8	 mov	 ecx, DWORD PTR __Lambda_default$[ebp]
  00018	51		 push	 ecx
  00019	8b 55 08	 mov	 edx, DWORD PTR __Newsize$[ebp]
  0001c	52		 push	 edx
  0001d	8b 4d fc	 mov	 ecx, DWORD PTR _this$[ebp]
  00020	e8 00 00 00 00	 call	 ??$_Resize@V<lambda_4f2fd6a84b983411848f0e0333d0ea32>@@@?$vector@HV?$allocator@H@std@@@std@@AAEXIV<lambda_4f2fd6a84b983411848f0e0333d0ea32>@@@Z ; std::vector<int,std::allocator<int> >::_Resize<<lambda_4f2fd6a84b983411848f0e0333d0ea32> >

; 1483 : 		}

  00025	8b e5		 mov	 esp, ebp
  00027	5d		 pop	 ebp
  00028	c2 04 00	 ret	 4
?resize@?$vector@HV?$allocator@H@std@@@std@@QAEXI@Z ENDP ; std::vector<int,std::allocator<int> >::resize
_TEXT	ENDS
; Function compile flags: /Odtp
; File c:\program files (x86)\microsoft visual studio\2017\community\vc\tools\msvc\14.16.27023\include\vector
;	COMDAT ??1?$vector@HV?$allocator@H@std@@@std@@QAE@XZ
_TEXT	SEGMENT
_this$ = -16						; size = 4
__$EHRec$ = -12						; size = 12
??1?$vector@HV?$allocator@H@std@@@std@@QAE@XZ PROC	; std::vector<int,std::allocator<int> >::~vector<int,std::allocator<int> >, COMDAT
; _this$ = ecx

; 893  : 		{	// destroy the object

  00000	55		 push	 ebp
  00001	8b ec		 mov	 ebp, esp
  00003	6a ff		 push	 -1
  00005	68 00 00 00 00	 push	 __ehhandler$??1?$vector@HV?$allocator@H@std@@@std@@QAE@XZ
  0000a	64 a1 00 00 00
	00		 mov	 eax, DWORD PTR fs:0
  00010	50		 push	 eax
  00011	51		 push	 ecx
  00012	a1 00 00 00 00	 mov	 eax, DWORD PTR ___security_cookie
  00017	33 c5		 xor	 eax, ebp
  00019	50		 push	 eax
  0001a	8d 45 f4	 lea	 eax, DWORD PTR __$EHRec$[ebp]
  0001d	64 a3 00 00 00
	00		 mov	 DWORD PTR fs:0, eax
  00023	89 4d f0	 mov	 DWORD PTR _this$[ebp], ecx

; 894  : 		_Tidy();

  00026	8b 4d f0	 mov	 ecx, DWORD PTR _this$[ebp]
  00029	e8 00 00 00 00	 call	 ?_Tidy@?$vector@HV?$allocator@H@std@@@std@@AAEXXZ ; std::vector<int,std::allocator<int> >::_Tidy

; 895  : 		}

  0002e	8b 4d f4	 mov	 ecx, DWORD PTR __$EHRec$[ebp]
  00031	64 89 0d 00 00
	00 00		 mov	 DWORD PTR fs:0, ecx
  00038	59		 pop	 ecx
  00039	8b e5		 mov	 esp, ebp
  0003b	5d		 pop	 ebp
  0003c	c3		 ret	 0
_TEXT	ENDS
;	COMDAT text$x
text$x	SEGMENT
__ehhandler$??1?$vector@HV?$allocator@H@std@@@std@@QAE@XZ:
  00000	8b 54 24 08	 mov	 edx, DWORD PTR [esp+8]
  00004	8d 42 0c	 lea	 eax, DWORD PTR [edx+12]
  00007	8b 4a f8	 mov	 ecx, DWORD PTR [edx-8]
  0000a	33 c8		 xor	 ecx, eax
  0000c	e8 00 00 00 00	 call	 @__security_check_cookie@4
  00011	b8 00 00 00 00	 mov	 eax, OFFSET __ehfuncinfo$??1?$vector@HV?$allocator@H@std@@@std@@QAE@XZ
  00016	e9 00 00 00 00	 jmp	 ___CxxFrameHandler3
text$x	ENDS
??1?$vector@HV?$allocator@H@std@@@std@@QAE@XZ ENDP	; std::vector<int,std::allocator<int> >::~vector<int,std::allocator<int> >
; Function compile flags: /Odtp
; File c:\program files (x86)\microsoft visual studio\2017\community\vc\tools\msvc\14.16.27023\include\vector
;	COMDAT ??0?$vector@HV?$allocator@H@std@@@std@@QAE@XZ
_TEXT	SEGMENT
_this$ = -16						; size = 4
__$EHRec$ = -12						; size = 12
??0?$vector@HV?$allocator@H@std@@@std@@QAE@XZ PROC	; std::vector<int,std::allocator<int> >::vector<int,std::allocator<int> >, COMDAT
; _this$ = ecx

; 651  : 		{	// construct empty vector

  00000	55		 push	 ebp
  00001	8b ec		 mov	 ebp, esp
  00003	6a ff		 push	 -1
  00005	68 00 00 00 00	 push	 __ehhandler$??0?$vector@HV?$allocator@H@std@@@std@@QAE@XZ
  0000a	64 a1 00 00 00
	00		 mov	 eax, DWORD PTR fs:0
  00010	50		 push	 eax
  00011	51		 push	 ecx
  00012	a1 00 00 00 00	 mov	 eax, DWORD PTR ___security_cookie
  00017	33 c5		 xor	 eax, ebp
  00019	50		 push	 eax
  0001a	8d 45 f4	 lea	 eax, DWORD PTR __$EHRec$[ebp]
  0001d	64 a3 00 00 00
	00		 mov	 DWORD PTR fs:0, eax
  00023	89 4d f0	 mov	 DWORD PTR _this$[ebp], ecx

; 650  : 		: _Mybase()

  00026	8b 4d f0	 mov	 ecx, DWORD PTR _this$[ebp]
  00029	e8 00 00 00 00	 call	 ??0?$_Vector_alloc@U?$_Vec_base_types@HV?$allocator@H@std@@@std@@@std@@QAE@XZ ; std::_Vector_alloc<std::_Vec_base_types<int,std::allocator<int> > >::_Vector_alloc<std::_Vec_base_types<int,std::allocator<int> > >

; 652  : 		}

  0002e	8b 45 f0	 mov	 eax, DWORD PTR _this$[ebp]
  00031	8b 4d f4	 mov	 ecx, DWORD PTR __$EHRec$[ebp]
  00034	64 89 0d 00 00
	00 00		 mov	 DWORD PTR fs:0, ecx
  0003b	59		 pop	 ecx
  0003c	8b e5		 mov	 esp, ebp
  0003e	5d		 pop	 ebp
  0003f	c3		 ret	 0
_TEXT	ENDS
;	COMDAT text$x
text$x	SEGMENT
__ehhandler$??0?$vector@HV?$allocator@H@std@@@std@@QAE@XZ:
  00000	8b 54 24 08	 mov	 edx, DWORD PTR [esp+8]
  00004	8d 42 0c	 lea	 eax, DWORD PTR [edx+12]
  00007	8b 4a f8	 mov	 ecx, DWORD PTR [edx-8]
  0000a	33 c8		 xor	 ecx, eax
  0000c	e8 00 00 00 00	 call	 @__security_check_cookie@4
  00011	b8 00 00 00 00	 mov	 eax, OFFSET __ehfuncinfo$??0?$vector@HV?$allocator@H@std@@@std@@QAE@XZ
  00016	e9 00 00 00 00	 jmp	 ___CxxFrameHandler3
text$x	ENDS
??0?$vector@HV?$allocator@H@std@@@std@@QAE@XZ ENDP	; std::vector<int,std::allocator<int> >::vector<int,std::allocator<int> >
; Function compile flags: /Odtp
; File c:\program files (x86)\microsoft visual studio\2017\community\vc\tools\msvc\14.16.27023\include\xutility
;	COMDAT ?_Get_second@?$_Compressed_pair@V?$allocator@H@std@@V?$_Vector_val@U?$_Simple_types@H@std@@@2@$00@std@@QBEABV?$_Vector_val@U?$_Simple_types@H@std@@@2@XZ
_TEXT	SEGMENT
_this$ = -4						; size = 4
?_Get_second@?$_Compressed_pair@V?$allocator@H@std@@V?$_Vector_val@U?$_Simple_types@H@std@@@2@$00@std@@QBEABV?$_Vector_val@U?$_Simple_types@H@std@@@2@XZ PROC ; std::_Compressed_pair<std::allocator<int>,std::_Vector_val<std::_Simple_types<int> >,1>::_Get_second, COMDAT
; _this$ = ecx

; 306  : 		{	// return const reference to second

  00000	55		 push	 ebp
  00001	8b ec		 mov	 ebp, esp
  00003	51		 push	 ecx
  00004	89 4d fc	 mov	 DWORD PTR _this$[ebp], ecx

; 307  : 		return (_Myval2);

  00007	8b 45 fc	 mov	 eax, DWORD PTR _this$[ebp]

; 308  : 		}

  0000a	8b e5		 mov	 esp, ebp
  0000c	5d		 pop	 ebp
  0000d	c3		 ret	 0
?_Get_second@?$_Compressed_pair@V?$allocator@H@std@@V?$_Vector_val@U?$_Simple_types@H@std@@@2@$00@std@@QBEABV?$_Vector_val@U?$_Simple_types@H@std@@@2@XZ ENDP ; std::_Compressed_pair<std::allocator<int>,std::_Vector_val<std::_Simple_types<int> >,1>::_Get_second
_TEXT	ENDS
; Function compile flags: /Odtp
; File c:\program files (x86)\microsoft visual studio\2017\community\vc\tools\msvc\14.16.27023\include\xutility
;	COMDAT ?_Get_second@?$_Compressed_pair@V?$allocator@H@std@@V?$_Vector_val@U?$_Simple_types@H@std@@@2@$00@std@@QAEAAV?$_Vector_val@U?$_Simple_types@H@std@@@2@XZ
_TEXT	SEGMENT
_this$ = -4						; size = 4
?_Get_second@?$_Compressed_pair@V?$allocator@H@std@@V?$_Vector_val@U?$_Simple_types@H@std@@@2@$00@std@@QAEAAV?$_Vector_val@U?$_Simple_types@H@std@@@2@XZ PROC ; std::_Compressed_pair<std::allocator<int>,std::_Vector_val<std::_Simple_types<int> >,1>::_Get_second, COMDAT
; _this$ = ecx

; 301  : 		{	// return reference to second

  00000	55		 push	 ebp
  00001	8b ec		 mov	 ebp, esp
  00003	51		 push	 ecx
  00004	89 4d fc	 mov	 DWORD PTR _this$[ebp], ecx

; 302  : 		return (_Myval2);

  00007	8b 45 fc	 mov	 eax, DWORD PTR _this$[ebp]

; 303  : 		}

  0000a	8b e5		 mov	 esp, ebp
  0000c	5d		 pop	 ebp
  0000d	c3		 ret	 0
?_Get_second@?$_Compressed_pair@V?$allocator@H@std@@V?$_Vector_val@U?$_Simple_types@H@std@@@2@$00@std@@QAEAAV?$_Vector_val@U?$_Simple_types@H@std@@@2@XZ ENDP ; std::_Compressed_pair<std::allocator<int>,std::_Vector_val<std::_Simple_types<int> >,1>::_Get_second
_TEXT	ENDS
; Function compile flags: /Odtp
; File c:\program files (x86)\microsoft visual studio\2017\community\vc\tools\msvc\14.16.27023\include\xutility
;	COMDAT ?_Get_first@?$_Compressed_pair@V?$allocator@H@std@@V?$_Vector_val@U?$_Simple_types@H@std@@@2@$00@std@@QBEABV?$allocator@H@2@XZ
_TEXT	SEGMENT
_this$ = -4						; size = 4
?_Get_first@?$_Compressed_pair@V?$allocator@H@std@@V?$_Vector_val@U?$_Simple_types@H@std@@@2@$00@std@@QBEABV?$allocator@H@2@XZ PROC ; std::_Compressed_pair<std::allocator<int>,std::_Vector_val<std::_Simple_types<int> >,1>::_Get_first, COMDAT
; _this$ = ecx

; 296  : 		{	// return const reference to first

  00000	55		 push	 ebp
  00001	8b ec		 mov	 ebp, esp
  00003	51		 push	 ecx
  00004	89 4d fc	 mov	 DWORD PTR _this$[ebp], ecx

; 297  : 		return (*this);

  00007	8b 45 fc	 mov	 eax, DWORD PTR _this$[ebp]

; 298  : 		}

  0000a	8b e5		 mov	 esp, ebp
  0000c	5d		 pop	 ebp
  0000d	c3		 ret	 0
?_Get_first@?$_Compressed_pair@V?$allocator@H@std@@V?$_Vector_val@U?$_Simple_types@H@std@@@2@$00@std@@QBEABV?$allocator@H@2@XZ ENDP ; std::_Compressed_pair<std::allocator<int>,std::_Vector_val<std::_Simple_types<int> >,1>::_Get_first
_TEXT	ENDS
; Function compile flags: /Odtp
; File c:\program files (x86)\microsoft visual studio\2017\community\vc\tools\msvc\14.16.27023\include\xutility
;	COMDAT ?_Get_first@?$_Compressed_pair@V?$allocator@H@std@@V?$_Vector_val@U?$_Simple_types@H@std@@@2@$00@std@@QAEAAV?$allocator@H@2@XZ
_TEXT	SEGMENT
_this$ = -4						; size = 4
?_Get_first@?$_Compressed_pair@V?$allocator@H@std@@V?$_Vector_val@U?$_Simple_types@H@std@@@2@$00@std@@QAEAAV?$allocator@H@2@XZ PROC ; std::_Compressed_pair<std::allocator<int>,std::_Vector_val<std::_Simple_types<int> >,1>::_Get_first, COMDAT
; _this$ = ecx

; 291  : 		{	// return reference to first

  00000	55		 push	 ebp
  00001	8b ec		 mov	 ebp, esp
  00003	51		 push	 ecx
  00004	89 4d fc	 mov	 DWORD PTR _this$[ebp], ecx

; 292  : 		return (*this);

  00007	8b 45 fc	 mov	 eax, DWORD PTR _this$[ebp]

; 293  : 		}

  0000a	8b e5		 mov	 esp, ebp
  0000c	5d		 pop	 ebp
  0000d	c3		 ret	 0
?_Get_first@?$_Compressed_pair@V?$allocator@H@std@@V?$_Vector_val@U?$_Simple_types@H@std@@@2@$00@std@@QAEAAV?$allocator@H@2@XZ ENDP ; std::_Compressed_pair<std::allocator<int>,std::_Vector_val<std::_Simple_types<int> >,1>::_Get_first
_TEXT	ENDS
; Function compile flags: /Odtp
; File c:\program files (x86)\microsoft visual studio\2017\community\vc\tools\msvc\14.16.27023\include\vector
;	COMDAT ??0?$_Vector_val@U?$_Simple_types@H@std@@@std@@QAE@XZ
_TEXT	SEGMENT
_this$ = -4						; size = 4
??0?$_Vector_val@U?$_Simple_types@H@std@@@std@@QAE@XZ PROC ; std::_Vector_val<std::_Simple_types<int> >::_Vector_val<std::_Simple_types<int> >, COMDAT
; _this$ = ecx

; 392  : 		{	// initialize values

  00000	55		 push	 ebp
  00001	8b ec		 mov	 ebp, esp
  00003	51		 push	 ecx
  00004	89 4d fc	 mov	 DWORD PTR _this$[ebp], ecx

; 389  : 		: _Myfirst(),

  00007	8b 45 fc	 mov	 eax, DWORD PTR _this$[ebp]
  0000a	c7 00 00 00 00
	00		 mov	 DWORD PTR [eax], 0

; 390  : 		_Mylast(),

  00010	8b 4d fc	 mov	 ecx, DWORD PTR _this$[ebp]
  00013	c7 41 04 00 00
	00 00		 mov	 DWORD PTR [ecx+4], 0

; 391  : 		_Myend()

  0001a	8b 55 fc	 mov	 edx, DWORD PTR _this$[ebp]
  0001d	c7 42 08 00 00
	00 00		 mov	 DWORD PTR [edx+8], 0

; 393  : 		}

  00024	8b 45 fc	 mov	 eax, DWORD PTR _this$[ebp]
  00027	8b e5		 mov	 esp, ebp
  00029	5d		 pop	 ebp
  0002a	c3		 ret	 0
??0?$_Vector_val@U?$_Simple_types@H@std@@@std@@QAE@XZ ENDP ; std::_Vector_val<std::_Simple_types<int> >::_Vector_val<std::_Simple_types<int> >
_TEXT	ENDS
; Function compile flags: /Odtp
; File c:\program files (x86)\microsoft visual studio\2017\community\vc\tools\msvc\14.16.27023\include\vector
;	COMDAT ?_Myend@?$_Vector_alloc@U?$_Vec_base_types@HV?$allocator@H@std@@@std@@@std@@QBEABQAHXZ
_TEXT	SEGMENT
_this$ = -4						; size = 4
?_Myend@?$_Vector_alloc@U?$_Vec_base_types@HV?$allocator@H@std@@@std@@@std@@QBEABQAHXZ PROC ; std::_Vector_alloc<std::_Vec_base_types<int,std::allocator<int> > >::_Myend, COMDAT
; _this$ = ecx

; 600  : 		{	// return const reference to _Myend

  00000	55		 push	 ebp
  00001	8b ec		 mov	 ebp, esp
  00003	51		 push	 ecx
  00004	89 4d fc	 mov	 DWORD PTR _this$[ebp], ecx

; 601  : 		return (_Get_data()._Myend);

  00007	8b 4d fc	 mov	 ecx, DWORD PTR _this$[ebp]
  0000a	e8 00 00 00 00	 call	 ?_Get_data@?$_Vector_alloc@U?$_Vec_base_types@HV?$allocator@H@std@@@std@@@std@@QBEABV?$_Vector_val@U?$_Simple_types@H@std@@@2@XZ ; std::_Vector_alloc<std::_Vec_base_types<int,std::allocator<int> > >::_Get_data
  0000f	83 c0 08	 add	 eax, 8

; 602  : 		}

  00012	8b e5		 mov	 esp, ebp
  00014	5d		 pop	 ebp
  00015	c3		 ret	 0
?_Myend@?$_Vector_alloc@U?$_Vec_base_types@HV?$allocator@H@std@@@std@@@std@@QBEABQAHXZ ENDP ; std::_Vector_alloc<std::_Vec_base_types<int,std::allocator<int> > >::_Myend
_TEXT	ENDS
; Function compile flags: /Odtp
; File c:\program files (x86)\microsoft visual studio\2017\community\vc\tools\msvc\14.16.27023\include\vector
;	COMDAT ?_Myend@?$_Vector_alloc@U?$_Vec_base_types@HV?$allocator@H@std@@@std@@@std@@QAEAAPAHXZ
_TEXT	SEGMENT
_this$ = -4						; size = 4
?_Myend@?$_Vector_alloc@U?$_Vec_base_types@HV?$allocator@H@std@@@std@@@std@@QAEAAPAHXZ PROC ; std::_Vector_alloc<std::_Vec_base_types<int,std::allocator<int> > >::_Myend, COMDAT
; _this$ = ecx

; 595  : 		{	// return reference to _Myend

  00000	55		 push	 ebp
  00001	8b ec		 mov	 ebp, esp
  00003	51		 push	 ecx
  00004	89 4d fc	 mov	 DWORD PTR _this$[ebp], ecx

; 596  : 		return (_Get_data()._Myend);

  00007	8b 4d fc	 mov	 ecx, DWORD PTR _this$[ebp]
  0000a	e8 00 00 00 00	 call	 ?_Get_data@?$_Vector_alloc@U?$_Vec_base_types@HV?$allocator@H@std@@@std@@@std@@QAEAAV?$_Vector_val@U?$_Simple_types@H@std@@@2@XZ ; std::_Vector_alloc<std::_Vec_base_types<int,std::allocator<int> > >::_Get_data
  0000f	83 c0 08	 add	 eax, 8

; 597  : 		}

  00012	8b e5		 mov	 esp, ebp
  00014	5d		 pop	 ebp
  00015	c3		 ret	 0
?_Myend@?$_Vector_alloc@U?$_Vec_base_types@HV?$allocator@H@std@@@std@@@std@@QAEAAPAHXZ ENDP ; std::_Vector_alloc<std::_Vec_base_types<int,std::allocator<int> > >::_Myend
_TEXT	ENDS
; Function compile flags: /Odtp
; File c:\program files (x86)\microsoft visual studio\2017\community\vc\tools\msvc\14.16.27023\include\vector
;	COMDAT ?_Mylast@?$_Vector_alloc@U?$_Vec_base_types@HV?$allocator@H@std@@@std@@@std@@QBEABQAHXZ
_TEXT	SEGMENT
_this$ = -4						; size = 4
?_Mylast@?$_Vector_alloc@U?$_Vec_base_types@HV?$allocator@H@std@@@std@@@std@@QBEABQAHXZ PROC ; std::_Vector_alloc<std::_Vec_base_types<int,std::allocator<int> > >::_Mylast, COMDAT
; _this$ = ecx

; 590  : 		{	// return const reference to _Mylast

  00000	55		 push	 ebp
  00001	8b ec		 mov	 ebp, esp
  00003	51		 push	 ecx
  00004	89 4d fc	 mov	 DWORD PTR _this$[ebp], ecx

; 591  : 		return (_Get_data()._Mylast);

  00007	8b 4d fc	 mov	 ecx, DWORD PTR _this$[ebp]
  0000a	e8 00 00 00 00	 call	 ?_Get_data@?$_Vector_alloc@U?$_Vec_base_types@HV?$allocator@H@std@@@std@@@std@@QBEABV?$_Vector_val@U?$_Simple_types@H@std@@@2@XZ ; std::_Vector_alloc<std::_Vec_base_types<int,std::allocator<int> > >::_Get_data
  0000f	83 c0 04	 add	 eax, 4

; 592  : 		}

  00012	8b e5		 mov	 esp, ebp
  00014	5d		 pop	 ebp
  00015	c3		 ret	 0
?_Mylast@?$_Vector_alloc@U?$_Vec_base_types@HV?$allocator@H@std@@@std@@@std@@QBEABQAHXZ ENDP ; std::_Vector_alloc<std::_Vec_base_types<int,std::allocator<int> > >::_Mylast
_TEXT	ENDS
; Function compile flags: /Odtp
; File c:\program files (x86)\microsoft visual studio\2017\community\vc\tools\msvc\14.16.27023\include\vector
;	COMDAT ?_Mylast@?$_Vector_alloc@U?$_Vec_base_types@HV?$allocator@H@std@@@std@@@std@@QAEAAPAHXZ
_TEXT	SEGMENT
_this$ = -4						; size = 4
?_Mylast@?$_Vector_alloc@U?$_Vec_base_types@HV?$allocator@H@std@@@std@@@std@@QAEAAPAHXZ PROC ; std::_Vector_alloc<std::_Vec_base_types<int,std::allocator<int> > >::_Mylast, COMDAT
; _this$ = ecx

; 585  : 		{	// return reference to _Mylast

  00000	55		 push	 ebp
  00001	8b ec		 mov	 ebp, esp
  00003	51		 push	 ecx
  00004	89 4d fc	 mov	 DWORD PTR _this$[ebp], ecx

; 586  : 		return (_Get_data()._Mylast);

  00007	8b 4d fc	 mov	 ecx, DWORD PTR _this$[ebp]
  0000a	e8 00 00 00 00	 call	 ?_Get_data@?$_Vector_alloc@U?$_Vec_base_types@HV?$allocator@H@std@@@std@@@std@@QAEAAV?$_Vector_val@U?$_Simple_types@H@std@@@2@XZ ; std::_Vector_alloc<std::_Vec_base_types<int,std::allocator<int> > >::_Get_data
  0000f	83 c0 04	 add	 eax, 4

; 587  : 		}

  00012	8b e5		 mov	 esp, ebp
  00014	5d		 pop	 ebp
  00015	c3		 ret	 0
?_Mylast@?$_Vector_alloc@U?$_Vec_base_types@HV?$allocator@H@std@@@std@@@std@@QAEAAPAHXZ ENDP ; std::_Vector_alloc<std::_Vec_base_types<int,std::allocator<int> > >::_Mylast
_TEXT	ENDS
; Function compile flags: /Odtp
; File c:\program files (x86)\microsoft visual studio\2017\community\vc\tools\msvc\14.16.27023\include\vector
;	COMDAT ?_Myfirst@?$_Vector_alloc@U?$_Vec_base_types@HV?$allocator@H@std@@@std@@@std@@QBEABQAHXZ
_TEXT	SEGMENT
_this$ = -4						; size = 4
?_Myfirst@?$_Vector_alloc@U?$_Vec_base_types@HV?$allocator@H@std@@@std@@@std@@QBEABQAHXZ PROC ; std::_Vector_alloc<std::_Vec_base_types<int,std::allocator<int> > >::_Myfirst, COMDAT
; _this$ = ecx

; 580  : 		{	// return const reference to _Myfirst

  00000	55		 push	 ebp
  00001	8b ec		 mov	 ebp, esp
  00003	51		 push	 ecx
  00004	89 4d fc	 mov	 DWORD PTR _this$[ebp], ecx

; 581  : 		return (_Get_data()._Myfirst);

  00007	8b 4d fc	 mov	 ecx, DWORD PTR _this$[ebp]
  0000a	e8 00 00 00 00	 call	 ?_Get_data@?$_Vector_alloc@U?$_Vec_base_types@HV?$allocator@H@std@@@std@@@std@@QBEABV?$_Vector_val@U?$_Simple_types@H@std@@@2@XZ ; std::_Vector_alloc<std::_Vec_base_types<int,std::allocator<int> > >::_Get_data

; 582  : 		}

  0000f	8b e5		 mov	 esp, ebp
  00011	5d		 pop	 ebp
  00012	c3		 ret	 0
?_Myfirst@?$_Vector_alloc@U?$_Vec_base_types@HV?$allocator@H@std@@@std@@@std@@QBEABQAHXZ ENDP ; std::_Vector_alloc<std::_Vec_base_types<int,std::allocator<int> > >::_Myfirst
_TEXT	ENDS
; Function compile flags: /Odtp
; File c:\program files (x86)\microsoft visual studio\2017\community\vc\tools\msvc\14.16.27023\include\vector
;	COMDAT ?_Myfirst@?$_Vector_alloc@U?$_Vec_base_types@HV?$allocator@H@std@@@std@@@std@@QAEAAPAHXZ
_TEXT	SEGMENT
_this$ = -4						; size = 4
?_Myfirst@?$_Vector_alloc@U?$_Vec_base_types@HV?$allocator@H@std@@@std@@@std@@QAEAAPAHXZ PROC ; std::_Vector_alloc<std::_Vec_base_types<int,std::allocator<int> > >::_Myfirst, COMDAT
; _this$ = ecx

; 575  : 		{	// return reference to _Myfirst

  00000	55		 push	 ebp
  00001	8b ec		 mov	 ebp, esp
  00003	51		 push	 ecx
  00004	89 4d fc	 mov	 DWORD PTR _this$[ebp], ecx

; 576  : 		return (_Get_data()._Myfirst);

  00007	8b 4d fc	 mov	 ecx, DWORD PTR _this$[ebp]
  0000a	e8 00 00 00 00	 call	 ?_Get_data@?$_Vector_alloc@U?$_Vec_base_types@HV?$allocator@H@std@@@std@@@std@@QAEAAV?$_Vector_val@U?$_Simple_types@H@std@@@2@XZ ; std::_Vector_alloc<std::_Vec_base_types<int,std::allocator<int> > >::_Get_data

; 577  : 		}

  0000f	8b e5		 mov	 esp, ebp
  00011	5d		 pop	 ebp
  00012	c3		 ret	 0
?_Myfirst@?$_Vector_alloc@U?$_Vec_base_types@HV?$allocator@H@std@@@std@@@std@@QAEAAPAHXZ ENDP ; std::_Vector_alloc<std::_Vec_base_types<int,std::allocator<int> > >::_Myfirst
_TEXT	ENDS
; Function compile flags: /Odtp
; File c:\program files (x86)\microsoft visual studio\2017\community\vc\tools\msvc\14.16.27023\include\vector
;	COMDAT ?_Get_data@?$_Vector_alloc@U?$_Vec_base_types@HV?$allocator@H@std@@@std@@@std@@QBEABV?$_Vector_val@U?$_Simple_types@H@std@@@2@XZ
_TEXT	SEGMENT
_this$ = -4						; size = 4
?_Get_data@?$_Vector_alloc@U?$_Vec_base_types@HV?$allocator@H@std@@@std@@@std@@QBEABV?$_Vector_val@U?$_Simple_types@H@std@@@2@XZ PROC ; std::_Vector_alloc<std::_Vec_base_types<int,std::allocator<int> > >::_Get_data, COMDAT
; _this$ = ecx

; 559  : 		{	// return const reference to _Vector_val

  00000	55		 push	 ebp
  00001	8b ec		 mov	 ebp, esp
  00003	51		 push	 ecx
  00004	89 4d fc	 mov	 DWORD PTR _this$[ebp], ecx

; 560  : 		return (_Mypair._Get_second());

  00007	8b 4d fc	 mov	 ecx, DWORD PTR _this$[ebp]
  0000a	e8 00 00 00 00	 call	 ?_Get_second@?$_Compressed_pair@V?$allocator@H@std@@V?$_Vector_val@U?$_Simple_types@H@std@@@2@$00@std@@QBEABV?$_Vector_val@U?$_Simple_types@H@std@@@2@XZ ; std::_Compressed_pair<std::allocator<int>,std::_Vector_val<std::_Simple_types<int> >,1>::_Get_second

; 561  : 		}

  0000f	8b e5		 mov	 esp, ebp
  00011	5d		 pop	 ebp
  00012	c3		 ret	 0
?_Get_data@?$_Vector_alloc@U?$_Vec_base_types@HV?$allocator@H@std@@@std@@@std@@QBEABV?$_Vector_val@U?$_Simple_types@H@std@@@2@XZ ENDP ; std::_Vector_alloc<std::_Vec_base_types<int,std::allocator<int> > >::_Get_data
_TEXT	ENDS
; Function compile flags: /Odtp
; File c:\program files (x86)\microsoft visual studio\2017\community\vc\tools\msvc\14.16.27023\include\vector
;	COMDAT ?_Get_data@?$_Vector_alloc@U?$_Vec_base_types@HV?$allocator@H@std@@@std@@@std@@QAEAAV?$_Vector_val@U?$_Simple_types@H@std@@@2@XZ
_TEXT	SEGMENT
_this$ = -4						; size = 4
?_Get_data@?$_Vector_alloc@U?$_Vec_base_types@HV?$allocator@H@std@@@std@@@std@@QAEAAV?$_Vector_val@U?$_Simple_types@H@std@@@2@XZ PROC ; std::_Vector_alloc<std::_Vec_base_types<int,std::allocator<int> > >::_Get_data, COMDAT
; _this$ = ecx

; 554  : 		{	// return reference to _Vector_val

  00000	55		 push	 ebp
  00001	8b ec		 mov	 ebp, esp
  00003	51		 push	 ecx
  00004	89 4d fc	 mov	 DWORD PTR _this$[ebp], ecx

; 555  : 		return (_Mypair._Get_second());

  00007	8b 4d fc	 mov	 ecx, DWORD PTR _this$[ebp]
  0000a	e8 00 00 00 00	 call	 ?_Get_second@?$_Compressed_pair@V?$allocator@H@std@@V?$_Vector_val@U?$_Simple_types@H@std@@@2@$00@std@@QAEAAV?$_Vector_val@U?$_Simple_types@H@std@@@2@XZ ; std::_Compressed_pair<std::allocator<int>,std::_Vector_val<std::_Simple_types<int> >,1>::_Get_second

; 556  : 		}

  0000f	8b e5		 mov	 esp, ebp
  00011	5d		 pop	 ebp
  00012	c3		 ret	 0
?_Get_data@?$_Vector_alloc@U?$_Vec_base_types@HV?$allocator@H@std@@@std@@@std@@QAEAAV?$_Vector_val@U?$_Simple_types@H@std@@@2@XZ ENDP ; std::_Vector_alloc<std::_Vec_base_types<int,std::allocator<int> > >::_Get_data
_TEXT	ENDS
; Function compile flags: /Odtp
; File c:\program files (x86)\microsoft visual studio\2017\community\vc\tools\msvc\14.16.27023\include\vector
;	COMDAT ?_Getal@?$_Vector_alloc@U?$_Vec_base_types@HV?$allocator@H@std@@@std@@@std@@QBEABV?$allocator@H@2@XZ
_TEXT	SEGMENT
_this$ = -4						; size = 4
?_Getal@?$_Vector_alloc@U?$_Vec_base_types@HV?$allocator@H@std@@@std@@@std@@QBEABV?$allocator@H@2@XZ PROC ; std::_Vector_alloc<std::_Vec_base_types<int,std::allocator<int> > >::_Getal, COMDAT
; _this$ = ecx

; 549  : 		{	// return const reference to allocator

  00000	55		 push	 ebp
  00001	8b ec		 mov	 ebp, esp
  00003	51		 push	 ecx
  00004	89 4d fc	 mov	 DWORD PTR _this$[ebp], ecx

; 550  : 		return (_Mypair._Get_first());

  00007	8b 4d fc	 mov	 ecx, DWORD PTR _this$[ebp]
  0000a	e8 00 00 00 00	 call	 ?_Get_first@?$_Compressed_pair@V?$allocator@H@std@@V?$_Vector_val@U?$_Simple_types@H@std@@@2@$00@std@@QBEABV?$allocator@H@2@XZ ; std::_Compressed_pair<std::allocator<int>,std::_Vector_val<std::_Simple_types<int> >,1>::_Get_first

; 551  : 		}

  0000f	8b e5		 mov	 esp, ebp
  00011	5d		 pop	 ebp
  00012	c3		 ret	 0
?_Getal@?$_Vector_alloc@U?$_Vec_base_types@HV?$allocator@H@std@@@std@@@std@@QBEABV?$allocator@H@2@XZ ENDP ; std::_Vector_alloc<std::_Vec_base_types<int,std::allocator<int> > >::_Getal
_TEXT	ENDS
; Function compile flags: /Odtp
; File c:\program files (x86)\microsoft visual studio\2017\community\vc\tools\msvc\14.16.27023\include\vector
;	COMDAT ?_Getal@?$_Vector_alloc@U?$_Vec_base_types@HV?$allocator@H@std@@@std@@@std@@QAEAAV?$allocator@H@2@XZ
_TEXT	SEGMENT
_this$ = -4						; size = 4
?_Getal@?$_Vector_alloc@U?$_Vec_base_types@HV?$allocator@H@std@@@std@@@std@@QAEAAV?$allocator@H@2@XZ PROC ; std::_Vector_alloc<std::_Vec_base_types<int,std::allocator<int> > >::_Getal, COMDAT
; _this$ = ecx

; 544  : 		{	// return reference to allocator

  00000	55		 push	 ebp
  00001	8b ec		 mov	 ebp, esp
  00003	51		 push	 ecx
  00004	89 4d fc	 mov	 DWORD PTR _this$[ebp], ecx

; 545  : 		return (_Mypair._Get_first());

  00007	8b 4d fc	 mov	 ecx, DWORD PTR _this$[ebp]
  0000a	e8 00 00 00 00	 call	 ?_Get_first@?$_Compressed_pair@V?$allocator@H@std@@V?$_Vector_val@U?$_Simple_types@H@std@@@2@$00@std@@QAEAAV?$allocator@H@2@XZ ; std::_Compressed_pair<std::allocator<int>,std::_Vector_val<std::_Simple_types<int> >,1>::_Get_first

; 546  : 		}

  0000f	8b e5		 mov	 esp, ebp
  00011	5d		 pop	 ebp
  00012	c3		 ret	 0
?_Getal@?$_Vector_alloc@U?$_Vec_base_types@HV?$allocator@H@std@@@std@@@std@@QAEAAV?$allocator@H@2@XZ ENDP ; std::_Vector_alloc<std::_Vec_base_types<int,std::allocator<int> > >::_Getal
_TEXT	ENDS
; Function compile flags: /Odtp
; File c:\program files (x86)\microsoft visual studio\2017\community\vc\tools\msvc\14.16.27023\include\vector
;	COMDAT ?_Orphan_all@?$_Vector_alloc@U?$_Vec_base_types@HV?$allocator@H@std@@@std@@@std@@QAEXXZ
_TEXT	SEGMENT
_this$ = -4						; size = 4
?_Orphan_all@?$_Vector_alloc@U?$_Vec_base_types@HV?$allocator@H@std@@@std@@@std@@QAEXXZ PROC ; std::_Vector_alloc<std::_Vec_base_types<int,std::allocator<int> > >::_Orphan_all, COMDAT
; _this$ = ecx

; 534  : 		{	// orphan all iterators

  00000	55		 push	 ebp
  00001	8b ec		 mov	 ebp, esp
  00003	51		 push	 ecx
  00004	89 4d fc	 mov	 DWORD PTR _this$[ebp], ecx

; 535  : 		_Get_data()._Orphan_all();

  00007	8b 4d fc	 mov	 ecx, DWORD PTR _this$[ebp]
  0000a	e8 00 00 00 00	 call	 ?_Get_data@?$_Vector_alloc@U?$_Vec_base_types@HV?$allocator@H@std@@@std@@@std@@QAEAAV?$_Vector_val@U?$_Simple_types@H@std@@@2@XZ ; std::_Vector_alloc<std::_Vec_base_types<int,std::allocator<int> > >::_Get_data
  0000f	8b c8		 mov	 ecx, eax
  00011	e8 00 00 00 00	 call	 ?_Orphan_all@_Container_base0@std@@QAEXXZ ; std::_Container_base0::_Orphan_all

; 536  : 		}

  00016	8b e5		 mov	 esp, ebp
  00018	5d		 pop	 ebp
  00019	c3		 ret	 0
?_Orphan_all@?$_Vector_alloc@U?$_Vec_base_types@HV?$allocator@H@std@@@std@@@std@@QAEXXZ ENDP ; std::_Vector_alloc<std::_Vec_base_types<int,std::allocator<int> > >::_Orphan_all
_TEXT	ENDS
; Function compile flags: /Odtp
; File c:\program files (x86)\microsoft visual studio\2017\community\vc\tools\msvc\14.16.27023\include\vector
;	COMDAT ??0?$_Vector_alloc@U?$_Vec_base_types@HV?$allocator@H@std@@@std@@@std@@QAE@XZ
_TEXT	SEGMENT
_this$ = -8						; size = 4
$T1 = -1						; size = 1
??0?$_Vector_alloc@U?$_Vec_base_types@HV?$allocator@H@std@@@std@@@std@@QAE@XZ PROC ; std::_Vector_alloc<std::_Vec_base_types<int,std::allocator<int> > >::_Vector_alloc<std::_Vec_base_types<int,std::allocator<int> > >, COMDAT
; _this$ = ecx

; 422  : 		{	// default construct allocator

  00000	55		 push	 ebp
  00001	8b ec		 mov	 ebp, esp
  00003	83 ec 08	 sub	 esp, 8
  00006	89 4d f8	 mov	 DWORD PTR _this$[ebp], ecx

; 421  : 		: _Mypair(_Zero_then_variadic_args_t())

  00009	0f b6 45 ff	 movzx	 eax, BYTE PTR $T1[ebp]
  0000d	50		 push	 eax
  0000e	8b 4d f8	 mov	 ecx, DWORD PTR _this$[ebp]
  00011	e8 00 00 00 00	 call	 ??$?0$$V@?$_Compressed_pair@V?$allocator@H@std@@V?$_Vector_val@U?$_Simple_types@H@std@@@2@$00@std@@QAE@U_Zero_then_variadic_args_t@1@@Z ; std::_Compressed_pair<std::allocator<int>,std::_Vector_val<std::_Simple_types<int> >,1>::_Compressed_pair<std::allocator<int>,std::_Vector_val<std::_Simple_types<int> >,1><>

; 423  : 		}

  00016	8b 45 f8	 mov	 eax, DWORD PTR _this$[ebp]
  00019	8b e5		 mov	 esp, ebp
  0001b	5d		 pop	 ebp
  0001c	c3		 ret	 0
??0?$_Vector_alloc@U?$_Vec_base_types@HV?$allocator@H@std@@@std@@@std@@QAE@XZ ENDP ; std::_Vector_alloc<std::_Vec_base_types<int,std::allocator<int> > >::_Vector_alloc<std::_Vec_base_types<int,std::allocator<int> > >
_TEXT	ENDS
; Function compile flags: /Odtp
; File c:\program files (x86)\microsoft visual studio\2017\community\vc\tools\msvc\14.16.27023\include\xmemory0
;	COMDAT ?max_size@?$_Default_allocator_traits@V?$allocator@H@std@@@std@@SAIABV?$allocator@H@2@@Z
_TEXT	SEGMENT
___formal$ = 8						; size = 4
?max_size@?$_Default_allocator_traits@V?$allocator@H@std@@@std@@SAIABV?$allocator@H@2@@Z PROC ; std::_Default_allocator_traits<std::allocator<int> >::max_size, COMDAT

; 891  : 		{	// get maximum size

  00000	55		 push	 ebp
  00001	8b ec		 mov	 ebp, esp

; 892  : 		return (static_cast<size_t>(-1) / sizeof(value_type));

  00003	b8 ff ff ff 3f	 mov	 eax, 1073741823		; 3fffffffH

; 893  : 		}

  00008	5d		 pop	 ebp
  00009	c3		 ret	 0
?max_size@?$_Default_allocator_traits@V?$allocator@H@std@@@std@@SAIABV?$allocator@H@2@@Z ENDP ; std::_Default_allocator_traits<std::allocator<int> >::max_size
_TEXT	ENDS
; Function compile flags: /Odtp
; File c:\program files (x86)\microsoft visual studio\2017\community\vc\tools\msvc\14.16.27023\include\xmemory0
;	COMDAT ?allocate@?$allocator@H@std@@QAEPAHI@Z
_TEXT	SEGMENT
_this$ = -4						; size = 4
__Count$ = 8						; size = 4
?allocate@?$allocator@H@std@@QAEPAHI@Z PROC		; std::allocator<int>::allocate, COMDAT
; _this$ = ecx

; 996  : 		{	// allocate array of _Count elements

  00000	55		 push	 ebp
  00001	8b ec		 mov	 ebp, esp
  00003	51		 push	 ecx
  00004	89 4d fc	 mov	 DWORD PTR _this$[ebp], ecx

; 997  : 		return (static_cast<_Ty *>(_Allocate<_New_alignof<_Ty>>(_Get_size_of_n<sizeof(_Ty)>(_Count))));

  00007	8b 45 08	 mov	 eax, DWORD PTR __Count$[ebp]
  0000a	50		 push	 eax
  0000b	e8 00 00 00 00	 call	 ??$_Get_size_of_n@$03@std@@YAII@Z ; std::_Get_size_of_n<4>
  00010	83 c4 04	 add	 esp, 4
  00013	50		 push	 eax
  00014	e8 00 00 00 00	 call	 ??$_Allocate@$07U_Default_allocate_traits@std@@$0A@@std@@YAPAXI@Z ; std::_Allocate<8,std::_Default_allocate_traits,0>
  00019	83 c4 04	 add	 esp, 4

; 998  : 		}

  0001c	8b e5		 mov	 esp, ebp
  0001e	5d		 pop	 ebp
  0001f	c2 04 00	 ret	 4
?allocate@?$allocator@H@std@@QAEPAHI@Z ENDP		; std::allocator<int>::allocate
_TEXT	ENDS
; Function compile flags: /Odtp
; File c:\program files (x86)\microsoft visual studio\2017\community\vc\tools\msvc\14.16.27023\include\xmemory0
;	COMDAT ?deallocate@?$allocator@H@std@@QAEXQAHI@Z
_TEXT	SEGMENT
_this$ = -4						; size = 4
__Ptr$ = 8						; size = 4
__Count$ = 12						; size = 4
?deallocate@?$allocator@H@std@@QAEXQAHI@Z PROC		; std::allocator<int>::deallocate, COMDAT
; _this$ = ecx

; 990  : 		{	// deallocate object at _Ptr

  00000	55		 push	 ebp
  00001	8b ec		 mov	 ebp, esp
  00003	51		 push	 ecx
  00004	89 4d fc	 mov	 DWORD PTR _this$[ebp], ecx

; 991  : 		// no overflow check on the following multiply; we assume _Allocate did that check
; 992  : 		_Deallocate<_New_alignof<_Ty>>(_Ptr, sizeof(_Ty) * _Count);

  00007	8b 45 0c	 mov	 eax, DWORD PTR __Count$[ebp]
  0000a	c1 e0 02	 shl	 eax, 2
  0000d	50		 push	 eax
  0000e	8b 4d 08	 mov	 ecx, DWORD PTR __Ptr$[ebp]
  00011	51		 push	 ecx
  00012	e8 00 00 00 00	 call	 ??$_Deallocate@$07$0A@@std@@YAXPAXI@Z ; std::_Deallocate<8,0>
  00017	83 c4 08	 add	 esp, 8

; 993  : 		}

  0001a	8b e5		 mov	 esp, ebp
  0001c	5d		 pop	 ebp
  0001d	c2 08 00	 ret	 8
?deallocate@?$allocator@H@std@@QAEXQAHI@Z ENDP		; std::allocator<int>::deallocate
_TEXT	ENDS
; Function compile flags: /Odtp
; File c:\program files (x86)\microsoft visual studio\2017\community\vc\tools\msvc\14.16.27023\include\xmemory0
;	COMDAT ??0?$allocator@H@std@@QAE@XZ
_TEXT	SEGMENT
_this$ = -4						; size = 4
??0?$allocator@H@std@@QAE@XZ PROC			; std::allocator<int>::allocator<int>, COMDAT
; _this$ = ecx

; 979  : 	constexpr allocator() noexcept

  00000	55		 push	 ebp
  00001	8b ec		 mov	 ebp, esp
  00003	51		 push	 ecx
  00004	89 4d fc	 mov	 DWORD PTR _this$[ebp], ecx

; 980  : 		{	// construct default allocator (do nothing)
; 981  : 		}

  00007	8b 45 fc	 mov	 eax, DWORD PTR _this$[ebp]
  0000a	8b e5		 mov	 esp, ebp
  0000c	5d		 pop	 ebp
  0000d	c3		 ret	 0
??0?$allocator@H@std@@QAE@XZ ENDP			; std::allocator<int>::allocator<int>
_TEXT	ENDS
; Function compile flags: /Odtp
; File c:\program files (x86)\microsoft visual studio\2017\community\vc\tools\msvc\14.16.27023\include\xmemory0
;	COMDAT ?_Adjust_manually_vector_aligned@std@@YAXAAPAXAAI@Z
_TEXT	SEGMENT
__Min_back_shift$ = -16					; size = 4
__Ptr_user$ = -12					; size = 4
__Ptr_container$ = -8					; size = 4
__Back_shift$ = -4					; size = 4
__Ptr$ = 8						; size = 4
__Bytes$ = 12						; size = 4
?_Adjust_manually_vector_aligned@std@@YAXAAPAXAAI@Z PROC ; std::_Adjust_manually_vector_aligned, COMDAT

; 114  : 	{	// adjust parameters from _Allocate_manually_vector_aligned to pass to operator delete

  00000	55		 push	 ebp
  00001	8b ec		 mov	 ebp, esp
  00003	83 ec 10	 sub	 esp, 16			; 00000010H

; 115  : 	_Bytes += _Non_user_size;

  00006	8b 45 0c	 mov	 eax, DWORD PTR __Bytes$[ebp]
  00009	8b 08		 mov	 ecx, DWORD PTR [eax]
  0000b	83 c1 23	 add	 ecx, 35			; 00000023H
  0000e	8b 55 0c	 mov	 edx, DWORD PTR __Bytes$[ebp]
  00011	89 0a		 mov	 DWORD PTR [edx], ecx

; 116  : 
; 117  : 	const uintptr_t * const _Ptr_user = reinterpret_cast<uintptr_t *>(_Ptr);

  00013	8b 45 08	 mov	 eax, DWORD PTR __Ptr$[ebp]
  00016	8b 08		 mov	 ecx, DWORD PTR [eax]
  00018	89 4d f4	 mov	 DWORD PTR __Ptr_user$[ebp], ecx

; 118  : 	const uintptr_t _Ptr_container = _Ptr_user[-1];

  0001b	ba 04 00 00 00	 mov	 edx, 4
  00020	6b c2 ff	 imul	 eax, edx, -1
  00023	8b 4d f4	 mov	 ecx, DWORD PTR __Ptr_user$[ebp]
  00026	8b 14 01	 mov	 edx, DWORD PTR [ecx+eax]
  00029	89 55 f8	 mov	 DWORD PTR __Ptr_container$[ebp], edx

; 119  : 
; 120  : 	// If the following asserts, it likely means that we are performing
; 121  : 	// an aligned delete on memory coming from an unaligned allocation.
; 122  : 	_STL_ASSERT(_Ptr_user[-2] == _Big_allocation_sentinel, "invalid argument");
; 123  : 
; 124  : 	// Extra paranoia on aligned allocation/deallocation; ensure _Ptr_container is
; 125  : 	// in range [_Min_back_shift, _Non_user_size]
; 126  :   #ifdef _DEBUG
; 127  : 	constexpr uintptr_t _Min_back_shift = 2 * sizeof(void *);
; 128  :   #else /* ^^^ _DEBUG ^^^ // vvv !_DEBUG vvv */
; 129  : 	constexpr uintptr_t _Min_back_shift = sizeof(void *);

  0002c	c7 45 f0 04 00
	00 00		 mov	 DWORD PTR __Min_back_shift$[ebp], 4

; 130  :   #endif /* _DEBUG */
; 131  : 	const uintptr_t _Back_shift = reinterpret_cast<uintptr_t>(_Ptr) - _Ptr_container;

  00033	8b 45 08	 mov	 eax, DWORD PTR __Ptr$[ebp]
  00036	8b 08		 mov	 ecx, DWORD PTR [eax]
  00038	2b 4d f8	 sub	 ecx, DWORD PTR __Ptr_container$[ebp]
  0003b	89 4d fc	 mov	 DWORD PTR __Back_shift$[ebp], ecx
$LN4@Adjust_man:

; 132  : 	_STL_VERIFY(_Back_shift >= _Min_back_shift && _Back_shift <= _Non_user_size, "invalid argument");

  0003e	83 7d fc 04	 cmp	 DWORD PTR __Back_shift$[ebp], 4
  00042	72 08		 jb	 SHORT $LN7@Adjust_man
  00044	83 7d fc 23	 cmp	 DWORD PTR __Back_shift$[ebp], 35 ; 00000023H
  00048	77 02		 ja	 SHORT $LN7@Adjust_man
  0004a	eb 09		 jmp	 SHORT $LN2@Adjust_man
$LN7@Adjust_man:
  0004c	e8 00 00 00 00	 call	 __invalid_parameter_noinfo_noreturn
  00051	33 d2		 xor	 edx, edx
  00053	75 f7		 jne	 SHORT $LN7@Adjust_man
$LN2@Adjust_man:
  00055	33 c0		 xor	 eax, eax
  00057	75 e5		 jne	 SHORT $LN4@Adjust_man

; 133  : 	_Ptr = reinterpret_cast<void *>(_Ptr_container);

  00059	8b 4d 08	 mov	 ecx, DWORD PTR __Ptr$[ebp]
  0005c	8b 55 f8	 mov	 edx, DWORD PTR __Ptr_container$[ebp]
  0005f	89 11		 mov	 DWORD PTR [ecx], edx
$LN10@Adjust_man:

; 134  : 	}

  00061	8b e5		 mov	 esp, ebp
  00063	5d		 pop	 ebp
  00064	c3		 ret	 0
?_Adjust_manually_vector_aligned@std@@YAXAAPAXAAI@Z ENDP ; std::_Adjust_manually_vector_aligned
_TEXT	ENDS
; Function compile flags: /Odtp
; File c:\program files (x86)\microsoft visual studio\2017\community\vc\tools\msvc\14.16.27023\include\xmemory0
;	COMDAT ?_Allocate@_Default_allocate_traits@std@@SAPAXI@Z
_TEXT	SEGMENT
__Bytes$ = 8						; size = 4
?_Allocate@_Default_allocate_traits@std@@SAPAXI@Z PROC	; std::_Default_allocate_traits::_Allocate, COMDAT

; 51   : 		{

  00000	55		 push	 ebp
  00001	8b ec		 mov	 ebp, esp

; 52   : 		return (::operator new(_Bytes));

  00003	8b 45 08	 mov	 eax, DWORD PTR __Bytes$[ebp]
  00006	50		 push	 eax
  00007	e8 00 00 00 00	 call	 ??2@YAPAXI@Z		; operator new
  0000c	83 c4 04	 add	 esp, 4

; 53   : 		}

  0000f	5d		 pop	 ebp
  00010	c3		 ret	 0
?_Allocate@_Default_allocate_traits@std@@SAPAXI@Z ENDP	; std::_Default_allocate_traits::_Allocate
_TEXT	ENDS
; Function compile flags: /Odtp
; File c:\program files (x86)\microsoft visual studio\2017\community\vc\tools\msvc\14.16.27023\include\xutility
;	COMDAT ?_Adopt@_Iterator_base0@std@@QAEXPBX@Z
_TEXT	SEGMENT
_this$ = -4						; size = 4
___formal$ = 8						; size = 4
?_Adopt@_Iterator_base0@std@@QAEXPBX@Z PROC		; std::_Iterator_base0::_Adopt, COMDAT
; _this$ = ecx

; 53   : 		{	// adopt this iterator by parent

  00000	55		 push	 ebp
  00001	8b ec		 mov	 ebp, esp
  00003	51		 push	 ecx
  00004	89 4d fc	 mov	 DWORD PTR _this$[ebp], ecx

; 54   : 		}

  00007	8b e5		 mov	 esp, ebp
  00009	5d		 pop	 ebp
  0000a	c2 04 00	 ret	 4
?_Adopt@_Iterator_base0@std@@QAEXPBX@Z ENDP		; std::_Iterator_base0::_Adopt
_TEXT	ENDS
; Function compile flags: /Odtp
; File c:\program files (x86)\microsoft visual studio\2017\community\vc\tools\msvc\14.16.27023\include\xutility
;	COMDAT ?_Orphan_all@_Container_base0@std@@QAEXXZ
_TEXT	SEGMENT
_this$ = -4						; size = 4
?_Orphan_all@_Container_base0@std@@QAEXXZ PROC		; std::_Container_base0::_Orphan_all, COMDAT
; _this$ = ecx

; 42   : 		{	// orphan all iterators

  00000	55		 push	 ebp
  00001	8b ec		 mov	 ebp, esp
  00003	51		 push	 ecx
  00004	89 4d fc	 mov	 DWORD PTR _this$[ebp], ecx

; 43   : 		}

  00007	8b e5		 mov	 esp, ebp
  00009	5d		 pop	 ebp
  0000a	c3		 ret	 0
?_Orphan_all@_Container_base0@std@@QAEXXZ ENDP		; std::_Container_base0::_Orphan_all
_TEXT	ENDS
; Function compile flags: /Odtp
; File c:\program files (x86)\microsoft visual studio\2017\community\vc\tools\msvc\14.16.27023\include\limits
;	COMDAT ?max@?$numeric_limits@H@std@@SAHXZ
_TEXT	SEGMENT
?max@?$numeric_limits@H@std@@SAHXZ PROC			; std::numeric_limits<int>::max, COMDAT

; 616  : 		{	// return maximum value

  00000	55		 push	 ebp
  00001	8b ec		 mov	 ebp, esp

; 617  : 		return (INT_MAX);

  00003	b8 ff ff ff 7f	 mov	 eax, 2147483647		; 7fffffffH

; 618  : 		}

  00008	5d		 pop	 ebp
  00009	c3		 ret	 0
?max@?$numeric_limits@H@std@@SAHXZ ENDP			; std::numeric_limits<int>::max
_TEXT	ENDS
END
