; Listing generated by Microsoft (R) Optimizing Compiler Version 19.15.26726.0 

	TITLE	C:\Dev\Tetris\src\game.cpp
	.686P
	.XMM
	include listing.inc
	.model	flat

INCLUDELIB LIBCMT
INCLUDELIB OLDNAMES

PUBLIC	??2@YAPAXIPAX@Z					; operator new
PUBLIC	_fabsl
PUBLIC	_frexpl
PUBLIC	___local_stdio_printf_options
PUBLIC	_vsnprintf
PUBLIC	__vsprintf_s_l
PUBLIC	_sprintf_s
PUBLIC	_snprintf
PUBLIC	??0exception@std@@QAE@QBD@Z			; std::exception::exception
PUBLIC	??0exception@std@@QAE@QBDH@Z			; std::exception::exception
PUBLIC	??0exception@std@@QAE@ABV01@@Z			; std::exception::exception
PUBLIC	??1exception@std@@UAE@XZ			; std::exception::~exception
PUBLIC	?what@exception@std@@UBEPBDXZ			; std::exception::what
PUBLIC	??_Gexception@std@@UAEPAXI@Z			; std::exception::`scalar deleting destructor'
PUBLIC	?max@?$numeric_limits@H@std@@SAHXZ		; std::numeric_limits<int>::max
PUBLIC	?length@?$char_traits@D@std@@SAIQBD@Z		; std::char_traits<char>::length
PUBLIC	?copy@?$char_traits@D@std@@SAPADQADQBDI@Z	; std::char_traits<char>::copy
PUBLIC	?move@?$char_traits@D@std@@SAPADQADQBDI@Z	; std::char_traits<char>::move
PUBLIC	?assign@?$char_traits@D@std@@SAPADQADID@Z	; std::char_traits<char>::assign
PUBLIC	?assign@?$char_traits@D@std@@SAXAADABD@Z	; std::char_traits<char>::assign
PUBLIC	?to_int_type@?$char_traits@D@std@@SAHABD@Z	; std::char_traits<char>::to_int_type
PUBLIC	?eq_int_type@?$char_traits@D@std@@SA_NABH0@Z	; std::char_traits<char>::eq_int_type
PUBLIC	?eof@?$char_traits@D@std@@SAHXZ			; std::char_traits<char>::eof
PUBLIC	?_Orphan_all@_Container_base0@std@@QAEXXZ	; std::_Container_base0::_Orphan_all
PUBLIC	?_Adopt@_Iterator_base0@std@@QAEXPBX@Z		; std::_Iterator_base0::_Adopt
PUBLIC	??$_Get_size_of_n@$00@std@@YAII@Z		; std::_Get_size_of_n<1>
PUBLIC	?_Allocate@_Default_allocate_traits@std@@SAPAXI@Z ; std::_Default_allocate_traits::_Allocate
PUBLIC	?_Adjust_manually_vector_aligned@std@@YAXAAPAXAAI@Z ; std::_Adjust_manually_vector_aligned
PUBLIC	??$_Convert_size@I@std@@YAII@Z			; std::_Convert_size<unsigned int>
PUBLIC	??0?$allocator@D@std@@QAE@XZ			; std::allocator<char>::allocator<char>
PUBLIC	?deallocate@?$allocator@D@std@@QAEXQADI@Z	; std::allocator<char>::deallocate
PUBLIC	?allocate@?$allocator@D@std@@QAEPADI@Z		; std::allocator<char>::allocate
PUBLIC	?max_size@?$_Default_allocator_traits@V?$allocator@D@std@@@std@@SAIABV?$allocator@D@2@@Z ; std::_Default_allocator_traits<std::allocator<char> >::max_size
PUBLIC	?select_on_container_copy_construction@?$_Default_allocator_traits@V?$allocator@D@std@@@std@@SA?AV?$allocator@D@2@ABV32@@Z ; std::_Default_allocator_traits<std::allocator<char> >::select_on_container_copy_construction
PUBLIC	??0?$_String_val@U?$_Simple_types@D@std@@@std@@QAE@XZ ; std::_String_val<std::_Simple_types<char> >::_String_val<std::_Simple_types<char> >
PUBLIC	?_Myptr@?$_String_val@U?$_Simple_types@D@std@@@std@@QAEPADXZ ; std::_String_val<std::_Simple_types<char> >::_Myptr
PUBLIC	?_Myptr@?$_String_val@U?$_Simple_types@D@std@@@std@@QBEPBDXZ ; std::_String_val<std::_Simple_types<char> >::_Myptr
PUBLIC	?_Large_string_engaged@?$_String_val@U?$_Simple_types@D@std@@@std@@QBE_NXZ ; std::_String_val<std::_Simple_types<char> >::_Large_string_engaged
PUBLIC	?_Check_offset@?$_String_val@U?$_Simple_types@D@std@@@std@@QBEXI@Z ; std::_String_val<std::_Simple_types<char> >::_Check_offset
PUBLIC	?_Xran@?$_String_val@U?$_Simple_types@D@std@@@std@@SAXXZ ; std::_String_val<std::_Simple_types<char> >::_Xran
PUBLIC	??0_Bxty@?$_String_val@U?$_Simple_types@D@std@@@std@@QAE@XZ ; std::_String_val<std::_Simple_types<char> >::_Bxty::_Bxty
PUBLIC	??1_Bxty@?$_String_val@U?$_Simple_types@D@std@@@std@@QAE@XZ ; std::_String_val<std::_Simple_types<char> >::_Bxty::~_Bxty
PUBLIC	??1?$_String_val@U?$_Simple_types@D@std@@@std@@QAE@XZ ; std::_String_val<std::_Simple_types<char> >::~_String_val<std::_Simple_types<char> >
PUBLIC	??0?$_String_alloc@U?$_String_base_types@DV?$allocator@D@std@@@std@@@std@@QAE@XZ ; std::_String_alloc<std::_String_base_types<char,std::allocator<char> > >::_String_alloc<std::_String_base_types<char,std::allocator<char> > >
PUBLIC	?_Move_alloc@?$_String_alloc@U?$_String_base_types@DV?$allocator@D@std@@@std@@@std@@QAEXAAV?$allocator@D@2@@Z ; std::_String_alloc<std::_String_base_types<char,std::allocator<char> > >::_Move_alloc
PUBLIC	?_Orphan_all@?$_String_alloc@U?$_String_base_types@DV?$allocator@D@std@@@std@@@std@@QAEXXZ ; std::_String_alloc<std::_String_base_types<char,std::allocator<char> > >::_Orphan_all
PUBLIC	?_Getal@?$_String_alloc@U?$_String_base_types@DV?$allocator@D@std@@@std@@@std@@QAEAAV?$allocator@D@2@XZ ; std::_String_alloc<std::_String_base_types<char,std::allocator<char> > >::_Getal
PUBLIC	?_Getal@?$_String_alloc@U?$_String_base_types@DV?$allocator@D@std@@@std@@@std@@QBEABV?$allocator@D@2@XZ ; std::_String_alloc<std::_String_base_types<char,std::allocator<char> > >::_Getal
PUBLIC	?_Get_data@?$_String_alloc@U?$_String_base_types@DV?$allocator@D@std@@@std@@@std@@QAEAAV?$_String_val@U?$_Simple_types@D@std@@@2@XZ ; std::_String_alloc<std::_String_base_types<char,std::allocator<char> > >::_Get_data
PUBLIC	?_Get_data@?$_String_alloc@U?$_String_base_types@DV?$allocator@D@std@@@std@@@std@@QBEABV?$_String_val@U?$_Simple_types@D@std@@@2@XZ ; std::_String_alloc<std::_String_base_types<char,std::allocator<char> > >::_Get_data
PUBLIC	?_Get_first@?$_Compressed_pair@V?$allocator@D@std@@V?$_String_val@U?$_Simple_types@D@std@@@2@$00@std@@QAEAAV?$allocator@D@2@XZ ; std::_Compressed_pair<std::allocator<char>,std::_String_val<std::_Simple_types<char> >,1>::_Get_first
PUBLIC	?_Get_first@?$_Compressed_pair@V?$allocator@D@std@@V?$_String_val@U?$_Simple_types@D@std@@@2@$00@std@@QBEABV?$allocator@D@2@XZ ; std::_Compressed_pair<std::allocator<char>,std::_String_val<std::_Simple_types<char> >,1>::_Get_first
PUBLIC	?_Get_second@?$_Compressed_pair@V?$allocator@D@std@@V?$_String_val@U?$_Simple_types@D@std@@@2@$00@std@@QAEAAV?$_String_val@U?$_Simple_types@D@std@@@2@XZ ; std::_Compressed_pair<std::allocator<char>,std::_String_val<std::_Simple_types<char> >,1>::_Get_second
PUBLIC	?_Get_second@?$_Compressed_pair@V?$allocator@D@std@@V?$_String_val@U?$_Simple_types@D@std@@@2@$00@std@@QBEABV?$_String_val@U?$_Simple_types@D@std@@@2@XZ ; std::_Compressed_pair<std::allocator<char>,std::_String_val<std::_Simple_types<char> >,1>::_Get_second
PUBLIC	??1?$_Compressed_pair@V?$allocator@D@std@@V?$_String_val@U?$_Simple_types@D@std@@@2@$00@std@@QAE@XZ ; std::_Compressed_pair<std::allocator<char>,std::_String_val<std::_Simple_types<char> >,1>::~_Compressed_pair<std::allocator<char>,std::_String_val<std::_Simple_types<char> >,1>
PUBLIC	??1?$_String_alloc@U?$_String_base_types@DV?$allocator@D@std@@@std@@@std@@QAE@XZ ; std::_String_alloc<std::_String_base_types<char,std::allocator<char> > >::~_String_alloc<std::_String_base_types<char,std::allocator<char> > >
PUBLIC	??0?$basic_string@DU?$char_traits@D@std@@V?$allocator@D@2@@std@@QAE@ABV01@@Z ; std::basic_string<char,std::char_traits<char>,std::allocator<char> >::basic_string<char,std::char_traits<char>,std::allocator<char> >
PUBLIC	??0?$basic_string@DU?$char_traits@D@std@@V?$allocator@D@2@@std@@QAE@XZ ; std::basic_string<char,std::char_traits<char>,std::allocator<char> >::basic_string<char,std::char_traits<char>,std::allocator<char> >
PUBLIC	??0?$basic_string@DU?$char_traits@D@std@@V?$allocator@D@2@@std@@QAE@QBD@Z ; std::basic_string<char,std::char_traits<char>,std::allocator<char> >::basic_string<char,std::char_traits<char>,std::allocator<char> >
PUBLIC	??0?$basic_string@DU?$char_traits@D@std@@V?$allocator@D@2@@std@@QAE@ID@Z ; std::basic_string<char,std::char_traits<char>,std::allocator<char> >::basic_string<char,std::char_traits<char>,std::allocator<char> >
PUBLIC	??0?$basic_string@DU?$char_traits@D@std@@V?$allocator@D@2@@std@@QAE@$$QAV01@@Z ; std::basic_string<char,std::char_traits<char>,std::allocator<char> >::basic_string<char,std::char_traits<char>,std::allocator<char> >
PUBLIC	??4?$basic_string@DU?$char_traits@D@std@@V?$allocator@D@2@@std@@QAEAAV01@$$QAV01@@Z ; std::basic_string<char,std::char_traits<char>,std::allocator<char> >::operator=
PUBLIC	?assign@?$basic_string@DU?$char_traits@D@std@@V?$allocator@D@2@@std@@QAEAAV12@$$QAV12@@Z ; std::basic_string<char,std::char_traits<char>,std::allocator<char> >::assign
PUBLIC	?_Assign_rv_contents@?$basic_string@DU?$char_traits@D@std@@V?$allocator@D@2@@std@@QAEX$$QAV12@U?$integral_constant@_N$00@2@@Z ; std::basic_string<char,std::char_traits<char>,std::allocator<char> >::_Assign_rv_contents
PUBLIC	?_Assign_rv_contents_with_alloc_always_equal@?$basic_string@DU?$char_traits@D@std@@V?$allocator@D@2@@std@@QAEX$$QAV12@U?$integral_constant@_N$00@2@@Z ; std::basic_string<char,std::char_traits<char>,std::allocator<char> >::_Assign_rv_contents_with_alloc_always_equal
PUBLIC	?_Construct_lv_contents@?$basic_string@DU?$char_traits@D@std@@V?$allocator@D@2@@std@@QAEXABV12@@Z ; std::basic_string<char,std::char_traits<char>,std::allocator<char> >::_Construct_lv_contents
PUBLIC	??1?$basic_string@DU?$char_traits@D@std@@V?$allocator@D@2@@std@@QAE@XZ ; std::basic_string<char,std::char_traits<char>,std::allocator<char> >::~basic_string<char,std::char_traits<char>,std::allocator<char> >
PUBLIC	?append@?$basic_string@DU?$char_traits@D@std@@V?$allocator@D@2@@std@@QAEAAV12@ABV12@@Z ; std::basic_string<char,std::char_traits<char>,std::allocator<char> >::append
PUBLIC	?append@?$basic_string@DU?$char_traits@D@std@@V?$allocator@D@2@@std@@QAEAAV12@QBDI@Z ; std::basic_string<char,std::char_traits<char>,std::allocator<char> >::append
PUBLIC	?append@?$basic_string@DU?$char_traits@D@std@@V?$allocator@D@2@@std@@QAEAAV12@QBD@Z ; std::basic_string<char,std::char_traits<char>,std::allocator<char> >::append
PUBLIC	?append@?$basic_string@DU?$char_traits@D@std@@V?$allocator@D@2@@std@@QAEAAV12@ID@Z ; std::basic_string<char,std::char_traits<char>,std::allocator<char> >::append
PUBLIC	?assign@?$basic_string@DU?$char_traits@D@std@@V?$allocator@D@2@@std@@QAEAAV12@QBDI@Z ; std::basic_string<char,std::char_traits<char>,std::allocator<char> >::assign
PUBLIC	?assign@?$basic_string@DU?$char_traits@D@std@@V?$allocator@D@2@@std@@QAEAAV12@QBD@Z ; std::basic_string<char,std::char_traits<char>,std::allocator<char> >::assign
PUBLIC	?assign@?$basic_string@DU?$char_traits@D@std@@V?$allocator@D@2@@std@@QAEAAV12@ID@Z ; std::basic_string<char,std::char_traits<char>,std::allocator<char> >::assign
PUBLIC	?insert@?$basic_string@DU?$char_traits@D@std@@V?$allocator@D@2@@std@@QAEAAV12@IID@Z ; std::basic_string<char,std::char_traits<char>,std::allocator<char> >::insert
PUBLIC	??A?$basic_string@DU?$char_traits@D@std@@V?$allocator@D@2@@std@@QAEAADI@Z ; std::basic_string<char,std::char_traits<char>,std::allocator<char> >::operator[]
PUBLIC	??A?$basic_string@DU?$char_traits@D@std@@V?$allocator@D@2@@std@@QBEABDI@Z ; std::basic_string<char,std::char_traits<char>,std::allocator<char> >::operator[]
PUBLIC	?c_str@?$basic_string@DU?$char_traits@D@std@@V?$allocator@D@2@@std@@QBEPBDXZ ; std::basic_string<char,std::char_traits<char>,std::allocator<char> >::c_str
PUBLIC	?size@?$basic_string@DU?$char_traits@D@std@@V?$allocator@D@2@@std@@QBEIXZ ; std::basic_string<char,std::char_traits<char>,std::allocator<char> >::size
PUBLIC	?max_size@?$basic_string@DU?$char_traits@D@std@@V?$allocator@D@2@@std@@QBEIXZ ; std::basic_string<char,std::char_traits<char>,std::allocator<char> >::max_size
PUBLIC	?resize@?$basic_string@DU?$char_traits@D@std@@V?$allocator@D@2@@std@@QAEXID@Z ; std::basic_string<char,std::char_traits<char>,std::allocator<char> >::resize
PUBLIC	?empty@?$basic_string@DU?$char_traits@D@std@@V?$allocator@D@2@@std@@QBE_NXZ ; std::basic_string<char,std::char_traits<char>,std::allocator<char> >::empty
PUBLIC	?_Calculate_growth@?$basic_string@DU?$char_traits@D@std@@V?$allocator@D@2@@std@@QBEII@Z ; std::basic_string<char,std::char_traits<char>,std::allocator<char> >::_Calculate_growth
PUBLIC	?_Eos@?$basic_string@DU?$char_traits@D@std@@V?$allocator@D@2@@std@@QAEXI@Z ; std::basic_string<char,std::char_traits<char>,std::allocator<char> >::_Eos
PUBLIC	?_Tidy_init@?$basic_string@DU?$char_traits@D@std@@V?$allocator@D@2@@std@@QAEXXZ ; std::basic_string<char,std::char_traits<char>,std::allocator<char> >::_Tidy_init
PUBLIC	?_Tidy_deallocate@?$basic_string@DU?$char_traits@D@std@@V?$allocator@D@2@@std@@QAEXXZ ; std::basic_string<char,std::char_traits<char>,std::allocator<char> >::_Tidy_deallocate
PUBLIC	?_Xlen@?$basic_string@DU?$char_traits@D@std@@V?$allocator@D@2@@std@@SAXXZ ; std::basic_string<char,std::char_traits<char>,std::allocator<char> >::_Xlen
PUBLIC	??0runtime_error@std@@QAE@ABV?$basic_string@DU?$char_traits@D@std@@V?$allocator@D@2@@1@@Z ; std::runtime_error::runtime_error
PUBLIC	??0runtime_error@std@@QAE@PBD@Z			; std::runtime_error::runtime_error
PUBLIC	??1runtime_error@std@@UAE@XZ			; std::runtime_error::~runtime_error
PUBLIC	??0runtime_error@std@@QAE@ABV01@@Z		; std::runtime_error::runtime_error
PUBLIC	??_Gruntime_error@std@@UAEPAXI@Z		; std::runtime_error::`scalar deleting destructor'
PUBLIC	??0bad_cast@std@@QAE@XZ				; std::bad_cast::bad_cast
PUBLIC	??1bad_cast@std@@UAE@XZ				; std::bad_cast::~bad_cast
PUBLIC	??_Gbad_cast@std@@UAEPAXI@Z			; std::bad_cast::`scalar deleting destructor'
PUBLIC	??0_Locinfo@std@@QAE@PBD@Z			; std::_Locinfo::_Locinfo
PUBLIC	??1_Locinfo@std@@QAE@XZ				; std::_Locinfo::~_Locinfo
PUBLIC	?_Getctype@_Locinfo@std@@QBE?AU_Ctypevec@@XZ	; std::_Locinfo::_Getctype
PUBLIC	?_Getcvt@_Locinfo@std@@QBE?AU_Cvtvec@@XZ	; std::_Locinfo::_Getcvt
PUBLIC	?_Getlconv@_Locinfo@std@@QBEPBUlconv@@XZ	; std::_Locinfo::_Getlconv
PUBLIC	?_Getfalse@_Locinfo@std@@QBEPBDXZ		; std::_Locinfo::_Getfalse
PUBLIC	?_Gettrue@_Locinfo@std@@QBEPBDXZ		; std::_Locinfo::_Gettrue
PUBLIC	??0?$_Yarn@D@std@@QAE@XZ			; std::_Yarn<char>::_Yarn<char>
PUBLIC	??1?$_Yarn@D@std@@QAE@XZ			; std::_Yarn<char>::~_Yarn<char>
PUBLIC	?c_str@?$_Yarn@D@std@@QBEPBDXZ			; std::_Yarn<char>::c_str
PUBLIC	?_Tidy@?$_Yarn@D@std@@AAEXXZ			; std::_Yarn<char>::_Tidy
PUBLIC	??0?$_Yarn@_W@std@@QAE@XZ			; std::_Yarn<wchar_t>::_Yarn<wchar_t>
PUBLIC	??1?$_Yarn@_W@std@@QAE@XZ			; std::_Yarn<wchar_t>::~_Yarn<wchar_t>
PUBLIC	?_Tidy@?$_Yarn@_W@std@@AAEXXZ			; std::_Yarn<wchar_t>::_Tidy
PUBLIC	??1_Facet_base@std@@UAE@XZ			; std::_Facet_base::~_Facet_base
PUBLIC	??0_Facet_base@std@@QAE@XZ			; std::_Facet_base::_Facet_base
PUBLIC	??_G_Facet_base@std@@UAEPAXI@Z			; std::_Facet_base::`scalar deleting destructor'
PUBLIC	??0id@locale@std@@QAE@I@Z			; std::locale::id::id
PUBLIC	??Bid@locale@std@@QAEIXZ			; std::locale::id::operator unsigned int
PUBLIC	?_Incref@facet@locale@std@@UAEXXZ		; std::locale::facet::_Incref
PUBLIC	?_Decref@facet@locale@std@@UAEPAV_Facet_base@3@XZ ; std::locale::facet::_Decref
PUBLIC	??0facet@locale@std@@IAE@I@Z			; std::locale::facet::facet
PUBLIC	??1facet@locale@std@@MAE@XZ			; std::locale::facet::~facet
PUBLIC	??_Gfacet@locale@std@@MAEPAXI@Z			; std::locale::facet::`scalar deleting destructor'
PUBLIC	??0locale@std@@QAE@ABV01@@Z			; std::locale::locale
PUBLIC	??1locale@std@@QAE@XZ				; std::locale::~locale
PUBLIC	?c_str@locale@std@@QBEPBDXZ			; std::locale::c_str
PUBLIC	?_Getfacet@locale@std@@QBEPBVfacet@12@I@Z	; std::locale::_Getfacet
PUBLIC	??$_Adl_verify_range@PBDPBD@std@@YAXABQBD0@Z	; std::_Adl_verify_range<char const *,char const *>
PUBLIC	??0ctype_base@std@@QAE@I@Z			; std::ctype_base::ctype_base
PUBLIC	??1ctype_base@std@@UAE@XZ			; std::ctype_base::~ctype_base
PUBLIC	??_Gctype_base@std@@UAEPAXI@Z			; std::ctype_base::`scalar deleting destructor'
PUBLIC	?widen@?$ctype@D@std@@QBEPBDPBD0PAD@Z		; std::ctype<char>::widen
PUBLIC	??0?$ctype@D@std@@QAE@ABV_Locinfo@1@I@Z		; std::ctype<char>::ctype<char>
PUBLIC	?_Getcat@?$ctype@D@std@@SAIPAPBVfacet@locale@2@PBV42@@Z ; std::ctype<char>::_Getcat
PUBLIC	??1?$ctype@D@std@@MAE@XZ			; std::ctype<char>::~ctype<char>
PUBLIC	?_Init@?$ctype@D@std@@IAEXABV_Locinfo@2@@Z	; std::ctype<char>::_Init
PUBLIC	?_Tidy@?$ctype@D@std@@IAEXXZ			; std::ctype<char>::_Tidy
PUBLIC	?do_tolower@?$ctype@D@std@@MBEDD@Z		; std::ctype<char>::do_tolower
PUBLIC	?do_tolower@?$ctype@D@std@@MBEPBDPADPBD@Z	; std::ctype<char>::do_tolower
PUBLIC	?do_toupper@?$ctype@D@std@@MBEDD@Z		; std::ctype<char>::do_toupper
PUBLIC	?do_toupper@?$ctype@D@std@@MBEPBDPADPBD@Z	; std::ctype<char>::do_toupper
PUBLIC	?do_widen@?$ctype@D@std@@MBEDD@Z		; std::ctype<char>::do_widen
PUBLIC	?do_widen@?$ctype@D@std@@MBEPBDPBD0PAD@Z	; std::ctype<char>::do_widen
PUBLIC	?do_narrow@?$ctype@D@std@@MBEDDD@Z		; std::ctype<char>::do_narrow
PUBLIC	?do_narrow@?$ctype@D@std@@MBEPBDPBD0DPAD@Z	; std::ctype<char>::do_narrow
PUBLIC	??_G?$ctype@D@std@@MAEPAXI@Z			; std::ctype<char>::`scalar deleting destructor'
PUBLIC	??$use_facet@V?$ctype@D@std@@@std@@YAABV?$ctype@D@0@ABVlocale@0@@Z ; std::use_facet<std::ctype<char> >
PUBLIC	?make_error_code@std@@YA?AVerror_code@1@W4io_errc@1@@Z ; std::make_error_code
PUBLIC	?iostream_category@std@@YAABVerror_category@1@XZ ; std::iostream_category
PUBLIC	??0error_category@std@@QAE@XZ			; std::error_category::error_category
PUBLIC	??1error_category@std@@UAE@XZ			; std::error_category::~error_category
PUBLIC	?default_error_condition@error_category@std@@UBE?AVerror_condition@2@H@Z ; std::error_category::default_error_condition
PUBLIC	?equivalent@error_category@std@@UBE_NHABVerror_condition@2@@Z ; std::error_category::equivalent
PUBLIC	?equivalent@error_category@std@@UBE_NABVerror_code@2@H@Z ; std::error_category::equivalent
PUBLIC	??8error_category@std@@QBE_NABV01@@Z		; std::error_category::operator==
PUBLIC	??0error_code@std@@QAE@HABVerror_category@1@@Z	; std::error_code::error_code
PUBLIC	?value@error_code@std@@QBEHXZ			; std::error_code::value
PUBLIC	?category@error_code@std@@QBEABVerror_category@2@XZ ; std::error_code::category
PUBLIC	?message@error_code@std@@QBE?AV?$basic_string@DU?$char_traits@D@std@@V?$allocator@D@2@@2@XZ ; std::error_code::message
PUBLIC	??0error_condition@std@@QAE@HABVerror_category@1@@Z ; std::error_condition::error_condition
PUBLIC	?value@error_condition@std@@QBEHXZ		; std::error_condition::value
PUBLIC	?category@error_condition@std@@QBEABVerror_category@2@XZ ; std::error_condition::category
PUBLIC	??8std@@YA_NABVerror_condition@0@0@Z		; std::operator==
PUBLIC	?_Makestr@_System_error@std@@CA?AV?$basic_string@DU?$char_traits@D@std@@V?$allocator@D@2@@2@Verror_code@2@V32@@Z ; std::_System_error::_Makestr
PUBLIC	??0_System_error@std@@IAE@Verror_code@1@ABV?$basic_string@DU?$char_traits@D@std@@V?$allocator@D@2@@1@@Z ; std::_System_error::_System_error
PUBLIC	??1_System_error@std@@UAE@XZ			; std::_System_error::~_System_error
PUBLIC	??0_System_error@std@@QAE@ABV01@@Z		; std::_System_error::_System_error
PUBLIC	??_G_System_error@std@@UAEPAXI@Z		; std::_System_error::`scalar deleting destructor'
PUBLIC	??0system_error@std@@QAE@Verror_code@1@PBD@Z	; std::system_error::system_error
PUBLIC	??1system_error@std@@UAE@XZ			; std::system_error::~system_error
PUBLIC	??0system_error@std@@QAE@ABV01@@Z		; std::system_error::system_error
PUBLIC	??_Gsystem_error@std@@UAEPAXI@Z			; std::system_error::`scalar deleting destructor'
PUBLIC	??0_Generic_error_category@std@@QAE@XZ		; std::_Generic_error_category::_Generic_error_category
PUBLIC	?name@_Generic_error_category@std@@UBEPBDXZ	; std::_Generic_error_category::name
PUBLIC	?message@_Generic_error_category@std@@UBE?AV?$basic_string@DU?$char_traits@D@std@@V?$allocator@D@2@@2@H@Z ; std::_Generic_error_category::message
PUBLIC	??1_Generic_error_category@std@@UAE@XZ		; std::_Generic_error_category::~_Generic_error_category
PUBLIC	??_G_Generic_error_category@std@@UAEPAXI@Z	; std::_Generic_error_category::`scalar deleting destructor'
PUBLIC	??0_Iostream_error_category@std@@QAE@XZ		; std::_Iostream_error_category::_Iostream_error_category
PUBLIC	?name@_Iostream_error_category@std@@UBEPBDXZ	; std::_Iostream_error_category::name
PUBLIC	?message@_Iostream_error_category@std@@UBE?AV?$basic_string@DU?$char_traits@D@std@@V?$allocator@D@2@@2@H@Z ; std::_Iostream_error_category::message
PUBLIC	??1_Iostream_error_category@std@@UAE@XZ		; std::_Iostream_error_category::~_Iostream_error_category
PUBLIC	??_G_Iostream_error_category@std@@UAEPAXI@Z	; std::_Iostream_error_category::`scalar deleting destructor'
PUBLIC	??$_Immortalize@V_Iostream_error_category@std@@@std@@YAAAV_Iostream_error_category@0@XZ ; std::_Immortalize<std::_Iostream_error_category>
PUBLIC	??0failure@ios_base@std@@QAE@PBDABVerror_code@2@@Z ; std::ios_base::failure::failure
PUBLIC	??1failure@ios_base@std@@UAE@XZ			; std::ios_base::failure::~failure
PUBLIC	??0failure@ios_base@std@@QAE@ABV012@@Z		; std::ios_base::failure::failure
PUBLIC	??_Gfailure@ios_base@std@@UAEPAXI@Z		; std::ios_base::failure::`scalar deleting destructor'
PUBLIC	?clear@ios_base@std@@QAEXH_N@Z			; std::ios_base::clear
PUBLIC	?rdstate@ios_base@std@@QBEHXZ			; std::ios_base::rdstate
PUBLIC	?good@ios_base@std@@QBE_NXZ			; std::ios_base::good
PUBLIC	?flags@ios_base@std@@QBEHXZ			; std::ios_base::flags
PUBLIC	?precision@ios_base@std@@QBE_JXZ		; std::ios_base::precision
PUBLIC	?width@ios_base@std@@QBE_JXZ			; std::ios_base::width
PUBLIC	?width@ios_base@std@@QAE_J_J@Z			; std::ios_base::width
PUBLIC	?getloc@ios_base@std@@QBE?AVlocale@2@XZ		; std::ios_base::getloc
PUBLIC	??0Color@core@@QAE@ABV01@@Z			; core::Color::Color
PUBLIC	??0Color@core@@QAE@EEEE@Z			; core::Color::Color
PUBLIC	?SetRenderer@Graphics@graphics@core@@QAEXPAUSDL_Renderer@@@Z ; core::graphics::Graphics::SetRenderer
PUBLIC	?_Get_data@?$_Vector_alloc@U?$_Vec_base_types@HV?$allocator@H@std@@@std@@@std@@QAEAAV?$_Vector_val@U?$_Simple_types@H@std@@@2@XZ ; std::_Vector_alloc<std::_Vec_base_types<int,std::allocator<int> > >::_Get_data
PUBLIC	?_Myfirst@?$_Vector_alloc@U?$_Vec_base_types@HV?$allocator@H@std@@@std@@@std@@QAEAAPAHXZ ; std::_Vector_alloc<std::_Vec_base_types<int,std::allocator<int> > >::_Myfirst
PUBLIC	?_Mylast@?$_Vector_alloc@U?$_Vec_base_types@HV?$allocator@H@std@@@std@@@std@@QAEAAPAHXZ ; std::_Vector_alloc<std::_Vec_base_types<int,std::allocator<int> > >::_Mylast
PUBLIC	?_Get_second@?$_Compressed_pair@V?$allocator@H@std@@V?$_Vector_val@U?$_Simple_types@H@std@@@2@$00@std@@QAEAAV?$_Vector_val@U?$_Simple_types@H@std@@@2@XZ ; std::_Compressed_pair<std::allocator<int>,std::_Vector_val<std::_Simple_types<int> >,1>::_Get_second
PUBLIC	?begin@?$vector@HV?$allocator@H@std@@@std@@QAE?AV?$_Vector_iterator@V?$_Vector_val@U?$_Simple_types@H@std@@@std@@@2@XZ ; std::vector<int,std::allocator<int> >::begin
PUBLIC	?end@?$vector@HV?$allocator@H@std@@@std@@QAE?AV?$_Vector_iterator@V?$_Vector_val@U?$_Simple_types@H@std@@@std@@@2@XZ ; std::vector<int,std::allocator<int> >::end
PUBLIC	?Clear@Matrix@math@core@@QAEXXZ			; core::math::Matrix::Clear
PUBLIC	??0?$_Vector_const_iterator@V?$_Vector_val@U?$_Simple_types@H@std@@@std@@@std@@QAE@PAHPBU_Container_base0@1@@Z ; std::_Vector_const_iterator<std::_Vector_val<std::_Simple_types<int> > >::_Vector_const_iterator<std::_Vector_val<std::_Simple_types<int> > >
PUBLIC	??0?$_Vector_iterator@V?$_Vector_val@U?$_Simple_types@H@std@@@std@@@std@@QAE@PAHPBU_Container_base0@1@@Z ; std::_Vector_iterator<std::_Vector_val<std::_Simple_types<int> > >::_Vector_iterator<std::_Vector_val<std::_Simple_types<int> > >
PUBLIC	?_Unwrapped@?$_Vector_iterator@V?$_Vector_val@U?$_Simple_types@H@std@@@std@@@std@@QBEPAHXZ ; std::_Vector_iterator<std::_Vector_val<std::_Simple_types<int> > >::_Unwrapped
PUBLIC	??$fill@V?$_Vector_iterator@V?$_Vector_val@U?$_Simple_types@H@std@@@std@@@std@@H@std@@YAXV?$_Vector_iterator@V?$_Vector_val@U?$_Simple_types@H@std@@@std@@@0@0ABH@Z ; std::fill<std::_Vector_iterator<std::_Vector_val<std::_Simple_types<int> > >,int>
PUBLIC	??0Stats@gameplay@core@@QAE@XZ			; core::gameplay::Stats::Stats
PUBLIC	?GetLines@Stats@gameplay@core@@QAEPA_NXZ	; core::gameplay::Stats::GetLines
PUBLIC	?GetPendingLineCount@Stats@gameplay@core@@QAEHXZ ; core::gameplay::Stats::GetPendingLineCount
PUBLIC	?GetStartLevel@Stats@gameplay@core@@QAEHXZ	; core::gameplay::Stats::GetStartLevel
PUBLIC	?GetLevel@Stats@gameplay@core@@QAEHXZ		; core::gameplay::Stats::GetLevel
PUBLIC	?GetLineCount@Stats@gameplay@core@@QAEHXZ	; core::gameplay::Stats::GetLineCount
PUBLIC	?GetPoints@Stats@gameplay@core@@QAEHXZ		; core::gameplay::Stats::GetPoints
PUBLIC	?SetStartLevel@Stats@gameplay@core@@QAEXH@Z	; core::gameplay::Stats::SetStartLevel
PUBLIC	?SetLevel@Stats@gameplay@core@@QAEXH@Z		; core::gameplay::Stats::SetLevel
PUBLIC	?SetLineCount@Stats@gameplay@core@@QAEXH@Z	; core::gameplay::Stats::SetLineCount
PUBLIC	?SetPoints@Stats@gameplay@core@@QAEXH@Z		; core::gameplay::Stats::SetPoints
PUBLIC	?Clear@Board@gameplay@core@@QAEXXZ		; core::gameplay::Board::Clear
PUBLIC	??0Piece@gameplay@core@@QAE@PAVBoard@12@PAUGameTime@@PAVStats@12@HHHH@Z ; core::gameplay::Piece::Piece
PUBLIC	?GetRowOffset@Piece@gameplay@core@@QBEHXZ	; core::gameplay::Piece::GetRowOffset
PUBLIC	?GetColOffset@Piece@gameplay@core@@QBEHXZ	; core::gameplay::Piece::GetColOffset
PUBLIC	?GetRotation@Piece@gameplay@core@@QBEHXZ	; core::gameplay::Piece::GetRotation
PUBLIC	?SetRowOffset@Piece@gameplay@core@@QAEXH@Z	; core::gameplay::Piece::SetRowOffset
PUBLIC	?SetColOffset@Piece@gameplay@core@@QAEXH@Z	; core::gameplay::Piece::SetColOffset
PUBLIC	?SetRotation@Piece@gameplay@core@@QAEXH@Z	; core::gameplay::Piece::SetRotation
PUBLIC	?UpdateGameStart@Game@core@@AAEXXZ		; core::Game::UpdateGameStart
PUBLIC	?UpdateGamePlay@Game@core@@AAEXXZ		; core::Game::UpdateGamePlay
PUBLIC	?UpdateGameLine@Game@core@@AAEXXZ		; core::Game::UpdateGameLine
PUBLIC	?UpdateGameOver@Game@core@@AAEXXZ		; core::Game::UpdateGameOver
PUBLIC	?RenderGameStart@Game@core@@AAEXHH@Z		; core::Game::RenderGameStart
PUBLIC	?RenderGamePlay@Game@core@@AAEXHH@Z		; core::Game::RenderGamePlay
PUBLIC	?RenderGameLine@Game@core@@AAEXHH@Z		; core::Game::RenderGameLine
PUBLIC	?RenderGameOver@Game@core@@AAEXHH@Z		; core::Game::RenderGameOver
PUBLIC	?RenderGameStats@Game@core@@AAEXHH@Z		; core::Game::RenderGameStats
PUBLIC	??0Game@core@@QAE@PBDHHHH0H@Z			; core::Game::Game
PUBLIC	?HandleEvents@Game@core@@QAEXXZ			; core::Game::HandleEvents
PUBLIC	?HandleInput@Game@core@@QAEXXZ			; core::Game::HandleInput
PUBLIC	?Update@Game@core@@QAEXXZ			; core::Game::Update
PUBLIC	?Render@Game@core@@QAEXXZ			; core::Game::Render
PUBLIC	?MainLoop@Game@core@@QAEXXZ			; core::Game::MainLoop
PUBLIC	?Clean@Game@core@@QAEXXZ			; core::Game::Clean
PUBLIC	?Quit@Game@core@@QAEXXZ				; core::Game::Quit
PUBLIC	?Running@Game@core@@QBE_NXZ			; core::Game::Running
PUBLIC	?clear@?$basic_ios@DU?$char_traits@D@std@@@std@@QAEXH_N@Z ; std::basic_ios<char,std::char_traits<char> >::clear
PUBLIC	?setstate@?$basic_ios@DU?$char_traits@D@std@@@std@@QAEXH_N@Z ; std::basic_ios<char,std::char_traits<char> >::setstate
PUBLIC	?tie@?$basic_ios@DU?$char_traits@D@std@@@std@@QBEPAV?$basic_ostream@DU?$char_traits@D@std@@@2@XZ ; std::basic_ios<char,std::char_traits<char> >::tie
PUBLIC	?rdbuf@?$basic_ios@DU?$char_traits@D@std@@@std@@QBEPAV?$basic_streambuf@DU?$char_traits@D@std@@@2@XZ ; std::basic_ios<char,std::char_traits<char> >::rdbuf
PUBLIC	?fill@?$basic_ios@DU?$char_traits@D@std@@@std@@QBEDXZ ; std::basic_ios<char,std::char_traits<char> >::fill
PUBLIC	?_Osfx@?$basic_ostream@DU?$char_traits@D@std@@@std@@QAEXXZ ; std::basic_ostream<char,std::char_traits<char> >::_Osfx
PUBLIC	??6?$basic_ostream@DU?$char_traits@D@std@@@std@@QAEAAV01@H@Z ; std::basic_ostream<char,std::char_traits<char> >::operator<<
PUBLIC	??6?$basic_ostream@DU?$char_traits@D@std@@@std@@QAEAAV01@I@Z ; std::basic_ostream<char,std::char_traits<char> >::operator<<
PUBLIC	?flush@?$basic_ostream@DU?$char_traits@D@std@@@std@@QAEAAV12@XZ ; std::basic_ostream<char,std::char_traits<char> >::flush
PUBLIC	??$?6U?$char_traits@D@std@@@std@@YAAAV?$basic_ostream@DU?$char_traits@D@std@@@0@AAV10@PBD@Z ; std::operator<<<std::char_traits<char> >
PUBLIC	??$addressof@V?$_Vector_val@U?$_Simple_types@H@std@@@std@@@std@@YAPAV?$_Vector_val@U?$_Simple_types@H@std@@@0@AAV10@@Z ; std::addressof<std::_Vector_val<std::_Simple_types<int> > >
PUBLIC	??$_Min_value@I@std@@YAABIABI0@Z		; std::_Min_value<unsigned int>
PUBLIC	??$_Unfancy@D@std@@YAPADPAD@Z			; std::_Unfancy<char>
PUBLIC	??$move@AAV?$allocator@D@std@@@std@@YA$$QAV?$allocator@D@0@AAV10@@Z ; std::move<std::allocator<char> &>
PUBLIC	??$?0V?$allocator@D@std@@X@?$_String_alloc@U?$_String_base_types@DV?$allocator@D@std@@@std@@@std@@QAE@$$QAV?$allocator@D@1@@Z ; std::_String_alloc<std::_String_base_types<char,std::allocator<char> > >::_String_alloc<std::_String_base_types<char,std::allocator<char> > ><std::allocator<char>,void>
PUBLIC	??$move@AAV?$basic_string@DU?$char_traits@D@std@@V?$allocator@D@2@@std@@@std@@YA$$QAV?$basic_string@DU?$char_traits@D@std@@V?$allocator@D@2@@0@AAV10@@Z ; std::move<std::basic_string<char,std::char_traits<char>,std::allocator<char> > &>
PUBLIC	??0_Sentry_base@?$basic_ostream@DU?$char_traits@D@std@@@std@@QAE@AAV12@@Z ; std::basic_ostream<char,std::char_traits<char> >::_Sentry_base::_Sentry_base
PUBLIC	??1_Sentry_base@?$basic_ostream@DU?$char_traits@D@std@@@std@@QAE@XZ ; std::basic_ostream<char,std::char_traits<char> >::_Sentry_base::~_Sentry_base
PUBLIC	??0sentry@?$basic_ostream@DU?$char_traits@D@std@@@std@@QAE@AAV12@@Z ; std::basic_ostream<char,std::char_traits<char> >::sentry::sentry
PUBLIC	??1sentry@?$basic_ostream@DU?$char_traits@D@std@@@std@@QAE@XZ ; std::basic_ostream<char,std::char_traits<char> >::sentry::~sentry
PUBLIC	??Bsentry@?$basic_ostream@DU?$char_traits@D@std@@@std@@QBE_NXZ ; std::basic_ostream<char,std::char_traits<char> >::sentry::operator bool
PUBLIC	??$use_facet@V?$num_put@DV?$ostreambuf_iterator@DU?$char_traits@D@std@@@std@@@std@@@std@@YAABV?$num_put@DV?$ostreambuf_iterator@DU?$char_traits@D@std@@@std@@@0@ABVlocale@0@@Z ; std::use_facet<std::num_put<char,std::ostreambuf_iterator<char,std::char_traits<char> > > >
PUBLIC	?_Getcat@?$num_put@DV?$ostreambuf_iterator@DU?$char_traits@D@std@@@std@@@std@@SAIPAPBVfacet@locale@2@PBV42@@Z ; std::num_put<char,std::ostreambuf_iterator<char,std::char_traits<char> > >::_Getcat
PUBLIC	??1?$num_put@DV?$ostreambuf_iterator@DU?$char_traits@D@std@@@std@@@std@@MAE@XZ ; std::num_put<char,std::ostreambuf_iterator<char,std::char_traits<char> > >::~num_put<char,std::ostreambuf_iterator<char,std::char_traits<char> > >
PUBLIC	?_Init@?$num_put@DV?$ostreambuf_iterator@DU?$char_traits@D@std@@@std@@@std@@IAEXABV_Locinfo@2@@Z ; std::num_put<char,std::ostreambuf_iterator<char,std::char_traits<char> > >::_Init
PUBLIC	??0?$num_put@DV?$ostreambuf_iterator@DU?$char_traits@D@std@@@std@@@std@@QAE@ABV_Locinfo@1@I@Z ; std::num_put<char,std::ostreambuf_iterator<char,std::char_traits<char> > >::num_put<char,std::ostreambuf_iterator<char,std::char_traits<char> > >
PUBLIC	?put@?$num_put@DV?$ostreambuf_iterator@DU?$char_traits@D@std@@@std@@@std@@QBE?AV?$ostreambuf_iterator@DU?$char_traits@D@std@@@2@V32@AAVios_base@2@DJ@Z ; std::num_put<char,std::ostreambuf_iterator<char,std::char_traits<char> > >::put
PUBLIC	?put@?$num_put@DV?$ostreambuf_iterator@DU?$char_traits@D@std@@@std@@@std@@QBE?AV?$ostreambuf_iterator@DU?$char_traits@D@std@@@2@V32@AAVios_base@2@DK@Z ; std::num_put<char,std::ostreambuf_iterator<char,std::char_traits<char> > >::put
PUBLIC	?do_put@?$num_put@DV?$ostreambuf_iterator@DU?$char_traits@D@std@@@std@@@std@@MBE?AV?$ostreambuf_iterator@DU?$char_traits@D@std@@@2@V32@AAVios_base@2@D_N@Z ; std::num_put<char,std::ostreambuf_iterator<char,std::char_traits<char> > >::do_put
PUBLIC	?do_put@?$num_put@DV?$ostreambuf_iterator@DU?$char_traits@D@std@@@std@@@std@@MBE?AV?$ostreambuf_iterator@DU?$char_traits@D@std@@@2@V32@AAVios_base@2@DJ@Z ; std::num_put<char,std::ostreambuf_iterator<char,std::char_traits<char> > >::do_put
PUBLIC	?do_put@?$num_put@DV?$ostreambuf_iterator@DU?$char_traits@D@std@@@std@@@std@@MBE?AV?$ostreambuf_iterator@DU?$char_traits@D@std@@@2@V32@AAVios_base@2@DK@Z ; std::num_put<char,std::ostreambuf_iterator<char,std::char_traits<char> > >::do_put
PUBLIC	?do_put@?$num_put@DV?$ostreambuf_iterator@DU?$char_traits@D@std@@@std@@@std@@MBE?AV?$ostreambuf_iterator@DU?$char_traits@D@std@@@2@V32@AAVios_base@2@D_J@Z ; std::num_put<char,std::ostreambuf_iterator<char,std::char_traits<char> > >::do_put
PUBLIC	?do_put@?$num_put@DV?$ostreambuf_iterator@DU?$char_traits@D@std@@@std@@@std@@MBE?AV?$ostreambuf_iterator@DU?$char_traits@D@std@@@2@V32@AAVios_base@2@D_K@Z ; std::num_put<char,std::ostreambuf_iterator<char,std::char_traits<char> > >::do_put
PUBLIC	?do_put@?$num_put@DV?$ostreambuf_iterator@DU?$char_traits@D@std@@@std@@@std@@MBE?AV?$ostreambuf_iterator@DU?$char_traits@D@std@@@2@V32@AAVios_base@2@DN@Z ; std::num_put<char,std::ostreambuf_iterator<char,std::char_traits<char> > >::do_put
PUBLIC	?do_put@?$num_put@DV?$ostreambuf_iterator@DU?$char_traits@D@std@@@std@@@std@@MBE?AV?$ostreambuf_iterator@DU?$char_traits@D@std@@@2@V32@AAVios_base@2@DO@Z ; std::num_put<char,std::ostreambuf_iterator<char,std::char_traits<char> > >::do_put
PUBLIC	?do_put@?$num_put@DV?$ostreambuf_iterator@DU?$char_traits@D@std@@@std@@@std@@MBE?AV?$ostreambuf_iterator@DU?$char_traits@D@std@@@2@V32@AAVios_base@2@DPBX@Z ; std::num_put<char,std::ostreambuf_iterator<char,std::char_traits<char> > >::do_put
PUBLIC	?_Ffmt@?$num_put@DV?$ostreambuf_iterator@DU?$char_traits@D@std@@@std@@@std@@ABAPADPADDH@Z ; std::num_put<char,std::ostreambuf_iterator<char,std::char_traits<char> > >::_Ffmt
PUBLIC	?_Fput@?$num_put@DV?$ostreambuf_iterator@DU?$char_traits@D@std@@@std@@@std@@ABA?AV?$ostreambuf_iterator@DU?$char_traits@D@std@@@2@V32@AAVios_base@2@DPBDI@Z ; std::num_put<char,std::ostreambuf_iterator<char,std::char_traits<char> > >::_Fput
PUBLIC	?_Ifmt@?$num_put@DV?$ostreambuf_iterator@DU?$char_traits@D@std@@@std@@@std@@ABAPADPADPBDH@Z ; std::num_put<char,std::ostreambuf_iterator<char,std::char_traits<char> > >::_Ifmt
PUBLIC	?_Iput@?$num_put@DV?$ostreambuf_iterator@DU?$char_traits@D@std@@@std@@@std@@ABA?AV?$ostreambuf_iterator@DU?$char_traits@D@std@@@2@V32@AAVios_base@2@DPADI@Z ; std::num_put<char,std::ostreambuf_iterator<char,std::char_traits<char> > >::_Iput
PUBLIC	?_Put@?$num_put@DV?$ostreambuf_iterator@DU?$char_traits@D@std@@@std@@@std@@ABA?AV?$ostreambuf_iterator@DU?$char_traits@D@std@@@2@V32@PBDI@Z ; std::num_put<char,std::ostreambuf_iterator<char,std::char_traits<char> > >::_Put
PUBLIC	?_Rep@?$num_put@DV?$ostreambuf_iterator@DU?$char_traits@D@std@@@std@@@std@@ABA?AV?$ostreambuf_iterator@DU?$char_traits@D@std@@@2@V32@DI@Z ; std::num_put<char,std::ostreambuf_iterator<char,std::char_traits<char> > >::_Rep
PUBLIC	??_G?$num_put@DV?$ostreambuf_iterator@DU?$char_traits@D@std@@@std@@@std@@MAEPAXI@Z ; std::num_put<char,std::ostreambuf_iterator<char,std::char_traits<char> > >::`scalar deleting destructor'
PUBLIC	??0?$ostreambuf_iterator@DU?$char_traits@D@std@@@std@@QAE@PAV?$basic_streambuf@DU?$char_traits@D@std@@@1@@Z ; std::ostreambuf_iterator<char,std::char_traits<char> >::ostreambuf_iterator<char,std::char_traits<char> >
PUBLIC	??4?$ostreambuf_iterator@DU?$char_traits@D@std@@@std@@QAEAAV01@D@Z ; std::ostreambuf_iterator<char,std::char_traits<char> >::operator=
PUBLIC	??D?$ostreambuf_iterator@DU?$char_traits@D@std@@@std@@QAEAAV01@XZ ; std::ostreambuf_iterator<char,std::char_traits<char> >::operator*
PUBLIC	??E?$ostreambuf_iterator@DU?$char_traits@D@std@@@std@@QAEAAV01@XZ ; std::ostreambuf_iterator<char,std::char_traits<char> >::operator++
PUBLIC	?failed@?$ostreambuf_iterator@DU?$char_traits@D@std@@@std@@QBE_NXZ ; std::ostreambuf_iterator<char,std::char_traits<char> >::failed
PUBLIC	??$use_facet@V?$numpunct@D@std@@@std@@YAABV?$numpunct@D@0@ABVlocale@0@@Z ; std::use_facet<std::numpunct<char> >
PUBLIC	?decimal_point@?$numpunct@D@std@@QBEDXZ		; std::numpunct<char>::decimal_point
PUBLIC	?thousands_sep@?$numpunct@D@std@@QBEDXZ		; std::numpunct<char>::thousands_sep
PUBLIC	?grouping@?$numpunct@D@std@@QBE?AV?$basic_string@DU?$char_traits@D@std@@V?$allocator@D@2@@2@XZ ; std::numpunct<char>::grouping
PUBLIC	?falsename@?$numpunct@D@std@@QBE?AV?$basic_string@DU?$char_traits@D@std@@V?$allocator@D@2@@2@XZ ; std::numpunct<char>::falsename
PUBLIC	?truename@?$numpunct@D@std@@QBE?AV?$basic_string@DU?$char_traits@D@std@@V?$allocator@D@2@@2@XZ ; std::numpunct<char>::truename
PUBLIC	??0?$numpunct@D@std@@QAE@ABV_Locinfo@1@I_N@Z	; std::numpunct<char>::numpunct<char>
PUBLIC	?_Getcat@?$numpunct@D@std@@SAIPAPBVfacet@locale@2@PBV42@@Z ; std::numpunct<char>::_Getcat
PUBLIC	??1?$numpunct@D@std@@MAE@XZ			; std::numpunct<char>::~numpunct<char>
PUBLIC	?_Init@?$numpunct@D@std@@IAEXABV_Locinfo@2@_N@Z	; std::numpunct<char>::_Init
PUBLIC	?do_decimal_point@?$numpunct@D@std@@MBEDXZ	; std::numpunct<char>::do_decimal_point
PUBLIC	?do_thousands_sep@?$numpunct@D@std@@MBEDXZ	; std::numpunct<char>::do_thousands_sep
PUBLIC	?do_grouping@?$numpunct@D@std@@MBE?AV?$basic_string@DU?$char_traits@D@std@@V?$allocator@D@2@@2@XZ ; std::numpunct<char>::do_grouping
PUBLIC	?do_falsename@?$numpunct@D@std@@MBE?AV?$basic_string@DU?$char_traits@D@std@@V?$allocator@D@2@@2@XZ ; std::numpunct<char>::do_falsename
PUBLIC	?do_truename@?$numpunct@D@std@@MBE?AV?$basic_string@DU?$char_traits@D@std@@V?$allocator@D@2@@2@XZ ; std::numpunct<char>::do_truename
PUBLIC	?_Tidy@?$numpunct@D@std@@AAEXXZ			; std::numpunct<char>::_Tidy
PUBLIC	??_G?$numpunct@D@std@@MAEPAXI@Z			; std::numpunct<char>::`scalar deleting destructor'
PUBLIC	??$?0$$V@?$_Compressed_pair@V?$allocator@D@std@@V?$_String_val@U?$_Simple_types@D@std@@@2@$00@std@@QAE@U_Zero_then_variadic_args_t@1@@Z ; std::_Compressed_pair<std::allocator<char>,std::_String_val<std::_Simple_types<char> >,1>::_Compressed_pair<std::allocator<char>,std::_String_val<std::_Simple_types<char> >,1><>
PUBLIC	??$addressof@PAD@std@@YAPAPADAAPAD@Z		; std::addressof<char *>
PUBLIC	??$destroy@PAD@?$_Default_allocator_traits@V?$allocator@D@std@@@std@@SAXAAV?$allocator@D@1@QAPAD@Z ; std::_Default_allocator_traits<std::allocator<char> >::destroy<char *>
PUBLIC	??$_Max_value@I@std@@YAABIABI0@Z		; std::_Max_value<unsigned int>
PUBLIC	??$construct@PADABQAD@?$_Default_allocator_traits@V?$allocator@D@std@@@std@@SAXAAV?$allocator@D@1@QAPADABQAD@Z ; std::_Default_allocator_traits<std::allocator<char> >::construct<char *,char * const &>
PUBLIC	??$addressof@V?$_String_val@U?$_Simple_types@D@std@@@std@@@std@@YAPAV?$_String_val@U?$_Simple_types@D@std@@@0@AAV10@@Z ; std::addressof<std::_String_val<std::_Simple_types<char> > >
PUBLIC	??$_Allocate@$07U_Default_allocate_traits@std@@$0A@@std@@YAPAXI@Z ; std::_Allocate<8,std::_Default_allocate_traits,0>
PUBLIC	??$_Deallocate@$07$0A@@std@@YAXPAXI@Z		; std::_Deallocate<8,0>
PUBLIC	?pubsync@?$basic_streambuf@DU?$char_traits@D@std@@@std@@QAEHXZ ; std::basic_streambuf<char,std::char_traits<char> >::pubsync
PUBLIC	?sputc@?$basic_streambuf@DU?$char_traits@D@std@@@std@@QAEHD@Z ; std::basic_streambuf<char,std::char_traits<char> >::sputc
PUBLIC	?sputn@?$basic_streambuf@DU?$char_traits@D@std@@@std@@QAE_JPBD_J@Z ; std::basic_streambuf<char,std::char_traits<char> >::sputn
PUBLIC	?_Pninc@?$basic_streambuf@DU?$char_traits@D@std@@@std@@IAEPADXZ ; std::basic_streambuf<char,std::char_traits<char> >::_Pninc
PUBLIC	?_Pnavail@?$basic_streambuf@DU?$char_traits@D@std@@@std@@IBE_JXZ ; std::basic_streambuf<char,std::char_traits<char> >::_Pnavail
PUBLIC	??$addressof@V?$basic_string@DU?$char_traits@D@std@@V?$allocator@D@2@@std@@@std@@YAPAV?$basic_string@DU?$char_traits@D@std@@V?$allocator@D@2@@0@AAV10@@Z ; std::addressof<std::basic_string<char,std::char_traits<char>,std::allocator<char> > >
PUBLIC	??$_Pocma@V?$allocator@D@std@@@std@@YAXAAV?$allocator@D@0@0@Z ; std::_Pocma<std::allocator<char> >
PUBLIC	??$_Adl_verify_range1@PBDPBD@std@@YAXABQBD0U?$integral_constant@_N$0A@@0@@Z ; std::_Adl_verify_range1<char const *,char const *>
PUBLIC	??R?$default_delete@V_Facet_base@std@@@std@@QBEXPAV_Facet_base@1@@Z ; std::default_delete<std::_Facet_base>::operator()
PUBLIC	?get_deleter@?$_Unique_ptr_base@V_Facet_base@std@@U?$default_delete@V_Facet_base@std@@@2@@std@@QAEAAU?$default_delete@V_Facet_base@std@@@2@XZ ; std::_Unique_ptr_base<std::_Facet_base,std::default_delete<std::_Facet_base> >::get_deleter
PUBLIC	?_Myptr@?$_Unique_ptr_base@V_Facet_base@std@@U?$default_delete@V_Facet_base@std@@@2@@std@@QAEAAPAV_Facet_base@2@XZ ; std::_Unique_ptr_base<std::_Facet_base,std::default_delete<std::_Facet_base> >::_Myptr
PUBLIC	?_Myptr@?$_Unique_ptr_base@V_Facet_base@std@@U?$default_delete@V_Facet_base@std@@@2@@std@@QBEABQAV_Facet_base@2@XZ ; std::_Unique_ptr_base<std::_Facet_base,std::default_delete<std::_Facet_base> >::_Myptr
PUBLIC	?_Get_first@?$_Compressed_pair@U?$default_delete@V_Facet_base@std@@@std@@PAV_Facet_base@2@$00@std@@QAEAAU?$default_delete@V_Facet_base@std@@@2@XZ ; std::_Compressed_pair<std::default_delete<std::_Facet_base>,std::_Facet_base *,1>::_Get_first
PUBLIC	?_Get_second@?$_Compressed_pair@U?$default_delete@V_Facet_base@std@@@std@@PAV_Facet_base@2@$00@std@@QAEAAPAV_Facet_base@2@XZ ; std::_Compressed_pair<std::default_delete<std::_Facet_base>,std::_Facet_base *,1>::_Get_second
PUBLIC	?_Get_second@?$_Compressed_pair@U?$default_delete@V_Facet_base@std@@@std@@PAV_Facet_base@2@$00@std@@QBEABQAV_Facet_base@2@XZ ; std::_Compressed_pair<std::default_delete<std::_Facet_base>,std::_Facet_base *,1>::_Get_second
PUBLIC	??1?$unique_ptr@V_Facet_base@std@@U?$default_delete@V_Facet_base@std@@@2@@std@@QAE@XZ ; std::unique_ptr<std::_Facet_base,std::default_delete<std::_Facet_base> >::~unique_ptr<std::_Facet_base,std::default_delete<std::_Facet_base> >
PUBLIC	?get@?$unique_ptr@V_Facet_base@std@@U?$default_delete@V_Facet_base@std@@@2@@std@@QBEPAV_Facet_base@2@XZ ; std::unique_ptr<std::_Facet_base,std::default_delete<std::_Facet_base> >::get
PUBLIC	?release@?$unique_ptr@V_Facet_base@std@@U?$default_delete@V_Facet_base@std@@@2@@std@@QAEPAV_Facet_base@2@XZ ; std::unique_ptr<std::_Facet_base,std::default_delete<std::_Facet_base> >::release
PUBLIC	??$?0U?$default_delete@V_Facet_base@std@@@std@@$0A@@?$unique_ptr@V_Facet_base@std@@U?$default_delete@V_Facet_base@std@@@2@@std@@QAE@PAV_Facet_base@1@@Z ; std::unique_ptr<std::_Facet_base,std::default_delete<std::_Facet_base> >::unique_ptr<std::_Facet_base,std::default_delete<std::_Facet_base> ><std::default_delete<std::_Facet_base>,0>
PUBLIC	??$_Immortalize_impl@V_Iostream_error_category@std@@@std@@YGHPAX0PAPAX@Z ; std::_Immortalize_impl<std::_Iostream_error_category>
PUBLIC	??$_Adl_verify_range@V?$_Vector_iterator@V?$_Vector_val@U?$_Simple_types@H@std@@@std@@@std@@V12@@std@@YAXABV?$_Vector_iterator@V?$_Vector_val@U?$_Simple_types@H@std@@@std@@@0@0@Z ; std::_Adl_verify_range<std::_Vector_iterator<std::_Vector_val<std::_Simple_types<int> > >,std::_Vector_iterator<std::_Vector_val<std::_Simple_types<int> > > >
PUBLIC	??$_Get_unwrapped@V?$_Vector_iterator@V?$_Vector_val@U?$_Simple_types@H@std@@@std@@@std@@$0A@@std@@YAPAHABV?$_Vector_iterator@V?$_Vector_val@U?$_Simple_types@H@std@@@std@@@0@@Z ; std::_Get_unwrapped<std::_Vector_iterator<std::_Vector_val<std::_Simple_types<int> > >,0>
PUBLIC	??$_Fill_unchecked@PAHH@std@@YAXPAH0ABH@Z	; std::_Fill_unchecked<int *,int>
PUBLIC	??$forward@V?$allocator@D@std@@@std@@YA$$QAV?$allocator@D@0@AAV10@@Z ; std::forward<std::allocator<char> >
PUBLIC	??$?0V?$allocator@D@std@@$$V@?$_Compressed_pair@V?$allocator@D@std@@V?$_String_val@U?$_Simple_types@D@std@@@2@$00@std@@QAE@U_One_then_variadic_args_t@1@$$QAV?$allocator@D@1@@Z ; std::_Compressed_pair<std::allocator<char>,std::_String_val<std::_Simple_types<char> >,1>::_Compressed_pair<std::allocator<char>,std::_String_val<std::_Simple_types<char> >,1><std::allocator<char> >
PUBLIC	??$forward@ABQAD@std@@YAABQADABQAD@Z		; std::forward<char * const &>
PUBLIC	??$_Allocate_manually_vector_aligned@U_Default_allocate_traits@std@@@std@@YAPAXI@Z ; std::_Allocate_manually_vector_aligned<std::_Default_allocate_traits>
PUBLIC	??$_Pocma@V?$allocator@D@std@@@std@@YAXAAV?$allocator@D@0@0U?$integral_constant@_N$00@0@@Z ; std::_Pocma<std::allocator<char> >
PUBLIC	??$_Maklocstr@D@std@@YAPADPBDPADABU_Cvtvec@@@Z	; std::_Maklocstr<char>
PUBLIC	??$_Maklocchr@D@std@@YADDPADABU_Cvtvec@@@Z	; std::_Maklocchr<char>
PUBLIC	??$_Getvals@D@?$numpunct@D@std@@IAEXDPBUlconv@@U_Cvtvec@@@Z ; std::numpunct<char>::_Getvals<char>
PUBLIC	??$?0PAV_Facet_base@std@@@?$_Unique_ptr_base@V_Facet_base@std@@U?$default_delete@V_Facet_base@std@@@2@@std@@QAE@PAV_Facet_base@1@@Z ; std::_Unique_ptr_base<std::_Facet_base,std::default_delete<std::_Facet_base> >::_Unique_ptr_base<std::_Facet_base,std::default_delete<std::_Facet_base> ><std::_Facet_base *>
PUBLIC	??$_Adl_verify_range1@V?$_Vector_iterator@V?$_Vector_val@U?$_Simple_types@H@std@@@std@@@std@@V12@@std@@YAXABV?$_Vector_iterator@V?$_Vector_val@U?$_Simple_types@H@std@@@std@@@0@0U?$integral_constant@_N$0A@@0@@Z ; std::_Adl_verify_range1<std::_Vector_iterator<std::_Vector_val<std::_Simple_types<int> > >,std::_Vector_iterator<std::_Vector_val<std::_Simple_types<int> > > >
PUBLIC	??$_Fill_memset_is_safe@PAHH@std@@YA?AU?$integral_constant@_N$0A@@0@ABQAHABH@Z ; std::_Fill_memset_is_safe<int *,int>
PUBLIC	??$_Fill_unchecked1@PAHH@std@@YAXPAH0ABHU?$integral_constant@_N$0A@@0@@Z ; std::_Fill_unchecked1<int *,int>
PUBLIC	??$?0AAPAV_Facet_base@std@@@?$_Compressed_pair@U?$default_delete@V_Facet_base@std@@@std@@PAV_Facet_base@2@$00@std@@QAE@U_Zero_then_variadic_args_t@1@AAPAV_Facet_base@1@@Z ; std::_Compressed_pair<std::default_delete<std::_Facet_base>,std::_Facet_base *,1>::_Compressed_pair<std::default_delete<std::_Facet_base>,std::_Facet_base *,1><std::_Facet_base * &>
PUBLIC	??$forward@AAPAV_Facet_base@std@@@std@@YAAAPAV_Facet_base@0@AAPAV10@@Z ; std::forward<std::_Facet_base * &>
PUBLIC	?_OptionsStorage@?1??__local_stdio_printf_options@@9@4_KA ; `__local_stdio_printf_options'::`2'::_OptionsStorage
PUBLIC	??_7exception@std@@6B@				; std::exception::`vftable'
PUBLIC	??_C@_0BC@EOODALEL@Unknown?5exception@		; `string'
PUBLIC	??_7runtime_error@std@@6B@			; std::runtime_error::`vftable'
PUBLIC	??_7bad_cast@std@@6B@				; std::bad_cast::`vftable'
PUBLIC	??_C@_08EPJLHIJG@bad?5cast@			; `string'
PUBLIC	__TI2?AVruntime_error@std@@
PUBLIC	__CTA2?AVruntime_error@std@@
PUBLIC	??_R0?AVruntime_error@std@@@8			; std::runtime_error `RTTI Type Descriptor'
PUBLIC	__CT??_R0?AVruntime_error@std@@@8??0runtime_error@std@@QAE@ABV01@@Z12
PUBLIC	??_R0?AVexception@std@@@8			; std::exception `RTTI Type Descriptor'
PUBLIC	__CT??_R0?AVexception@std@@@8??0exception@std@@QAE@ABV01@@Z12
PUBLIC	??_C@_0BA@ELKIONDK@bad?5locale?5name@		; `string'
PUBLIC	??_C@_05LAPONLG@false@				; `string'
PUBLIC	??_C@_04LOAJBDKD@true@				; `string'
PUBLIC	??_7_Facet_base@std@@6B@			; std::_Facet_base::`vftable'
PUBLIC	??_7facet@locale@std@@6B@			; std::locale::facet::`vftable'
PUBLIC	??_C@_00CNPNBAHC@@				; `string'
PUBLIC	??_7ctype_base@std@@6B@				; std::ctype_base::`vftable'
PUBLIC	??_7?$ctype@D@std@@6B@				; std::ctype<char>::`vftable'
PUBLIC	??_7_System_error@std@@6B@			; std::_System_error::`vftable'
PUBLIC	??_C@_02LMMGGCAJ@?3?5@				; `string'
PUBLIC	??_7system_error@std@@6B@			; std::system_error::`vftable'
PUBLIC	??_7_Generic_error_category@std@@6B@		; std::_Generic_error_category::`vftable'
PUBLIC	??_C@_07DCLBNMLN@generic@			; `string'
PUBLIC	??_7_Iostream_error_category@std@@6B@		; std::_Iostream_error_category::`vftable'
PUBLIC	??_C@_08LLGCOLLL@iostream@			; `string'
PUBLIC	??_C@_0BG@PADBLCHM@iostream?5stream?5error@	; `string'
PUBLIC	??_7failure@ios_base@std@@6B@			; std::ios_base::failure::`vftable'
PUBLIC	??_C@_0BF@PHHKMMFD@ios_base?3?3badbit?5set@	; `string'
PUBLIC	??_C@_0BG@FMKFHCIL@ios_base?3?3failbit?5set@	; `string'
PUBLIC	??_C@_0BF@OOHOMBOF@ios_base?3?3eofbit?5set@	; `string'
PUBLIC	__TI5?AVfailure@ios_base@std@@
PUBLIC	__CTA5?AVfailure@ios_base@std@@
PUBLIC	??_R0?AVfailure@ios_base@std@@@8		; std::ios_base::failure `RTTI Type Descriptor'
PUBLIC	__CT??_R0?AVfailure@ios_base@std@@@8??0failure@ios_base@std@@QAE@ABV012@@Z20
PUBLIC	??_R0?AVsystem_error@std@@@8			; std::system_error `RTTI Type Descriptor'
PUBLIC	__CT??_R0?AVsystem_error@std@@@8??0system_error@std@@QAE@ABV01@@Z20
PUBLIC	??_R0?AV_System_error@std@@@8			; std::_System_error `RTTI Type Descriptor'
PUBLIC	__CT??_R0?AV_System_error@std@@@8??0_System_error@std@@QAE@ABV01@@Z20
PUBLIC	??_C@_0CH@EGGHBPKB@SDL?5has?5been?5initialized?5succes@ ; `string'
PUBLIC	??_C@_0CK@LKCLDMPA@SDL?5window?5has?5been?5created?5suc@ ; `string'
PUBLIC	??_C@_0CM@MFFAMOBJ@SDL?5renderer?5has?5been?5created?5s@ ; `string'
PUBLIC	??_C@_01EEMJAFIK@?6@				; `string'
PUBLIC	??_C@_0CL@MNJLHHGI@Renderer?5could?5not?5be?5created?4?5@ ; `string'
PUBLIC	??_C@_0CJ@PIFBGGOL@Window?5could?5not?5be?5created?4?5SD@ ; `string'
PUBLIC	??_C@_0CF@DAJCNOPK@Unable?5to?5intialize?5SDL?4?5SDL?5er@ ; `string'
PUBLIC	??_C@_0CL@CGIGHLCG@SDL_TTF?5has?5been?5initialized?5su@ ; `string'
PUBLIC	??_C@_0BD@GIEFJDI@?$CJ?5has?5been?5loaded?6@	; `string'
PUBLIC	??_C@_01ODHLEDKK@?$CI@				; `string'
PUBLIC	??_C@_05JBNLDDKP@Font?5@			; `string'
PUBLIC	??_C@_0BH@IMMMKLFB@?$CJ?5has?5not?5been?5loaded?6@ ; `string'
PUBLIC	??_C@_0CO@CJNDLNMC@Unable?5to?5initialize?5SDL_TTF?4?5S@ ; `string'
PUBLIC	??_C@_0M@EGEHIPLI@Game?5seed?3?5@		; `string'
PUBLIC	??_C@_0BF@LKPPLCNE@Press?5Enter?5to?5start@	; `string'
PUBLIC	??_C@_0BD@CFKFPENJ@STARTING?5LEVEL?3?5?$CFd@	; `string'
PUBLIC	??_C@_09MAOEPLNL@GAME?5OVER@			; `string'
PUBLIC	??_C@_09IFKCHJNG@LEVEL?3?5?$CFd@		; `string'
PUBLIC	??_C@_09DOEIBABC@LINES?3?5?$CFd@		; `string'
PUBLIC	??_C@_0L@OEGFDINF@POINTS?3?5?$CFd@		; `string'
PUBLIC	??_C@_0CP@DGBGMEIB@Closing?5the?5game?4?5Cleaning?5up?5a@ ; `string'
PUBLIC	?id@?$num_put@DV?$ostreambuf_iterator@DU?$char_traits@D@std@@@std@@@std@@2V0locale@2@A ; std::num_put<char,std::ostreambuf_iterator<char,std::char_traits<char> > >::id
PUBLIC	??_7?$num_put@DV?$ostreambuf_iterator@DU?$char_traits@D@std@@@std@@@std@@6B@ ; std::num_put<char,std::ostreambuf_iterator<char,std::char_traits<char> > >::`vftable'
PUBLIC	??_C@_02BBAHNLBA@?$CFp@				; `string'
PUBLIC	??_C@_02CLHGNPPK@Lu@				; `string'
PUBLIC	??_C@_02HIKPPMOK@Ld@				; `string'
PUBLIC	??_C@_02BDDLJJBK@lu@				; `string'
PUBLIC	??_C@_02EAOCLKAK@ld@				; `string'
PUBLIC	?id@?$numpunct@D@std@@2V0locale@2@A		; std::numpunct<char>::id
PUBLIC	??_7?$numpunct@D@std@@6B@			; std::numpunct<char>::`vftable'
PUBLIC	??_C@_02MDKMJEGG@eE@				; `string'
PUBLIC	??_C@_02OOPEBDOJ@pP@				; `string'
PUBLIC	??_C@_0BI@CFPLBAOH@invalid?5string?5position@	; `string'
PUBLIC	?_Psave@?$_Facetptr@V?$ctype@D@std@@@std@@2PBVfacet@locale@2@B ; std::_Facetptr<std::ctype<char> >::_Psave
PUBLIC	??_R0?AVbad_cast@std@@@8			; std::bad_cast `RTTI Type Descriptor'
PUBLIC	?_Flag@?1???$_Immortalize@V_Iostream_error_category@std@@@std@@YAAAV_Iostream_error_category@1@XZ@4PAXA ; `std::_Immortalize<std::_Iostream_error_category>'::`2'::_Flag
PUBLIC	?_Storage@?1???$_Immortalize@V_Iostream_error_category@std@@@std@@YAAAV_Iostream_error_category@1@XZ@4T?$_Align_type@H$07@1@A ; `std::_Immortalize<std::_Iostream_error_category>'::`2'::_Storage
PUBLIC	?_Psave@?$_Facetptr@V?$num_put@DV?$ostreambuf_iterator@DU?$char_traits@D@std@@@std@@@std@@@std@@2PBVfacet@locale@2@B ; std::_Facetptr<std::num_put<char,std::ostreambuf_iterator<char,std::char_traits<char> > > >::_Psave
PUBLIC	?_Psave@?$_Facetptr@V?$numpunct@D@std@@@std@@2PBVfacet@locale@2@B ; std::_Facetptr<std::numpunct<char> >::_Psave
PUBLIC	??_C@_0BA@JFNIOLAK@string?5too?5long@		; `string'
PUBLIC	??_R4exception@std@@6B@				; std::exception::`RTTI Complete Object Locator'
PUBLIC	??_R3exception@std@@8				; std::exception::`RTTI Class Hierarchy Descriptor'
PUBLIC	??_R2exception@std@@8				; std::exception::`RTTI Base Class Array'
PUBLIC	??_R1A@?0A@EA@exception@std@@8			; std::exception::`RTTI Base Class Descriptor at (0,-1,0,64)'
PUBLIC	??_R4runtime_error@std@@6B@			; std::runtime_error::`RTTI Complete Object Locator'
PUBLIC	??_R3runtime_error@std@@8			; std::runtime_error::`RTTI Class Hierarchy Descriptor'
PUBLIC	??_R2runtime_error@std@@8			; std::runtime_error::`RTTI Base Class Array'
PUBLIC	??_R1A@?0A@EA@runtime_error@std@@8		; std::runtime_error::`RTTI Base Class Descriptor at (0,-1,0,64)'
PUBLIC	??_R4bad_cast@std@@6B@				; std::bad_cast::`RTTI Complete Object Locator'
PUBLIC	??_R3bad_cast@std@@8				; std::bad_cast::`RTTI Class Hierarchy Descriptor'
PUBLIC	??_R2bad_cast@std@@8				; std::bad_cast::`RTTI Base Class Array'
PUBLIC	??_R1A@?0A@EA@bad_cast@std@@8			; std::bad_cast::`RTTI Base Class Descriptor at (0,-1,0,64)'
PUBLIC	??_R4_Facet_base@std@@6B@			; std::_Facet_base::`RTTI Complete Object Locator'
PUBLIC	??_R0?AV_Facet_base@std@@@8			; std::_Facet_base `RTTI Type Descriptor'
PUBLIC	??_R3_Facet_base@std@@8				; std::_Facet_base::`RTTI Class Hierarchy Descriptor'
PUBLIC	??_R2_Facet_base@std@@8				; std::_Facet_base::`RTTI Base Class Array'
PUBLIC	??_R1A@?0A@EA@_Facet_base@std@@8		; std::_Facet_base::`RTTI Base Class Descriptor at (0,-1,0,64)'
PUBLIC	??_R1A@?0A@EA@facet@locale@std@@8		; std::locale::facet::`RTTI Base Class Descriptor at (0,-1,0,64)'
PUBLIC	??_R0?AVfacet@locale@std@@@8			; std::locale::facet `RTTI Type Descriptor'
PUBLIC	??_R3facet@locale@std@@8			; std::locale::facet::`RTTI Class Hierarchy Descriptor'
PUBLIC	??_R2facet@locale@std@@8			; std::locale::facet::`RTTI Base Class Array'
PUBLIC	??_R13?0A@EA@_Crt_new_delete@std@@8		; std::_Crt_new_delete::`RTTI Base Class Descriptor at (4,-1,0,64)'
PUBLIC	??_R0?AU_Crt_new_delete@std@@@8			; std::_Crt_new_delete `RTTI Type Descriptor'
PUBLIC	??_R3_Crt_new_delete@std@@8			; std::_Crt_new_delete::`RTTI Class Hierarchy Descriptor'
PUBLIC	??_R2_Crt_new_delete@std@@8			; std::_Crt_new_delete::`RTTI Base Class Array'
PUBLIC	??_R1A@?0A@EA@_Crt_new_delete@std@@8		; std::_Crt_new_delete::`RTTI Base Class Descriptor at (0,-1,0,64)'
PUBLIC	??_R4facet@locale@std@@6B@			; std::locale::facet::`RTTI Complete Object Locator'
PUBLIC	??_R4ctype_base@std@@6B@			; std::ctype_base::`RTTI Complete Object Locator'
PUBLIC	??_R0?AUctype_base@std@@@8			; std::ctype_base `RTTI Type Descriptor'
PUBLIC	??_R3ctype_base@std@@8				; std::ctype_base::`RTTI Class Hierarchy Descriptor'
PUBLIC	??_R2ctype_base@std@@8				; std::ctype_base::`RTTI Base Class Array'
PUBLIC	??_R1A@?0A@EA@ctype_base@std@@8			; std::ctype_base::`RTTI Base Class Descriptor at (0,-1,0,64)'
PUBLIC	??_R4?$ctype@D@std@@6B@				; std::ctype<char>::`RTTI Complete Object Locator'
PUBLIC	??_R0?AV?$ctype@D@std@@@8			; std::ctype<char> `RTTI Type Descriptor'
PUBLIC	??_R3?$ctype@D@std@@8				; std::ctype<char>::`RTTI Class Hierarchy Descriptor'
PUBLIC	??_R2?$ctype@D@std@@8				; std::ctype<char>::`RTTI Base Class Array'
PUBLIC	??_R1A@?0A@EA@?$ctype@D@std@@8			; std::ctype<char>::`RTTI Base Class Descriptor at (0,-1,0,64)'
PUBLIC	??_R0?AVerror_category@std@@@8			; std::error_category `RTTI Type Descriptor'
PUBLIC	??_R3error_category@std@@8			; std::error_category::`RTTI Class Hierarchy Descriptor'
PUBLIC	??_R2error_category@std@@8			; std::error_category::`RTTI Base Class Array'
PUBLIC	??_R1A@?0A@EA@error_category@std@@8		; std::error_category::`RTTI Base Class Descriptor at (0,-1,0,64)'
PUBLIC	??_R4_System_error@std@@6B@			; std::_System_error::`RTTI Complete Object Locator'
PUBLIC	??_R3_System_error@std@@8			; std::_System_error::`RTTI Class Hierarchy Descriptor'
PUBLIC	??_R2_System_error@std@@8			; std::_System_error::`RTTI Base Class Array'
PUBLIC	??_R1A@?0A@EA@_System_error@std@@8		; std::_System_error::`RTTI Base Class Descriptor at (0,-1,0,64)'
PUBLIC	??_R4system_error@std@@6B@			; std::system_error::`RTTI Complete Object Locator'
PUBLIC	??_R3system_error@std@@8			; std::system_error::`RTTI Class Hierarchy Descriptor'
PUBLIC	??_R2system_error@std@@8			; std::system_error::`RTTI Base Class Array'
PUBLIC	??_R1A@?0A@EA@system_error@std@@8		; std::system_error::`RTTI Base Class Descriptor at (0,-1,0,64)'
PUBLIC	??_R4_Generic_error_category@std@@6B@		; std::_Generic_error_category::`RTTI Complete Object Locator'
PUBLIC	??_R0?AV_Generic_error_category@std@@@8		; std::_Generic_error_category `RTTI Type Descriptor'
PUBLIC	??_R3_Generic_error_category@std@@8		; std::_Generic_error_category::`RTTI Class Hierarchy Descriptor'
PUBLIC	??_R2_Generic_error_category@std@@8		; std::_Generic_error_category::`RTTI Base Class Array'
PUBLIC	??_R1A@?0A@EA@_Generic_error_category@std@@8	; std::_Generic_error_category::`RTTI Base Class Descriptor at (0,-1,0,64)'
PUBLIC	??_R4_Iostream_error_category@std@@6B@		; std::_Iostream_error_category::`RTTI Complete Object Locator'
PUBLIC	??_R0?AV_Iostream_error_category@std@@@8	; std::_Iostream_error_category `RTTI Type Descriptor'
PUBLIC	??_R3_Iostream_error_category@std@@8		; std::_Iostream_error_category::`RTTI Class Hierarchy Descriptor'
PUBLIC	??_R2_Iostream_error_category@std@@8		; std::_Iostream_error_category::`RTTI Base Class Array'
PUBLIC	??_R1A@?0A@EA@_Iostream_error_category@std@@8	; std::_Iostream_error_category::`RTTI Base Class Descriptor at (0,-1,0,64)'
PUBLIC	??_R4failure@ios_base@std@@6B@			; std::ios_base::failure::`RTTI Complete Object Locator'
PUBLIC	??_R3failure@ios_base@std@@8			; std::ios_base::failure::`RTTI Class Hierarchy Descriptor'
PUBLIC	??_R2failure@ios_base@std@@8			; std::ios_base::failure::`RTTI Base Class Array'
PUBLIC	??_R1A@?0A@EA@failure@ios_base@std@@8		; std::ios_base::failure::`RTTI Base Class Descriptor at (0,-1,0,64)'
PUBLIC	??_R4?$num_put@DV?$ostreambuf_iterator@DU?$char_traits@D@std@@@std@@@std@@6B@ ; std::num_put<char,std::ostreambuf_iterator<char,std::char_traits<char> > >::`RTTI Complete Object Locator'
PUBLIC	??_R0?AV?$num_put@DV?$ostreambuf_iterator@DU?$char_traits@D@std@@@std@@@std@@@8 ; std::num_put<char,std::ostreambuf_iterator<char,std::char_traits<char> > > `RTTI Type Descriptor'
PUBLIC	??_R3?$num_put@DV?$ostreambuf_iterator@DU?$char_traits@D@std@@@std@@@std@@8 ; std::num_put<char,std::ostreambuf_iterator<char,std::char_traits<char> > >::`RTTI Class Hierarchy Descriptor'
PUBLIC	??_R2?$num_put@DV?$ostreambuf_iterator@DU?$char_traits@D@std@@@std@@@std@@8 ; std::num_put<char,std::ostreambuf_iterator<char,std::char_traits<char> > >::`RTTI Base Class Array'
PUBLIC	??_R1A@?0A@EA@?$num_put@DV?$ostreambuf_iterator@DU?$char_traits@D@std@@@std@@@std@@8 ; std::num_put<char,std::ostreambuf_iterator<char,std::char_traits<char> > >::`RTTI Base Class Descriptor at (0,-1,0,64)'
PUBLIC	??_R4?$numpunct@D@std@@6B@			; std::numpunct<char>::`RTTI Complete Object Locator'
PUBLIC	??_R0?AV?$numpunct@D@std@@@8			; std::numpunct<char> `RTTI Type Descriptor'
PUBLIC	??_R3?$numpunct@D@std@@8			; std::numpunct<char>::`RTTI Class Hierarchy Descriptor'
PUBLIC	??_R2?$numpunct@D@std@@8			; std::numpunct<char>::`RTTI Base Class Array'
PUBLIC	??_R1A@?0A@EA@?$numpunct@D@std@@8		; std::numpunct<char>::`RTTI Base Class Descriptor at (0,-1,0,64)'
PUBLIC	__real@3eb33333
PUBLIC	__real@4202a05f20000000
PUBLIC	__real@447a0000
PUBLIC	__xmm@41f00000000000000000000000000000
PUBLIC	__xmm@7fffffffffffffff7fffffffffffffff
EXTRN	__purecall:PROC
EXTRN	??2@YAPAXI@Z:PROC				; operator new
EXTRN	??3@YAXPAXI@Z:PROC				; operator delete
EXTRN	??_V@YAXPAX@Z:PROC				; operator delete[]
EXTRN	___std_terminate:PROC
EXTRN	__invalid_parameter_noinfo_noreturn:PROC
EXTRN	??0_Lockit@std@@QAE@H@Z:PROC			; std::_Lockit::_Lockit
EXTRN	??1_Lockit@std@@QAE@XZ:PROC			; std::_Lockit::~_Lockit
EXTRN	_calloc:PROC
EXTRN	_free:PROC
EXTRN	_exit:PROC
EXTRN	_srand:PROC
EXTRN	_frexp:PROC
EXTRN	___stdio_common_vsprintf:PROC
EXTRN	___stdio_common_vsprintf_s:PROC
EXTRN	_strcspn:PROC
EXTRN	?uncaught_exception@std@@YA_NXZ:PROC		; std::uncaught_exception
EXTRN	_terminate:PROC
EXTRN	___std_exception_copy:PROC
EXTRN	___std_exception_destroy:PROC
EXTRN	??_Eexception@std@@UAEPAXI@Z:PROC		; std::exception::`vector deleting destructor'
EXTRN	?_Xbad_alloc@std@@YAXXZ:PROC			; std::_Xbad_alloc
EXTRN	?_Xlength_error@std@@YAXPBD@Z:PROC		; std::_Xlength_error
EXTRN	?_Xout_of_range@std@@YAXPBD@Z:PROC		; std::_Xout_of_range
EXTRN	??_Eruntime_error@std@@UAEPAXI@Z:PROC		; std::runtime_error::`vector deleting destructor'
EXTRN	??_Ebad_cast@std@@UAEPAXI@Z:PROC		; std::bad_cast::`vector deleting destructor'
EXTRN	_localeconv:PROC
EXTRN	__Getctype:PROC
EXTRN	__Getcvt:PROC
EXTRN	__Tolower:PROC
EXTRN	__Toupper:PROC
EXTRN	?_Locinfo_ctor@_Locinfo@std@@SAXPAV12@PBD@Z:PROC ; std::_Locinfo::_Locinfo_ctor
EXTRN	?_Locinfo_dtor@_Locinfo@std@@SAXPAV12@@Z:PROC	; std::_Locinfo::_Locinfo_dtor
EXTRN	??_E_Facet_base@std@@UAEPAXI@Z:PROC		; std::_Facet_base::`vector deleting destructor'
EXTRN	?_Facet_Register@std@@YAXPAV_Facet_base@1@@Z:PROC ; std::_Facet_Register
EXTRN	??_Efacet@locale@std@@MAEPAXI@Z:PROC		; std::locale::facet::`vector deleting destructor'
EXTRN	?_Getgloballocale@locale@std@@CAPAV_Locimp@12@XZ:PROC ; std::locale::_Getgloballocale
EXTRN	??_Ectype_base@std@@UAEPAXI@Z:PROC		; std::ctype_base::`vector deleting destructor'
EXTRN	??_E?$ctype@D@std@@MAEPAXI@Z:PROC		; std::ctype<char>::`vector deleting destructor'
EXTRN	?_Execute_once@std@@YAHAAUonce_flag@1@P6GHPAX1PAPAX@Z1@Z:PROC ; std::_Execute_once
EXTRN	??_E_System_error@std@@UAEPAXI@Z:PROC		; std::_System_error::`vector deleting destructor'
EXTRN	??_Esystem_error@std@@UAEPAXI@Z:PROC		; std::system_error::`vector deleting destructor'
EXTRN	?_Syserror_map@std@@YAPBDH@Z:PROC		; std::_Syserror_map
EXTRN	??_E_Generic_error_category@std@@UAEPAXI@Z:PROC	; std::_Generic_error_category::`vector deleting destructor'
EXTRN	??_E_Iostream_error_category@std@@UAEPAXI@Z:PROC ; std::_Iostream_error_category::`vector deleting destructor'
EXTRN	??_Efailure@ios_base@std@@UAEPAXI@Z:PROC	; std::ios_base::failure::`vector deleting destructor'
EXTRN	__time64:PROC
EXTRN	_SDL_GetError:PROC
EXTRN	_SDL_CreateWindow:PROC
EXTRN	_SDL_DestroyWindow:PROC
EXTRN	_SDL_GetKeyboardState:PROC
EXTRN	_SDL_PollEvent:PROC
EXTRN	_SDL_CreateRenderer:PROC
EXTRN	_SDL_RenderPresent:PROC
EXTRN	_SDL_DestroyRenderer:PROC
EXTRN	_SDL_GetTicks:PROC
EXTRN	_SDL_Init:PROC
EXTRN	_SDL_Quit:PROC
EXTRN	_TTF_Init:PROC
EXTRN	_TTF_OpenFont:PROC
EXTRN	_TTF_CloseFont:PROC
EXTRN	_TTF_Quit:PROC
EXTRN	?Instance@Graphics@graphics@core@@SAPAV123@XZ:PROC ; core::graphics::Graphics::Instance
EXTRN	?DrawFillRect@Graphics@graphics@core@@QAEXHHHHVColor@3@@Z:PROC ; core::graphics::Graphics::DrawFillRect
EXTRN	?DrawText@Graphics@graphics@core@@QAEXPAU_TTF_Font@@PBDHHW4TextAlign@23@VColor@3@@Z:PROC ; core::graphics::Graphics::DrawText
EXTRN	?FillBackground@Graphics@graphics@core@@QAEXVColor@3@@Z:PROC ; core::graphics::Graphics::FillBackground
EXTRN	?ComputePoints@Stats@gameplay@core@@QAEXXZ:PROC	; core::gameplay::Stats::ComputePoints
EXTRN	?GetLinesForNextLevel@Stats@gameplay@core@@QAEHXZ:PROC ; core::gameplay::Stats::GetLinesForNextLevel
EXTRN	??0Board@gameplay@core@@QAE@HHHH@Z:PROC		; core::gameplay::Board::Board
EXTRN	?DrawBoard@Board@gameplay@core@@QAEXHH@Z:PROC	; core::gameplay::Board::DrawBoard
EXTRN	?IsRowEmpty@Board@gameplay@core@@QAE_NH@Z:PROC	; core::gameplay::Board::IsRowEmpty
EXTRN	?FindLines@Board@gameplay@core@@QAEXPAVStats@23@@Z:PROC ; core::gameplay::Board::FindLines
EXTRN	?ClearLines@Board@gameplay@core@@QAEXPAVStats@23@@Z:PROC ; core::gameplay::Board::ClearLines
EXTRN	?IsValid@Piece@gameplay@core@@QAE_NXZ:PROC	; core::gameplay::Piece::IsValid
EXTRN	?HardDrop@Piece@gameplay@core@@QAEXXZ:PROC	; core::gameplay::Piece::HardDrop
EXTRN	?SoftDrop@Piece@gameplay@core@@QAE_NXZ:PROC	; core::gameplay::Piece::SoftDrop
EXTRN	?SpawnNewPiece@Piece@gameplay@core@@QAEXXZ:PROC	; core::gameplay::Piece::SpawnNewPiece
EXTRN	?DrawPiece@Piece@gameplay@core@@QAEXHH_N@Z:PROC	; core::gameplay::Piece::DrawPiece
EXTRN	??_E?$num_put@DV?$ostreambuf_iterator@DU?$char_traits@D@std@@@std@@@std@@MAEPAXI@Z:PROC ; std::num_put<char,std::ostreambuf_iterator<char,std::char_traits<char> > >::`vector deleting destructor'
EXTRN	??_E?$numpunct@D@std@@MAEPAXI@Z:PROC		; std::numpunct<char>::`vector deleting destructor'
EXTRN	@__security_check_cookie@4:PROC
EXTRN	__CxxThrowException@8:PROC
EXTRN	___CxxFrameHandler3:PROC
EXTRN	__chkstk:PROC
EXTRN	_memcpy:PROC
EXTRN	_memmove:PROC
EXTRN	_memset:PROC
EXTRN	??_7type_info@@6B@:QWORD			; type_info::`vftable'
EXTRN	?_Id_cnt@id@locale@std@@0HA:DWORD		; std::locale::id::_Id_cnt
EXTRN	?id@?$ctype@D@std@@2V0locale@2@A:DWORD		; std::ctype<char>::id
EXTRN	?cout@std@@3V?$basic_ostream@DU?$char_traits@D@std@@@1@A:BYTE ; std::cout
EXTRN	?cerr@std@@3V?$basic_ostream@DU?$char_traits@D@std@@@1@A:BYTE ; std::cerr
EXTRN	?s_highlightColor@Palette@core@@2VColor@2@B:DWORD ; core::Palette::s_highlightColor
EXTRN	___security_cookie:DWORD
EXTRN	__fltused:DWORD
;	COMDAT ?_OptionsStorage@?1??__local_stdio_printf_options@@9@4_KA
_BSS	SEGMENT
?_OptionsStorage@?1??__local_stdio_printf_options@@9@4_KA DQ 01H DUP (?) ; `__local_stdio_printf_options'::`2'::_OptionsStorage
_BSS	ENDS
;	COMDAT ?id@?$num_put@DV?$ostreambuf_iterator@DU?$char_traits@D@std@@@std@@@std@@2V0locale@2@A
_BSS	SEGMENT
?id@?$num_put@DV?$ostreambuf_iterator@DU?$char_traits@D@std@@@std@@@std@@2V0locale@2@A DD 01H DUP (?) ; std::num_put<char,std::ostreambuf_iterator<char,std::char_traits<char> > >::id
_BSS	ENDS
;	COMDAT ?id@?$numpunct@D@std@@2V0locale@2@A
_BSS	SEGMENT
?id@?$numpunct@D@std@@2V0locale@2@A DD 01H DUP (?)	; std::numpunct<char>::id
_BSS	ENDS
;	COMDAT ?_Psave@?$_Facetptr@V?$ctype@D@std@@@std@@2PBVfacet@locale@2@B
_BSS	SEGMENT
?_Psave@?$_Facetptr@V?$ctype@D@std@@@std@@2PBVfacet@locale@2@B DD 01H DUP (?) ; std::_Facetptr<std::ctype<char> >::_Psave
_BSS	ENDS
;	COMDAT ?_Flag@?1???$_Immortalize@V_Iostream_error_category@std@@@std@@YAAAV_Iostream_error_category@1@XZ@4PAXA
_BSS	SEGMENT
?_Flag@?1???$_Immortalize@V_Iostream_error_category@std@@@std@@YAAAV_Iostream_error_category@1@XZ@4PAXA DD 01H DUP (?) ; `std::_Immortalize<std::_Iostream_error_category>'::`2'::_Flag
_BSS	ENDS
;	COMDAT ?_Storage@?1???$_Immortalize@V_Iostream_error_category@std@@@std@@YAAAV_Iostream_error_category@1@XZ@4T?$_Align_type@H$07@1@A
_BSS	SEGMENT
?_Storage@?1???$_Immortalize@V_Iostream_error_category@std@@@std@@YAAAV_Iostream_error_category@1@XZ@4T?$_Align_type@H$07@1@A DQ 01H DUP (?) ; `std::_Immortalize<std::_Iostream_error_category>'::`2'::_Storage
_BSS	ENDS
;	COMDAT ?_Psave@?$_Facetptr@V?$num_put@DV?$ostreambuf_iterator@DU?$char_traits@D@std@@@std@@@std@@@std@@2PBVfacet@locale@2@B
_BSS	SEGMENT
?_Psave@?$_Facetptr@V?$num_put@DV?$ostreambuf_iterator@DU?$char_traits@D@std@@@std@@@std@@@std@@2PBVfacet@locale@2@B DD 01H DUP (?) ; std::_Facetptr<std::num_put<char,std::ostreambuf_iterator<char,std::char_traits<char> > > >::_Psave
_BSS	ENDS
;	COMDAT ?_Psave@?$_Facetptr@V?$numpunct@D@std@@@std@@2PBVfacet@locale@2@B
_BSS	SEGMENT
?_Psave@?$_Facetptr@V?$numpunct@D@std@@@std@@2PBVfacet@locale@2@B DD 01H DUP (?) ; std::_Facetptr<std::numpunct<char> >::_Psave
_BSS	ENDS
;	COMDAT __xmm@7fffffffffffffff7fffffffffffffff
CONST	SEGMENT
__xmm@7fffffffffffffff7fffffffffffffff DB 0ffH, 0ffH, 0ffH, 0ffH, 0ffH, 0ffH
	DB	0ffH, 07fH, 0ffH, 0ffH, 0ffH, 0ffH, 0ffH, 0ffH, 0ffH, 07fH
CONST	ENDS
;	COMDAT __xmm@41f00000000000000000000000000000
CONST	SEGMENT
__xmm@41f00000000000000000000000000000 DB 00H, 00H, 00H, 00H, 00H, 00H, 00H
	DB	00H, 00H, 00H, 00H, 00H, 00H, 00H, 0f0H, 'A'
CONST	ENDS
;	COMDAT __real@447a0000
CONST	SEGMENT
__real@447a0000 DD 0447a0000r			; 1000
CONST	ENDS
;	COMDAT __real@4202a05f20000000
CONST	SEGMENT
__real@4202a05f20000000 DQ 04202a05f20000000r	; 1e+10
CONST	ENDS
;	COMDAT __real@3eb33333
CONST	SEGMENT
__real@3eb33333 DD 03eb33333r			; 0.35
CONST	ENDS
;	COMDAT ??_R1A@?0A@EA@?$numpunct@D@std@@8
rdata$r	SEGMENT
??_R1A@?0A@EA@?$numpunct@D@std@@8 DD FLAT:??_R0?AV?$numpunct@D@std@@@8 ; std::numpunct<char>::`RTTI Base Class Descriptor at (0,-1,0,64)'
	DD	03H
	DD	00H
	DD	0ffffffffH
	DD	00H
	DD	040H
	DD	FLAT:??_R3?$numpunct@D@std@@8
rdata$r	ENDS
;	COMDAT ??_R2?$numpunct@D@std@@8
rdata$r	SEGMENT
??_R2?$numpunct@D@std@@8 DD FLAT:??_R1A@?0A@EA@?$numpunct@D@std@@8 ; std::numpunct<char>::`RTTI Base Class Array'
	DD	FLAT:??_R1A@?0A@EA@facet@locale@std@@8
	DD	FLAT:??_R1A@?0A@EA@_Facet_base@std@@8
	DD	FLAT:??_R13?0A@EA@_Crt_new_delete@std@@8
rdata$r	ENDS
;	COMDAT ??_R3?$numpunct@D@std@@8
rdata$r	SEGMENT
??_R3?$numpunct@D@std@@8 DD 00H				; std::numpunct<char>::`RTTI Class Hierarchy Descriptor'
	DD	01H
	DD	04H
	DD	FLAT:??_R2?$numpunct@D@std@@8
rdata$r	ENDS
;	COMDAT ??_R0?AV?$numpunct@D@std@@@8
data$r	SEGMENT
??_R0?AV?$numpunct@D@std@@@8 DD FLAT:??_7type_info@@6B@	; std::numpunct<char> `RTTI Type Descriptor'
	DD	00H
	DB	'.?AV?$numpunct@D@std@@', 00H
data$r	ENDS
;	COMDAT ??_R4?$numpunct@D@std@@6B@
rdata$r	SEGMENT
??_R4?$numpunct@D@std@@6B@ DD 00H			; std::numpunct<char>::`RTTI Complete Object Locator'
	DD	00H
	DD	00H
	DD	FLAT:??_R0?AV?$numpunct@D@std@@@8
	DD	FLAT:??_R3?$numpunct@D@std@@8
rdata$r	ENDS
;	COMDAT ??_R1A@?0A@EA@?$num_put@DV?$ostreambuf_iterator@DU?$char_traits@D@std@@@std@@@std@@8
rdata$r	SEGMENT
??_R1A@?0A@EA@?$num_put@DV?$ostreambuf_iterator@DU?$char_traits@D@std@@@std@@@std@@8 DD FLAT:??_R0?AV?$num_put@DV?$ostreambuf_iterator@DU?$char_traits@D@std@@@std@@@std@@@8 ; std::num_put<char,std::ostreambuf_iterator<char,std::char_traits<char> > >::`RTTI Base Class Descriptor at (0,-1,0,64)'
	DD	03H
	DD	00H
	DD	0ffffffffH
	DD	00H
	DD	040H
	DD	FLAT:??_R3?$num_put@DV?$ostreambuf_iterator@DU?$char_traits@D@std@@@std@@@std@@8
rdata$r	ENDS
;	COMDAT ??_R2?$num_put@DV?$ostreambuf_iterator@DU?$char_traits@D@std@@@std@@@std@@8
rdata$r	SEGMENT
??_R2?$num_put@DV?$ostreambuf_iterator@DU?$char_traits@D@std@@@std@@@std@@8 DD FLAT:??_R1A@?0A@EA@?$num_put@DV?$ostreambuf_iterator@DU?$char_traits@D@std@@@std@@@std@@8 ; std::num_put<char,std::ostreambuf_iterator<char,std::char_traits<char> > >::`RTTI Base Class Array'
	DD	FLAT:??_R1A@?0A@EA@facet@locale@std@@8
	DD	FLAT:??_R1A@?0A@EA@_Facet_base@std@@8
	DD	FLAT:??_R13?0A@EA@_Crt_new_delete@std@@8
rdata$r	ENDS
;	COMDAT ??_R3?$num_put@DV?$ostreambuf_iterator@DU?$char_traits@D@std@@@std@@@std@@8
rdata$r	SEGMENT
??_R3?$num_put@DV?$ostreambuf_iterator@DU?$char_traits@D@std@@@std@@@std@@8 DD 00H ; std::num_put<char,std::ostreambuf_iterator<char,std::char_traits<char> > >::`RTTI Class Hierarchy Descriptor'
	DD	01H
	DD	04H
	DD	FLAT:??_R2?$num_put@DV?$ostreambuf_iterator@DU?$char_traits@D@std@@@std@@@std@@8
rdata$r	ENDS
;	COMDAT ??_R0?AV?$num_put@DV?$ostreambuf_iterator@DU?$char_traits@D@std@@@std@@@std@@@8
data$r	SEGMENT
??_R0?AV?$num_put@DV?$ostreambuf_iterator@DU?$char_traits@D@std@@@std@@@std@@@8 DD FLAT:??_7type_info@@6B@ ; std::num_put<char,std::ostreambuf_iterator<char,std::char_traits<char> > > `RTTI Type Descriptor'
	DD	00H
	DB	'.?AV?$num_put@DV?$ostreambuf_iterator@DU?$char_traits@D@'
	DB	'std@@@std@@@std@@', 00H
data$r	ENDS
;	COMDAT ??_R4?$num_put@DV?$ostreambuf_iterator@DU?$char_traits@D@std@@@std@@@std@@6B@
rdata$r	SEGMENT
??_R4?$num_put@DV?$ostreambuf_iterator@DU?$char_traits@D@std@@@std@@@std@@6B@ DD 00H ; std::num_put<char,std::ostreambuf_iterator<char,std::char_traits<char> > >::`RTTI Complete Object Locator'
	DD	00H
	DD	00H
	DD	FLAT:??_R0?AV?$num_put@DV?$ostreambuf_iterator@DU?$char_traits@D@std@@@std@@@std@@@8
	DD	FLAT:??_R3?$num_put@DV?$ostreambuf_iterator@DU?$char_traits@D@std@@@std@@@std@@8
rdata$r	ENDS
;	COMDAT ??_R1A@?0A@EA@failure@ios_base@std@@8
rdata$r	SEGMENT
??_R1A@?0A@EA@failure@ios_base@std@@8 DD FLAT:??_R0?AVfailure@ios_base@std@@@8 ; std::ios_base::failure::`RTTI Base Class Descriptor at (0,-1,0,64)'
	DD	04H
	DD	00H
	DD	0ffffffffH
	DD	00H
	DD	040H
	DD	FLAT:??_R3failure@ios_base@std@@8
rdata$r	ENDS
;	COMDAT ??_R2failure@ios_base@std@@8
rdata$r	SEGMENT
??_R2failure@ios_base@std@@8 DD FLAT:??_R1A@?0A@EA@failure@ios_base@std@@8 ; std::ios_base::failure::`RTTI Base Class Array'
	DD	FLAT:??_R1A@?0A@EA@system_error@std@@8
	DD	FLAT:??_R1A@?0A@EA@_System_error@std@@8
	DD	FLAT:??_R1A@?0A@EA@runtime_error@std@@8
	DD	FLAT:??_R1A@?0A@EA@exception@std@@8
rdata$r	ENDS
;	COMDAT ??_R3failure@ios_base@std@@8
rdata$r	SEGMENT
??_R3failure@ios_base@std@@8 DD 00H			; std::ios_base::failure::`RTTI Class Hierarchy Descriptor'
	DD	00H
	DD	05H
	DD	FLAT:??_R2failure@ios_base@std@@8
rdata$r	ENDS
;	COMDAT ??_R4failure@ios_base@std@@6B@
rdata$r	SEGMENT
??_R4failure@ios_base@std@@6B@ DD 00H			; std::ios_base::failure::`RTTI Complete Object Locator'
	DD	00H
	DD	00H
	DD	FLAT:??_R0?AVfailure@ios_base@std@@@8
	DD	FLAT:??_R3failure@ios_base@std@@8
rdata$r	ENDS
;	COMDAT ??_R1A@?0A@EA@_Iostream_error_category@std@@8
rdata$r	SEGMENT
??_R1A@?0A@EA@_Iostream_error_category@std@@8 DD FLAT:??_R0?AV_Iostream_error_category@std@@@8 ; std::_Iostream_error_category::`RTTI Base Class Descriptor at (0,-1,0,64)'
	DD	02H
	DD	00H
	DD	0ffffffffH
	DD	00H
	DD	040H
	DD	FLAT:??_R3_Iostream_error_category@std@@8
rdata$r	ENDS
;	COMDAT ??_R2_Iostream_error_category@std@@8
rdata$r	SEGMENT
??_R2_Iostream_error_category@std@@8 DD FLAT:??_R1A@?0A@EA@_Iostream_error_category@std@@8 ; std::_Iostream_error_category::`RTTI Base Class Array'
	DD	FLAT:??_R1A@?0A@EA@_Generic_error_category@std@@8
	DD	FLAT:??_R1A@?0A@EA@error_category@std@@8
rdata$r	ENDS
;	COMDAT ??_R3_Iostream_error_category@std@@8
rdata$r	SEGMENT
??_R3_Iostream_error_category@std@@8 DD 00H		; std::_Iostream_error_category::`RTTI Class Hierarchy Descriptor'
	DD	00H
	DD	03H
	DD	FLAT:??_R2_Iostream_error_category@std@@8
rdata$r	ENDS
;	COMDAT ??_R0?AV_Iostream_error_category@std@@@8
data$r	SEGMENT
??_R0?AV_Iostream_error_category@std@@@8 DD FLAT:??_7type_info@@6B@ ; std::_Iostream_error_category `RTTI Type Descriptor'
	DD	00H
	DB	'.?AV_Iostream_error_category@std@@', 00H
data$r	ENDS
;	COMDAT ??_R4_Iostream_error_category@std@@6B@
rdata$r	SEGMENT
??_R4_Iostream_error_category@std@@6B@ DD 00H		; std::_Iostream_error_category::`RTTI Complete Object Locator'
	DD	00H
	DD	00H
	DD	FLAT:??_R0?AV_Iostream_error_category@std@@@8
	DD	FLAT:??_R3_Iostream_error_category@std@@8
rdata$r	ENDS
;	COMDAT ??_R1A@?0A@EA@_Generic_error_category@std@@8
rdata$r	SEGMENT
??_R1A@?0A@EA@_Generic_error_category@std@@8 DD FLAT:??_R0?AV_Generic_error_category@std@@@8 ; std::_Generic_error_category::`RTTI Base Class Descriptor at (0,-1,0,64)'
	DD	01H
	DD	00H
	DD	0ffffffffH
	DD	00H
	DD	040H
	DD	FLAT:??_R3_Generic_error_category@std@@8
rdata$r	ENDS
;	COMDAT ??_R2_Generic_error_category@std@@8
rdata$r	SEGMENT
??_R2_Generic_error_category@std@@8 DD FLAT:??_R1A@?0A@EA@_Generic_error_category@std@@8 ; std::_Generic_error_category::`RTTI Base Class Array'
	DD	FLAT:??_R1A@?0A@EA@error_category@std@@8
rdata$r	ENDS
;	COMDAT ??_R3_Generic_error_category@std@@8
rdata$r	SEGMENT
??_R3_Generic_error_category@std@@8 DD 00H		; std::_Generic_error_category::`RTTI Class Hierarchy Descriptor'
	DD	00H
	DD	02H
	DD	FLAT:??_R2_Generic_error_category@std@@8
rdata$r	ENDS
;	COMDAT ??_R0?AV_Generic_error_category@std@@@8
data$r	SEGMENT
??_R0?AV_Generic_error_category@std@@@8 DD FLAT:??_7type_info@@6B@ ; std::_Generic_error_category `RTTI Type Descriptor'
	DD	00H
	DB	'.?AV_Generic_error_category@std@@', 00H
data$r	ENDS
;	COMDAT ??_R4_Generic_error_category@std@@6B@
rdata$r	SEGMENT
??_R4_Generic_error_category@std@@6B@ DD 00H		; std::_Generic_error_category::`RTTI Complete Object Locator'
	DD	00H
	DD	00H
	DD	FLAT:??_R0?AV_Generic_error_category@std@@@8
	DD	FLAT:??_R3_Generic_error_category@std@@8
rdata$r	ENDS
;	COMDAT ??_R1A@?0A@EA@system_error@std@@8
rdata$r	SEGMENT
??_R1A@?0A@EA@system_error@std@@8 DD FLAT:??_R0?AVsystem_error@std@@@8 ; std::system_error::`RTTI Base Class Descriptor at (0,-1,0,64)'
	DD	03H
	DD	00H
	DD	0ffffffffH
	DD	00H
	DD	040H
	DD	FLAT:??_R3system_error@std@@8
rdata$r	ENDS
;	COMDAT ??_R2system_error@std@@8
rdata$r	SEGMENT
??_R2system_error@std@@8 DD FLAT:??_R1A@?0A@EA@system_error@std@@8 ; std::system_error::`RTTI Base Class Array'
	DD	FLAT:??_R1A@?0A@EA@_System_error@std@@8
	DD	FLAT:??_R1A@?0A@EA@runtime_error@std@@8
	DD	FLAT:??_R1A@?0A@EA@exception@std@@8
rdata$r	ENDS
;	COMDAT ??_R3system_error@std@@8
rdata$r	SEGMENT
??_R3system_error@std@@8 DD 00H				; std::system_error::`RTTI Class Hierarchy Descriptor'
	DD	00H
	DD	04H
	DD	FLAT:??_R2system_error@std@@8
rdata$r	ENDS
;	COMDAT ??_R4system_error@std@@6B@
rdata$r	SEGMENT
??_R4system_error@std@@6B@ DD 00H			; std::system_error::`RTTI Complete Object Locator'
	DD	00H
	DD	00H
	DD	FLAT:??_R0?AVsystem_error@std@@@8
	DD	FLAT:??_R3system_error@std@@8
rdata$r	ENDS
;	COMDAT ??_R1A@?0A@EA@_System_error@std@@8
rdata$r	SEGMENT
??_R1A@?0A@EA@_System_error@std@@8 DD FLAT:??_R0?AV_System_error@std@@@8 ; std::_System_error::`RTTI Base Class Descriptor at (0,-1,0,64)'
	DD	02H
	DD	00H
	DD	0ffffffffH
	DD	00H
	DD	040H
	DD	FLAT:??_R3_System_error@std@@8
rdata$r	ENDS
;	COMDAT ??_R2_System_error@std@@8
rdata$r	SEGMENT
??_R2_System_error@std@@8 DD FLAT:??_R1A@?0A@EA@_System_error@std@@8 ; std::_System_error::`RTTI Base Class Array'
	DD	FLAT:??_R1A@?0A@EA@runtime_error@std@@8
	DD	FLAT:??_R1A@?0A@EA@exception@std@@8
rdata$r	ENDS
;	COMDAT ??_R3_System_error@std@@8
rdata$r	SEGMENT
??_R3_System_error@std@@8 DD 00H			; std::_System_error::`RTTI Class Hierarchy Descriptor'
	DD	00H
	DD	03H
	DD	FLAT:??_R2_System_error@std@@8
rdata$r	ENDS
;	COMDAT ??_R4_System_error@std@@6B@
rdata$r	SEGMENT
??_R4_System_error@std@@6B@ DD 00H			; std::_System_error::`RTTI Complete Object Locator'
	DD	00H
	DD	00H
	DD	FLAT:??_R0?AV_System_error@std@@@8
	DD	FLAT:??_R3_System_error@std@@8
rdata$r	ENDS
;	COMDAT ??_R1A@?0A@EA@error_category@std@@8
rdata$r	SEGMENT
??_R1A@?0A@EA@error_category@std@@8 DD FLAT:??_R0?AVerror_category@std@@@8 ; std::error_category::`RTTI Base Class Descriptor at (0,-1,0,64)'
	DD	00H
	DD	00H
	DD	0ffffffffH
	DD	00H
	DD	040H
	DD	FLAT:??_R3error_category@std@@8
rdata$r	ENDS
;	COMDAT ??_R2error_category@std@@8
rdata$r	SEGMENT
??_R2error_category@std@@8 DD FLAT:??_R1A@?0A@EA@error_category@std@@8 ; std::error_category::`RTTI Base Class Array'
rdata$r	ENDS
;	COMDAT ??_R3error_category@std@@8
rdata$r	SEGMENT
??_R3error_category@std@@8 DD 00H			; std::error_category::`RTTI Class Hierarchy Descriptor'
	DD	00H
	DD	01H
	DD	FLAT:??_R2error_category@std@@8
rdata$r	ENDS
;	COMDAT ??_R0?AVerror_category@std@@@8
data$r	SEGMENT
??_R0?AVerror_category@std@@@8 DD FLAT:??_7type_info@@6B@ ; std::error_category `RTTI Type Descriptor'
	DD	00H
	DB	'.?AVerror_category@std@@', 00H
data$r	ENDS
;	COMDAT ??_R1A@?0A@EA@?$ctype@D@std@@8
rdata$r	SEGMENT
??_R1A@?0A@EA@?$ctype@D@std@@8 DD FLAT:??_R0?AV?$ctype@D@std@@@8 ; std::ctype<char>::`RTTI Base Class Descriptor at (0,-1,0,64)'
	DD	04H
	DD	00H
	DD	0ffffffffH
	DD	00H
	DD	040H
	DD	FLAT:??_R3?$ctype@D@std@@8
rdata$r	ENDS
;	COMDAT ??_R2?$ctype@D@std@@8
rdata$r	SEGMENT
??_R2?$ctype@D@std@@8 DD FLAT:??_R1A@?0A@EA@?$ctype@D@std@@8 ; std::ctype<char>::`RTTI Base Class Array'
	DD	FLAT:??_R1A@?0A@EA@ctype_base@std@@8
	DD	FLAT:??_R1A@?0A@EA@facet@locale@std@@8
	DD	FLAT:??_R1A@?0A@EA@_Facet_base@std@@8
	DD	FLAT:??_R13?0A@EA@_Crt_new_delete@std@@8
rdata$r	ENDS
;	COMDAT ??_R3?$ctype@D@std@@8
rdata$r	SEGMENT
??_R3?$ctype@D@std@@8 DD 00H				; std::ctype<char>::`RTTI Class Hierarchy Descriptor'
	DD	01H
	DD	05H
	DD	FLAT:??_R2?$ctype@D@std@@8
rdata$r	ENDS
;	COMDAT ??_R0?AV?$ctype@D@std@@@8
data$r	SEGMENT
??_R0?AV?$ctype@D@std@@@8 DD FLAT:??_7type_info@@6B@	; std::ctype<char> `RTTI Type Descriptor'
	DD	00H
	DB	'.?AV?$ctype@D@std@@', 00H
data$r	ENDS
;	COMDAT ??_R4?$ctype@D@std@@6B@
rdata$r	SEGMENT
??_R4?$ctype@D@std@@6B@ DD 00H				; std::ctype<char>::`RTTI Complete Object Locator'
	DD	00H
	DD	00H
	DD	FLAT:??_R0?AV?$ctype@D@std@@@8
	DD	FLAT:??_R3?$ctype@D@std@@8
rdata$r	ENDS
;	COMDAT ??_R1A@?0A@EA@ctype_base@std@@8
rdata$r	SEGMENT
??_R1A@?0A@EA@ctype_base@std@@8 DD FLAT:??_R0?AUctype_base@std@@@8 ; std::ctype_base::`RTTI Base Class Descriptor at (0,-1,0,64)'
	DD	03H
	DD	00H
	DD	0ffffffffH
	DD	00H
	DD	040H
	DD	FLAT:??_R3ctype_base@std@@8
rdata$r	ENDS
;	COMDAT ??_R2ctype_base@std@@8
rdata$r	SEGMENT
??_R2ctype_base@std@@8 DD FLAT:??_R1A@?0A@EA@ctype_base@std@@8 ; std::ctype_base::`RTTI Base Class Array'
	DD	FLAT:??_R1A@?0A@EA@facet@locale@std@@8
	DD	FLAT:??_R1A@?0A@EA@_Facet_base@std@@8
	DD	FLAT:??_R13?0A@EA@_Crt_new_delete@std@@8
rdata$r	ENDS
;	COMDAT ??_R3ctype_base@std@@8
rdata$r	SEGMENT
??_R3ctype_base@std@@8 DD 00H				; std::ctype_base::`RTTI Class Hierarchy Descriptor'
	DD	01H
	DD	04H
	DD	FLAT:??_R2ctype_base@std@@8
rdata$r	ENDS
;	COMDAT ??_R0?AUctype_base@std@@@8
data$r	SEGMENT
??_R0?AUctype_base@std@@@8 DD FLAT:??_7type_info@@6B@	; std::ctype_base `RTTI Type Descriptor'
	DD	00H
	DB	'.?AUctype_base@std@@', 00H
data$r	ENDS
;	COMDAT ??_R4ctype_base@std@@6B@
rdata$r	SEGMENT
??_R4ctype_base@std@@6B@ DD 00H				; std::ctype_base::`RTTI Complete Object Locator'
	DD	00H
	DD	00H
	DD	FLAT:??_R0?AUctype_base@std@@@8
	DD	FLAT:??_R3ctype_base@std@@8
rdata$r	ENDS
;	COMDAT ??_R4facet@locale@std@@6B@
rdata$r	SEGMENT
??_R4facet@locale@std@@6B@ DD 00H			; std::locale::facet::`RTTI Complete Object Locator'
	DD	00H
	DD	00H
	DD	FLAT:??_R0?AVfacet@locale@std@@@8
	DD	FLAT:??_R3facet@locale@std@@8
rdata$r	ENDS
;	COMDAT ??_R1A@?0A@EA@_Crt_new_delete@std@@8
rdata$r	SEGMENT
??_R1A@?0A@EA@_Crt_new_delete@std@@8 DD FLAT:??_R0?AU_Crt_new_delete@std@@@8 ; std::_Crt_new_delete::`RTTI Base Class Descriptor at (0,-1,0,64)'
	DD	00H
	DD	00H
	DD	0ffffffffH
	DD	00H
	DD	040H
	DD	FLAT:??_R3_Crt_new_delete@std@@8
rdata$r	ENDS
;	COMDAT ??_R2_Crt_new_delete@std@@8
rdata$r	SEGMENT
??_R2_Crt_new_delete@std@@8 DD FLAT:??_R1A@?0A@EA@_Crt_new_delete@std@@8 ; std::_Crt_new_delete::`RTTI Base Class Array'
rdata$r	ENDS
;	COMDAT ??_R3_Crt_new_delete@std@@8
rdata$r	SEGMENT
??_R3_Crt_new_delete@std@@8 DD 00H			; std::_Crt_new_delete::`RTTI Class Hierarchy Descriptor'
	DD	00H
	DD	01H
	DD	FLAT:??_R2_Crt_new_delete@std@@8
rdata$r	ENDS
;	COMDAT ??_R0?AU_Crt_new_delete@std@@@8
data$r	SEGMENT
??_R0?AU_Crt_new_delete@std@@@8 DD FLAT:??_7type_info@@6B@ ; std::_Crt_new_delete `RTTI Type Descriptor'
	DD	00H
	DB	'.?AU_Crt_new_delete@std@@', 00H
data$r	ENDS
;	COMDAT ??_R13?0A@EA@_Crt_new_delete@std@@8
rdata$r	SEGMENT
??_R13?0A@EA@_Crt_new_delete@std@@8 DD FLAT:??_R0?AU_Crt_new_delete@std@@@8 ; std::_Crt_new_delete::`RTTI Base Class Descriptor at (4,-1,0,64)'
	DD	00H
	DD	04H
	DD	0ffffffffH
	DD	00H
	DD	040H
	DD	FLAT:??_R3_Crt_new_delete@std@@8
rdata$r	ENDS
;	COMDAT ??_R2facet@locale@std@@8
rdata$r	SEGMENT
??_R2facet@locale@std@@8 DD FLAT:??_R1A@?0A@EA@facet@locale@std@@8 ; std::locale::facet::`RTTI Base Class Array'
	DD	FLAT:??_R1A@?0A@EA@_Facet_base@std@@8
	DD	FLAT:??_R13?0A@EA@_Crt_new_delete@std@@8
rdata$r	ENDS
;	COMDAT ??_R3facet@locale@std@@8
rdata$r	SEGMENT
??_R3facet@locale@std@@8 DD 00H				; std::locale::facet::`RTTI Class Hierarchy Descriptor'
	DD	01H
	DD	03H
	DD	FLAT:??_R2facet@locale@std@@8
rdata$r	ENDS
;	COMDAT ??_R0?AVfacet@locale@std@@@8
data$r	SEGMENT
??_R0?AVfacet@locale@std@@@8 DD FLAT:??_7type_info@@6B@	; std::locale::facet `RTTI Type Descriptor'
	DD	00H
	DB	'.?AVfacet@locale@std@@', 00H
data$r	ENDS
;	COMDAT ??_R1A@?0A@EA@facet@locale@std@@8
rdata$r	SEGMENT
??_R1A@?0A@EA@facet@locale@std@@8 DD FLAT:??_R0?AVfacet@locale@std@@@8 ; std::locale::facet::`RTTI Base Class Descriptor at (0,-1,0,64)'
	DD	02H
	DD	00H
	DD	0ffffffffH
	DD	00H
	DD	040H
	DD	FLAT:??_R3facet@locale@std@@8
rdata$r	ENDS
;	COMDAT ??_R1A@?0A@EA@_Facet_base@std@@8
rdata$r	SEGMENT
??_R1A@?0A@EA@_Facet_base@std@@8 DD FLAT:??_R0?AV_Facet_base@std@@@8 ; std::_Facet_base::`RTTI Base Class Descriptor at (0,-1,0,64)'
	DD	00H
	DD	00H
	DD	0ffffffffH
	DD	00H
	DD	040H
	DD	FLAT:??_R3_Facet_base@std@@8
rdata$r	ENDS
;	COMDAT ??_R2_Facet_base@std@@8
rdata$r	SEGMENT
??_R2_Facet_base@std@@8 DD FLAT:??_R1A@?0A@EA@_Facet_base@std@@8 ; std::_Facet_base::`RTTI Base Class Array'
rdata$r	ENDS
;	COMDAT ??_R3_Facet_base@std@@8
rdata$r	SEGMENT
??_R3_Facet_base@std@@8 DD 00H				; std::_Facet_base::`RTTI Class Hierarchy Descriptor'
	DD	00H
	DD	01H
	DD	FLAT:??_R2_Facet_base@std@@8
rdata$r	ENDS
;	COMDAT ??_R0?AV_Facet_base@std@@@8
data$r	SEGMENT
??_R0?AV_Facet_base@std@@@8 DD FLAT:??_7type_info@@6B@	; std::_Facet_base `RTTI Type Descriptor'
	DD	00H
	DB	'.?AV_Facet_base@std@@', 00H
data$r	ENDS
;	COMDAT ??_R4_Facet_base@std@@6B@
rdata$r	SEGMENT
??_R4_Facet_base@std@@6B@ DD 00H			; std::_Facet_base::`RTTI Complete Object Locator'
	DD	00H
	DD	00H
	DD	FLAT:??_R0?AV_Facet_base@std@@@8
	DD	FLAT:??_R3_Facet_base@std@@8
rdata$r	ENDS
;	COMDAT ??_R1A@?0A@EA@bad_cast@std@@8
rdata$r	SEGMENT
??_R1A@?0A@EA@bad_cast@std@@8 DD FLAT:??_R0?AVbad_cast@std@@@8 ; std::bad_cast::`RTTI Base Class Descriptor at (0,-1,0,64)'
	DD	01H
	DD	00H
	DD	0ffffffffH
	DD	00H
	DD	040H
	DD	FLAT:??_R3bad_cast@std@@8
rdata$r	ENDS
;	COMDAT ??_R2bad_cast@std@@8
rdata$r	SEGMENT
??_R2bad_cast@std@@8 DD FLAT:??_R1A@?0A@EA@bad_cast@std@@8 ; std::bad_cast::`RTTI Base Class Array'
	DD	FLAT:??_R1A@?0A@EA@exception@std@@8
rdata$r	ENDS
;	COMDAT ??_R3bad_cast@std@@8
rdata$r	SEGMENT
??_R3bad_cast@std@@8 DD 00H				; std::bad_cast::`RTTI Class Hierarchy Descriptor'
	DD	00H
	DD	02H
	DD	FLAT:??_R2bad_cast@std@@8
rdata$r	ENDS
;	COMDAT ??_R4bad_cast@std@@6B@
rdata$r	SEGMENT
??_R4bad_cast@std@@6B@ DD 00H				; std::bad_cast::`RTTI Complete Object Locator'
	DD	00H
	DD	00H
	DD	FLAT:??_R0?AVbad_cast@std@@@8
	DD	FLAT:??_R3bad_cast@std@@8
rdata$r	ENDS
;	COMDAT ??_R1A@?0A@EA@runtime_error@std@@8
rdata$r	SEGMENT
??_R1A@?0A@EA@runtime_error@std@@8 DD FLAT:??_R0?AVruntime_error@std@@@8 ; std::runtime_error::`RTTI Base Class Descriptor at (0,-1,0,64)'
	DD	01H
	DD	00H
	DD	0ffffffffH
	DD	00H
	DD	040H
	DD	FLAT:??_R3runtime_error@std@@8
rdata$r	ENDS
;	COMDAT ??_R2runtime_error@std@@8
rdata$r	SEGMENT
??_R2runtime_error@std@@8 DD FLAT:??_R1A@?0A@EA@runtime_error@std@@8 ; std::runtime_error::`RTTI Base Class Array'
	DD	FLAT:??_R1A@?0A@EA@exception@std@@8
rdata$r	ENDS
;	COMDAT ??_R3runtime_error@std@@8
rdata$r	SEGMENT
??_R3runtime_error@std@@8 DD 00H			; std::runtime_error::`RTTI Class Hierarchy Descriptor'
	DD	00H
	DD	02H
	DD	FLAT:??_R2runtime_error@std@@8
rdata$r	ENDS
;	COMDAT ??_R4runtime_error@std@@6B@
rdata$r	SEGMENT
??_R4runtime_error@std@@6B@ DD 00H			; std::runtime_error::`RTTI Complete Object Locator'
	DD	00H
	DD	00H
	DD	FLAT:??_R0?AVruntime_error@std@@@8
	DD	FLAT:??_R3runtime_error@std@@8
rdata$r	ENDS
;	COMDAT ??_R1A@?0A@EA@exception@std@@8
rdata$r	SEGMENT
??_R1A@?0A@EA@exception@std@@8 DD FLAT:??_R0?AVexception@std@@@8 ; std::exception::`RTTI Base Class Descriptor at (0,-1,0,64)'
	DD	00H
	DD	00H
	DD	0ffffffffH
	DD	00H
	DD	040H
	DD	FLAT:??_R3exception@std@@8
rdata$r	ENDS
;	COMDAT ??_R2exception@std@@8
rdata$r	SEGMENT
??_R2exception@std@@8 DD FLAT:??_R1A@?0A@EA@exception@std@@8 ; std::exception::`RTTI Base Class Array'
rdata$r	ENDS
;	COMDAT ??_R3exception@std@@8
rdata$r	SEGMENT
??_R3exception@std@@8 DD 00H				; std::exception::`RTTI Class Hierarchy Descriptor'
	DD	00H
	DD	01H
	DD	FLAT:??_R2exception@std@@8
rdata$r	ENDS
;	COMDAT ??_R4exception@std@@6B@
rdata$r	SEGMENT
??_R4exception@std@@6B@ DD 00H				; std::exception::`RTTI Complete Object Locator'
	DD	00H
	DD	00H
	DD	FLAT:??_R0?AVexception@std@@@8
	DD	FLAT:??_R3exception@std@@8
rdata$r	ENDS
;	COMDAT ??_C@_0BA@JFNIOLAK@string?5too?5long@
CONST	SEGMENT
??_C@_0BA@JFNIOLAK@string?5too?5long@ DB 'string too long', 00H ; `string'
CONST	ENDS
;	COMDAT ??_R0?AVbad_cast@std@@@8
data$r	SEGMENT
??_R0?AVbad_cast@std@@@8 DD FLAT:??_7type_info@@6B@	; std::bad_cast `RTTI Type Descriptor'
	DD	00H
	DB	'.?AVbad_cast@std@@', 00H
data$r	ENDS
;	COMDAT ??_C@_0BI@CFPLBAOH@invalid?5string?5position@
CONST	SEGMENT
??_C@_0BI@CFPLBAOH@invalid?5string?5position@ DB 'invalid string position'
	DB	00H						; `string'
CONST	ENDS
;	COMDAT ??_C@_02OOPEBDOJ@pP@
CONST	SEGMENT
??_C@_02OOPEBDOJ@pP@ DB 'pP', 00H			; `string'
CONST	ENDS
;	COMDAT ??_C@_02MDKMJEGG@eE@
CONST	SEGMENT
??_C@_02MDKMJEGG@eE@ DB 'eE', 00H			; `string'
CONST	ENDS
;	COMDAT ??_7?$numpunct@D@std@@6B@
CONST	SEGMENT
??_7?$numpunct@D@std@@6B@ DD FLAT:??_R4?$numpunct@D@std@@6B@ ; std::numpunct<char>::`vftable'
	DD	FLAT:??_E?$numpunct@D@std@@MAEPAXI@Z
	DD	FLAT:?_Incref@facet@locale@std@@UAEXXZ
	DD	FLAT:?_Decref@facet@locale@std@@UAEPAV_Facet_base@3@XZ
	DD	FLAT:?do_decimal_point@?$numpunct@D@std@@MBEDXZ
	DD	FLAT:?do_thousands_sep@?$numpunct@D@std@@MBEDXZ
	DD	FLAT:?do_grouping@?$numpunct@D@std@@MBE?AV?$basic_string@DU?$char_traits@D@std@@V?$allocator@D@2@@2@XZ
	DD	FLAT:?do_falsename@?$numpunct@D@std@@MBE?AV?$basic_string@DU?$char_traits@D@std@@V?$allocator@D@2@@2@XZ
	DD	FLAT:?do_truename@?$numpunct@D@std@@MBE?AV?$basic_string@DU?$char_traits@D@std@@V?$allocator@D@2@@2@XZ
CONST	ENDS
;	COMDAT ??_C@_02EAOCLKAK@ld@
CONST	SEGMENT
??_C@_02EAOCLKAK@ld@ DB 'ld', 00H			; `string'
CONST	ENDS
;	COMDAT ??_C@_02BDDLJJBK@lu@
CONST	SEGMENT
??_C@_02BDDLJJBK@lu@ DB 'lu', 00H			; `string'
CONST	ENDS
;	COMDAT ??_C@_02HIKPPMOK@Ld@
CONST	SEGMENT
??_C@_02HIKPPMOK@Ld@ DB 'Ld', 00H			; `string'
CONST	ENDS
;	COMDAT ??_C@_02CLHGNPPK@Lu@
CONST	SEGMENT
??_C@_02CLHGNPPK@Lu@ DB 'Lu', 00H			; `string'
CONST	ENDS
;	COMDAT ??_C@_02BBAHNLBA@?$CFp@
CONST	SEGMENT
??_C@_02BBAHNLBA@?$CFp@ DB '%p', 00H			; `string'
CONST	ENDS
;	COMDAT ??_7?$num_put@DV?$ostreambuf_iterator@DU?$char_traits@D@std@@@std@@@std@@6B@
CONST	SEGMENT
??_7?$num_put@DV?$ostreambuf_iterator@DU?$char_traits@D@std@@@std@@@std@@6B@ DD FLAT:??_R4?$num_put@DV?$ostreambuf_iterator@DU?$char_traits@D@std@@@std@@@std@@6B@ ; std::num_put<char,std::ostreambuf_iterator<char,std::char_traits<char> > >::`vftable'
	DD	FLAT:??_E?$num_put@DV?$ostreambuf_iterator@DU?$char_traits@D@std@@@std@@@std@@MAEPAXI@Z
	DD	FLAT:?_Incref@facet@locale@std@@UAEXXZ
	DD	FLAT:?_Decref@facet@locale@std@@UAEPAV_Facet_base@3@XZ
	DD	FLAT:?do_put@?$num_put@DV?$ostreambuf_iterator@DU?$char_traits@D@std@@@std@@@std@@MBE?AV?$ostreambuf_iterator@DU?$char_traits@D@std@@@2@V32@AAVios_base@2@DPBX@Z
	DD	FLAT:?do_put@?$num_put@DV?$ostreambuf_iterator@DU?$char_traits@D@std@@@std@@@std@@MBE?AV?$ostreambuf_iterator@DU?$char_traits@D@std@@@2@V32@AAVios_base@2@DO@Z
	DD	FLAT:?do_put@?$num_put@DV?$ostreambuf_iterator@DU?$char_traits@D@std@@@std@@@std@@MBE?AV?$ostreambuf_iterator@DU?$char_traits@D@std@@@2@V32@AAVios_base@2@DN@Z
	DD	FLAT:?do_put@?$num_put@DV?$ostreambuf_iterator@DU?$char_traits@D@std@@@std@@@std@@MBE?AV?$ostreambuf_iterator@DU?$char_traits@D@std@@@2@V32@AAVios_base@2@D_K@Z
	DD	FLAT:?do_put@?$num_put@DV?$ostreambuf_iterator@DU?$char_traits@D@std@@@std@@@std@@MBE?AV?$ostreambuf_iterator@DU?$char_traits@D@std@@@2@V32@AAVios_base@2@D_J@Z
	DD	FLAT:?do_put@?$num_put@DV?$ostreambuf_iterator@DU?$char_traits@D@std@@@std@@@std@@MBE?AV?$ostreambuf_iterator@DU?$char_traits@D@std@@@2@V32@AAVios_base@2@DK@Z
	DD	FLAT:?do_put@?$num_put@DV?$ostreambuf_iterator@DU?$char_traits@D@std@@@std@@@std@@MBE?AV?$ostreambuf_iterator@DU?$char_traits@D@std@@@2@V32@AAVios_base@2@DJ@Z
	DD	FLAT:?do_put@?$num_put@DV?$ostreambuf_iterator@DU?$char_traits@D@std@@@std@@@std@@MBE?AV?$ostreambuf_iterator@DU?$char_traits@D@std@@@2@V32@AAVios_base@2@D_N@Z
CONST	ENDS
;	COMDAT ??_C@_0CP@DGBGMEIB@Closing?5the?5game?4?5Cleaning?5up?5a@
CONST	SEGMENT
??_C@_0CP@DGBGMEIB@Closing?5the?5game?4?5Cleaning?5up?5a@ DB 'Closing the'
	DB	' game. Cleaning up all the mess...', 0aH, 00H ; `string'
CONST	ENDS
;	COMDAT ??_C@_0L@OEGFDINF@POINTS?3?5?$CFd@
CONST	SEGMENT
??_C@_0L@OEGFDINF@POINTS?3?5?$CFd@ DB 'POINTS: %d', 00H	; `string'
CONST	ENDS
;	COMDAT ??_C@_09DOEIBABC@LINES?3?5?$CFd@
CONST	SEGMENT
??_C@_09DOEIBABC@LINES?3?5?$CFd@ DB 'LINES: %d', 00H	; `string'
CONST	ENDS
;	COMDAT ??_C@_09IFKCHJNG@LEVEL?3?5?$CFd@
CONST	SEGMENT
??_C@_09IFKCHJNG@LEVEL?3?5?$CFd@ DB 'LEVEL: %d', 00H	; `string'
CONST	ENDS
;	COMDAT ??_C@_09MAOEPLNL@GAME?5OVER@
CONST	SEGMENT
??_C@_09MAOEPLNL@GAME?5OVER@ DB 'GAME OVER', 00H	; `string'
CONST	ENDS
;	COMDAT ??_C@_0BD@CFKFPENJ@STARTING?5LEVEL?3?5?$CFd@
CONST	SEGMENT
??_C@_0BD@CFKFPENJ@STARTING?5LEVEL?3?5?$CFd@ DB 'STARTING LEVEL: %d', 00H ; `string'
CONST	ENDS
;	COMDAT ??_C@_0BF@LKPPLCNE@Press?5Enter?5to?5start@
CONST	SEGMENT
??_C@_0BF@LKPPLCNE@Press?5Enter?5to?5start@ DB 'Press Enter to start', 00H ; `string'
CONST	ENDS
;	COMDAT ??_C@_0M@EGEHIPLI@Game?5seed?3?5@
CONST	SEGMENT
??_C@_0M@EGEHIPLI@Game?5seed?3?5@ DB 'Game seed: ', 00H	; `string'
CONST	ENDS
;	COMDAT ??_C@_0CO@CJNDLNMC@Unable?5to?5initialize?5SDL_TTF?4?5S@
CONST	SEGMENT
??_C@_0CO@CJNDLNMC@Unable?5to?5initialize?5SDL_TTF?4?5S@ DB 'Unable to in'
	DB	'itialize SDL_TTF. SDL_TTF error: ', 00H	; `string'
CONST	ENDS
;	COMDAT ??_C@_0BH@IMMMKLFB@?$CJ?5has?5not?5been?5loaded?6@
CONST	SEGMENT
??_C@_0BH@IMMMKLFB@?$CJ?5has?5not?5been?5loaded?6@ DB ') has not been loa'
	DB	'ded', 0aH, 00H				; `string'
CONST	ENDS
;	COMDAT ??_C@_05JBNLDDKP@Font?5@
CONST	SEGMENT
??_C@_05JBNLDDKP@Font?5@ DB 'Font ', 00H		; `string'
CONST	ENDS
;	COMDAT ??_C@_01ODHLEDKK@?$CI@
CONST	SEGMENT
??_C@_01ODHLEDKK@?$CI@ DB '(', 00H			; `string'
CONST	ENDS
;	COMDAT ??_C@_0BD@GIEFJDI@?$CJ?5has?5been?5loaded?6@
CONST	SEGMENT
??_C@_0BD@GIEFJDI@?$CJ?5has?5been?5loaded?6@ DB ') has been loaded', 0aH, 00H ; `string'
CONST	ENDS
;	COMDAT ??_C@_0CL@CGIGHLCG@SDL_TTF?5has?5been?5initialized?5su@
CONST	SEGMENT
??_C@_0CL@CGIGHLCG@SDL_TTF?5has?5been?5initialized?5su@ DB 'SDL_TTF has b'
	DB	'een initialized successfully', 0aH, 00H	; `string'
CONST	ENDS
;	COMDAT ??_C@_0CF@DAJCNOPK@Unable?5to?5intialize?5SDL?4?5SDL?5er@
CONST	SEGMENT
??_C@_0CF@DAJCNOPK@Unable?5to?5intialize?5SDL?4?5SDL?5er@ DB 'Unable to i'
	DB	'ntialize SDL. SDL error: ', 00H		; `string'
CONST	ENDS
;	COMDAT ??_C@_0CJ@PIFBGGOL@Window?5could?5not?5be?5created?4?5SD@
CONST	SEGMENT
??_C@_0CJ@PIFBGGOL@Window?5could?5not?5be?5created?4?5SD@ DB 'Window coul'
	DB	'd not be created. SDL error: ', 00H		; `string'
CONST	ENDS
;	COMDAT ??_C@_0CL@MNJLHHGI@Renderer?5could?5not?5be?5created?4?5@
CONST	SEGMENT
??_C@_0CL@MNJLHHGI@Renderer?5could?5not?5be?5created?4?5@ DB 'Renderer co'
	DB	'uld not be created. SDL error: ', 00H	; `string'
CONST	ENDS
;	COMDAT ??_C@_01EEMJAFIK@?6@
CONST	SEGMENT
??_C@_01EEMJAFIK@?6@ DB 0aH, 00H			; `string'
CONST	ENDS
;	COMDAT ??_C@_0CM@MFFAMOBJ@SDL?5renderer?5has?5been?5created?5s@
CONST	SEGMENT
??_C@_0CM@MFFAMOBJ@SDL?5renderer?5has?5been?5created?5s@ DB 'SDL renderer'
	DB	' has been created successfully', 0aH, 00H	; `string'
CONST	ENDS
;	COMDAT ??_C@_0CK@LKCLDMPA@SDL?5window?5has?5been?5created?5suc@
CONST	SEGMENT
??_C@_0CK@LKCLDMPA@SDL?5window?5has?5been?5created?5suc@ DB 'SDL window h'
	DB	'as been created successfully', 0aH, 00H	; `string'
CONST	ENDS
;	COMDAT ??_C@_0CH@EGGHBPKB@SDL?5has?5been?5initialized?5succes@
CONST	SEGMENT
??_C@_0CH@EGGHBPKB@SDL?5has?5been?5initialized?5succes@ DB 'SDL has been '
	DB	'initialized successfully', 0aH, 00H		; `string'
CONST	ENDS
;	COMDAT __CT??_R0?AV_System_error@std@@@8??0_System_error@std@@QAE@ABV01@@Z20
xdata$x	SEGMENT
__CT??_R0?AV_System_error@std@@@8??0_System_error@std@@QAE@ABV01@@Z20 DD 00H
	DD	FLAT:??_R0?AV_System_error@std@@@8
	DD	00H
	DD	0ffffffffH
	ORG $+4
	DD	014H
	DD	FLAT:??0_System_error@std@@QAE@ABV01@@Z
xdata$x	ENDS
;	COMDAT ??_R0?AV_System_error@std@@@8
data$r	SEGMENT
??_R0?AV_System_error@std@@@8 DD FLAT:??_7type_info@@6B@ ; std::_System_error `RTTI Type Descriptor'
	DD	00H
	DB	'.?AV_System_error@std@@', 00H
data$r	ENDS
;	COMDAT __CT??_R0?AVsystem_error@std@@@8??0system_error@std@@QAE@ABV01@@Z20
xdata$x	SEGMENT
__CT??_R0?AVsystem_error@std@@@8??0system_error@std@@QAE@ABV01@@Z20 DD 00H
	DD	FLAT:??_R0?AVsystem_error@std@@@8
	DD	00H
	DD	0ffffffffH
	ORG $+4
	DD	014H
	DD	FLAT:??0system_error@std@@QAE@ABV01@@Z
xdata$x	ENDS
;	COMDAT ??_R0?AVsystem_error@std@@@8
data$r	SEGMENT
??_R0?AVsystem_error@std@@@8 DD FLAT:??_7type_info@@6B@	; std::system_error `RTTI Type Descriptor'
	DD	00H
	DB	'.?AVsystem_error@std@@', 00H
data$r	ENDS
;	COMDAT __CT??_R0?AVfailure@ios_base@std@@@8??0failure@ios_base@std@@QAE@ABV012@@Z20
xdata$x	SEGMENT
__CT??_R0?AVfailure@ios_base@std@@@8??0failure@ios_base@std@@QAE@ABV012@@Z20 DD 00H
	DD	FLAT:??_R0?AVfailure@ios_base@std@@@8
	DD	00H
	DD	0ffffffffH
	ORG $+4
	DD	014H
	DD	FLAT:??0failure@ios_base@std@@QAE@ABV012@@Z
xdata$x	ENDS
;	COMDAT ??_R0?AVfailure@ios_base@std@@@8
data$r	SEGMENT
??_R0?AVfailure@ios_base@std@@@8 DD FLAT:??_7type_info@@6B@ ; std::ios_base::failure `RTTI Type Descriptor'
	DD	00H
	DB	'.?AVfailure@ios_base@std@@', 00H
data$r	ENDS
;	COMDAT __CTA5?AVfailure@ios_base@std@@
xdata$x	SEGMENT
__CTA5?AVfailure@ios_base@std@@ DD 05H
	DD	FLAT:__CT??_R0?AVfailure@ios_base@std@@@8??0failure@ios_base@std@@QAE@ABV012@@Z20
	DD	FLAT:__CT??_R0?AVsystem_error@std@@@8??0system_error@std@@QAE@ABV01@@Z20
	DD	FLAT:__CT??_R0?AV_System_error@std@@@8??0_System_error@std@@QAE@ABV01@@Z20
	DD	FLAT:__CT??_R0?AVruntime_error@std@@@8??0runtime_error@std@@QAE@ABV01@@Z12
	DD	FLAT:__CT??_R0?AVexception@std@@@8??0exception@std@@QAE@ABV01@@Z12
xdata$x	ENDS
;	COMDAT __TI5?AVfailure@ios_base@std@@
xdata$x	SEGMENT
__TI5?AVfailure@ios_base@std@@ DD 00H
	DD	FLAT:??1failure@ios_base@std@@UAE@XZ
	DD	00H
	DD	FLAT:__CTA5?AVfailure@ios_base@std@@
xdata$x	ENDS
;	COMDAT ??_C@_0BF@OOHOMBOF@ios_base?3?3eofbit?5set@
CONST	SEGMENT
??_C@_0BF@OOHOMBOF@ios_base?3?3eofbit?5set@ DB 'ios_base::eofbit set', 00H ; `string'
CONST	ENDS
;	COMDAT ??_C@_0BG@FMKFHCIL@ios_base?3?3failbit?5set@
CONST	SEGMENT
??_C@_0BG@FMKFHCIL@ios_base?3?3failbit?5set@ DB 'ios_base::failbit set', 00H ; `string'
CONST	ENDS
;	COMDAT ??_C@_0BF@PHHKMMFD@ios_base?3?3badbit?5set@
CONST	SEGMENT
??_C@_0BF@PHHKMMFD@ios_base?3?3badbit?5set@ DB 'ios_base::badbit set', 00H ; `string'
CONST	ENDS
;	COMDAT ??_7failure@ios_base@std@@6B@
CONST	SEGMENT
??_7failure@ios_base@std@@6B@ DD FLAT:??_R4failure@ios_base@std@@6B@ ; std::ios_base::failure::`vftable'
	DD	FLAT:??_Efailure@ios_base@std@@UAEPAXI@Z
	DD	FLAT:?what@exception@std@@UBEPBDXZ
CONST	ENDS
;	COMDAT ??_C@_0BG@PADBLCHM@iostream?5stream?5error@
CONST	SEGMENT
??_C@_0BG@PADBLCHM@iostream?5stream?5error@ DB 'iostream stream error', 00H ; `string'
CONST	ENDS
;	COMDAT ??_C@_08LLGCOLLL@iostream@
CONST	SEGMENT
??_C@_08LLGCOLLL@iostream@ DB 'iostream', 00H		; `string'
CONST	ENDS
;	COMDAT ??_7_Iostream_error_category@std@@6B@
CONST	SEGMENT
??_7_Iostream_error_category@std@@6B@ DD FLAT:??_R4_Iostream_error_category@std@@6B@ ; std::_Iostream_error_category::`vftable'
	DD	FLAT:??_E_Iostream_error_category@std@@UAEPAXI@Z
	DD	FLAT:?name@_Iostream_error_category@std@@UBEPBDXZ
	DD	FLAT:?message@_Iostream_error_category@std@@UBE?AV?$basic_string@DU?$char_traits@D@std@@V?$allocator@D@2@@2@H@Z
	DD	FLAT:?default_error_condition@error_category@std@@UBE?AVerror_condition@2@H@Z
	DD	FLAT:?equivalent@error_category@std@@UBE_NABVerror_code@2@H@Z
	DD	FLAT:?equivalent@error_category@std@@UBE_NHABVerror_condition@2@@Z
CONST	ENDS
;	COMDAT ??_C@_07DCLBNMLN@generic@
CONST	SEGMENT
??_C@_07DCLBNMLN@generic@ DB 'generic', 00H		; `string'
CONST	ENDS
;	COMDAT ??_7_Generic_error_category@std@@6B@
CONST	SEGMENT
??_7_Generic_error_category@std@@6B@ DD FLAT:??_R4_Generic_error_category@std@@6B@ ; std::_Generic_error_category::`vftable'
	DD	FLAT:??_E_Generic_error_category@std@@UAEPAXI@Z
	DD	FLAT:?name@_Generic_error_category@std@@UBEPBDXZ
	DD	FLAT:?message@_Generic_error_category@std@@UBE?AV?$basic_string@DU?$char_traits@D@std@@V?$allocator@D@2@@2@H@Z
	DD	FLAT:?default_error_condition@error_category@std@@UBE?AVerror_condition@2@H@Z
	DD	FLAT:?equivalent@error_category@std@@UBE_NABVerror_code@2@H@Z
	DD	FLAT:?equivalent@error_category@std@@UBE_NHABVerror_condition@2@@Z
CONST	ENDS
;	COMDAT ??_7system_error@std@@6B@
CONST	SEGMENT
??_7system_error@std@@6B@ DD FLAT:??_R4system_error@std@@6B@ ; std::system_error::`vftable'
	DD	FLAT:??_Esystem_error@std@@UAEPAXI@Z
	DD	FLAT:?what@exception@std@@UBEPBDXZ
CONST	ENDS
;	COMDAT ??_C@_02LMMGGCAJ@?3?5@
CONST	SEGMENT
??_C@_02LMMGGCAJ@?3?5@ DB ': ', 00H			; `string'
CONST	ENDS
;	COMDAT ??_7_System_error@std@@6B@
CONST	SEGMENT
??_7_System_error@std@@6B@ DD FLAT:??_R4_System_error@std@@6B@ ; std::_System_error::`vftable'
	DD	FLAT:??_E_System_error@std@@UAEPAXI@Z
	DD	FLAT:?what@exception@std@@UBEPBDXZ
CONST	ENDS
;	COMDAT ??_7?$ctype@D@std@@6B@
CONST	SEGMENT
??_7?$ctype@D@std@@6B@ DD FLAT:??_R4?$ctype@D@std@@6B@	; std::ctype<char>::`vftable'
	DD	FLAT:??_E?$ctype@D@std@@MAEPAXI@Z
	DD	FLAT:?_Incref@facet@locale@std@@UAEXXZ
	DD	FLAT:?_Decref@facet@locale@std@@UAEPAV_Facet_base@3@XZ
	DD	FLAT:?do_tolower@?$ctype@D@std@@MBEPBDPADPBD@Z
	DD	FLAT:?do_tolower@?$ctype@D@std@@MBEDD@Z
	DD	FLAT:?do_toupper@?$ctype@D@std@@MBEPBDPADPBD@Z
	DD	FLAT:?do_toupper@?$ctype@D@std@@MBEDD@Z
	DD	FLAT:?do_widen@?$ctype@D@std@@MBEPBDPBD0PAD@Z
	DD	FLAT:?do_widen@?$ctype@D@std@@MBEDD@Z
	DD	FLAT:?do_narrow@?$ctype@D@std@@MBEPBDPBD0DPAD@Z
	DD	FLAT:?do_narrow@?$ctype@D@std@@MBEDDD@Z
CONST	ENDS
;	COMDAT ??_7ctype_base@std@@6B@
CONST	SEGMENT
??_7ctype_base@std@@6B@ DD FLAT:??_R4ctype_base@std@@6B@ ; std::ctype_base::`vftable'
	DD	FLAT:??_Ectype_base@std@@UAEPAXI@Z
	DD	FLAT:?_Incref@facet@locale@std@@UAEXXZ
	DD	FLAT:?_Decref@facet@locale@std@@UAEPAV_Facet_base@3@XZ
CONST	ENDS
;	COMDAT ??_C@_00CNPNBAHC@@
CONST	SEGMENT
??_C@_00CNPNBAHC@@ DB 00H				; `string'
CONST	ENDS
;	COMDAT ??_7facet@locale@std@@6B@
CONST	SEGMENT
??_7facet@locale@std@@6B@ DD FLAT:??_R4facet@locale@std@@6B@ ; std::locale::facet::`vftable'
	DD	FLAT:??_Efacet@locale@std@@MAEPAXI@Z
	DD	FLAT:?_Incref@facet@locale@std@@UAEXXZ
	DD	FLAT:?_Decref@facet@locale@std@@UAEPAV_Facet_base@3@XZ
CONST	ENDS
;	COMDAT ??_7_Facet_base@std@@6B@
CONST	SEGMENT
??_7_Facet_base@std@@6B@ DD FLAT:??_R4_Facet_base@std@@6B@ ; std::_Facet_base::`vftable'
	DD	FLAT:??_E_Facet_base@std@@UAEPAXI@Z
	DD	FLAT:__purecall
	DD	FLAT:__purecall
CONST	ENDS
;	COMDAT ??_C@_04LOAJBDKD@true@
CONST	SEGMENT
??_C@_04LOAJBDKD@true@ DB 'true', 00H			; `string'
CONST	ENDS
;	COMDAT ??_C@_05LAPONLG@false@
CONST	SEGMENT
??_C@_05LAPONLG@false@ DB 'false', 00H			; `string'
CONST	ENDS
;	COMDAT ??_C@_0BA@ELKIONDK@bad?5locale?5name@
CONST	SEGMENT
??_C@_0BA@ELKIONDK@bad?5locale?5name@ DB 'bad locale name', 00H ; `string'
CONST	ENDS
;	COMDAT __CT??_R0?AVexception@std@@@8??0exception@std@@QAE@ABV01@@Z12
xdata$x	SEGMENT
__CT??_R0?AVexception@std@@@8??0exception@std@@QAE@ABV01@@Z12 DD 00H
	DD	FLAT:??_R0?AVexception@std@@@8
	DD	00H
	DD	0ffffffffH
	ORG $+4
	DD	0cH
	DD	FLAT:??0exception@std@@QAE@ABV01@@Z
xdata$x	ENDS
;	COMDAT ??_R0?AVexception@std@@@8
data$r	SEGMENT
??_R0?AVexception@std@@@8 DD FLAT:??_7type_info@@6B@	; std::exception `RTTI Type Descriptor'
	DD	00H
	DB	'.?AVexception@std@@', 00H
data$r	ENDS
;	COMDAT __CT??_R0?AVruntime_error@std@@@8??0runtime_error@std@@QAE@ABV01@@Z12
xdata$x	SEGMENT
__CT??_R0?AVruntime_error@std@@@8??0runtime_error@std@@QAE@ABV01@@Z12 DD 00H
	DD	FLAT:??_R0?AVruntime_error@std@@@8
	DD	00H
	DD	0ffffffffH
	ORG $+4
	DD	0cH
	DD	FLAT:??0runtime_error@std@@QAE@ABV01@@Z
xdata$x	ENDS
;	COMDAT ??_R0?AVruntime_error@std@@@8
data$r	SEGMENT
??_R0?AVruntime_error@std@@@8 DD FLAT:??_7type_info@@6B@ ; std::runtime_error `RTTI Type Descriptor'
	DD	00H
	DB	'.?AVruntime_error@std@@', 00H
data$r	ENDS
;	COMDAT __CTA2?AVruntime_error@std@@
xdata$x	SEGMENT
__CTA2?AVruntime_error@std@@ DD 02H
	DD	FLAT:__CT??_R0?AVruntime_error@std@@@8??0runtime_error@std@@QAE@ABV01@@Z12
	DD	FLAT:__CT??_R0?AVexception@std@@@8??0exception@std@@QAE@ABV01@@Z12
xdata$x	ENDS
;	COMDAT __TI2?AVruntime_error@std@@
xdata$x	SEGMENT
__TI2?AVruntime_error@std@@ DD 00H
	DD	FLAT:??1runtime_error@std@@UAE@XZ
	DD	00H
	DD	FLAT:__CTA2?AVruntime_error@std@@
xdata$x	ENDS
;	COMDAT ??_C@_08EPJLHIJG@bad?5cast@
CONST	SEGMENT
??_C@_08EPJLHIJG@bad?5cast@ DB 'bad cast', 00H		; `string'
CONST	ENDS
;	COMDAT ??_7bad_cast@std@@6B@
CONST	SEGMENT
??_7bad_cast@std@@6B@ DD FLAT:??_R4bad_cast@std@@6B@	; std::bad_cast::`vftable'
	DD	FLAT:??_Ebad_cast@std@@UAEPAXI@Z
	DD	FLAT:?what@exception@std@@UBEPBDXZ
CONST	ENDS
;	COMDAT ??_7runtime_error@std@@6B@
CONST	SEGMENT
??_7runtime_error@std@@6B@ DD FLAT:??_R4runtime_error@std@@6B@ ; std::runtime_error::`vftable'
	DD	FLAT:??_Eruntime_error@std@@UAEPAXI@Z
	DD	FLAT:?what@exception@std@@UBEPBDXZ
CONST	ENDS
;	COMDAT ??_C@_0BC@EOODALEL@Unknown?5exception@
CONST	SEGMENT
??_C@_0BC@EOODALEL@Unknown?5exception@ DB 'Unknown exception', 00H ; `string'
CONST	ENDS
;	COMDAT ??_7exception@std@@6B@
CONST	SEGMENT
??_7exception@std@@6B@ DD FLAT:??_R4exception@std@@6B@	; std::exception::`vftable'
	DD	FLAT:??_Eexception@std@@UAEPAXI@Z
	DD	FLAT:?what@exception@std@@UBEPBDXZ
CONST	ENDS
;	COMDAT xdata$x
xdata$x	SEGMENT
__catchsym$?_Init@?$numpunct@D@std@@IAEXABV_Locinfo@2@_N@Z$2 DD 040H
	DD	00H
	DD	00H
	DD	FLAT:__catch$?_Init@?$numpunct@D@std@@IAEXABV_Locinfo@2@_N@Z$0
__unwindtable$?_Init@?$numpunct@D@std@@IAEXABV_Locinfo@2@_N@Z DD 0ffffffffH
	DD	00H
	DD	0ffffffffH
	DD	00H
__tryblocktable$?_Init@?$numpunct@D@std@@IAEXABV_Locinfo@2@_N@Z DD 00H
	DD	00H
	DD	01H
	DD	01H
	DD	FLAT:__catchsym$?_Init@?$numpunct@D@std@@IAEXABV_Locinfo@2@_N@Z$2
__ehfuncinfo$?_Init@?$numpunct@D@std@@IAEXABV_Locinfo@2@_N@Z DD 019930522H
	DD	02H
	DD	FLAT:__unwindtable$?_Init@?$numpunct@D@std@@IAEXABV_Locinfo@2@_N@Z
	DD	01H
	DD	FLAT:__tryblocktable$?_Init@?$numpunct@D@std@@IAEXABV_Locinfo@2@_N@Z
	DD	2 DUP(00H)
	DD	00H
	DD	01H
xdata$x	ENDS
;	COMDAT xdata$x
xdata$x	SEGMENT
__unwindtable$?_Getcat@?$numpunct@D@std@@SAIPAPBVfacet@locale@2@PBV42@@Z DD 0ffffffffH
	DD	FLAT:__unwindfunclet$?_Getcat@?$numpunct@D@std@@SAIPAPBVfacet@locale@2@PBV42@@Z$0
	DD	00H
	DD	FLAT:__unwindfunclet$?_Getcat@?$numpunct@D@std@@SAIPAPBVfacet@locale@2@PBV42@@Z$1
	DD	01H
	DD	FLAT:__unwindfunclet$?_Getcat@?$numpunct@D@std@@SAIPAPBVfacet@locale@2@PBV42@@Z$2
	DD	0ffffffffH
	DD	FLAT:__unwindfunclet$?_Getcat@?$numpunct@D@std@@SAIPAPBVfacet@locale@2@PBV42@@Z$1
__ehfuncinfo$?_Getcat@?$numpunct@D@std@@SAIPAPBVfacet@locale@2@PBV42@@Z DD 019930522H
	DD	04H
	DD	FLAT:__unwindtable$?_Getcat@?$numpunct@D@std@@SAIPAPBVfacet@locale@2@PBV42@@Z
	DD	2 DUP(00H)
	DD	2 DUP(00H)
	DD	00H
	DD	01H
xdata$x	ENDS
;	COMDAT xdata$x
xdata$x	SEGMENT
__unwindtable$??0?$numpunct@D@std@@QAE@ABV_Locinfo@1@I_N@Z DD 0ffffffffH
	DD	FLAT:__unwindfunclet$??0?$numpunct@D@std@@QAE@ABV_Locinfo@1@I_N@Z$0
__ehfuncinfo$??0?$numpunct@D@std@@QAE@ABV_Locinfo@1@I_N@Z DD 019930522H
	DD	01H
	DD	FLAT:__unwindtable$??0?$numpunct@D@std@@QAE@ABV_Locinfo@1@I_N@Z
	DD	2 DUP(00H)
	DD	2 DUP(00H)
	DD	00H
	DD	01H
xdata$x	ENDS
;	COMDAT xdata$x
xdata$x	SEGMENT
__ehfuncinfo$??$use_facet@V?$numpunct@D@std@@@std@@YAABV?$numpunct@D@0@ABVlocale@0@@Z DD 019930522H
	DD	06H
	DD	FLAT:__unwindtable$??$use_facet@V?$numpunct@D@std@@@std@@YAABV?$numpunct@D@0@ABVlocale@0@@Z
	DD	2 DUP(00H)
	DD	2 DUP(00H)
	DD	00H
	DD	01H
__unwindtable$??$use_facet@V?$numpunct@D@std@@@std@@YAABV?$numpunct@D@0@ABVlocale@0@@Z DD 0ffffffffH
	DD	FLAT:__unwindfunclet$??$use_facet@V?$numpunct@D@std@@@std@@YAABV?$numpunct@D@0@ABVlocale@0@@Z$0
	DD	00H
	DD	FLAT:__unwindfunclet$??$use_facet@V?$numpunct@D@std@@@std@@YAABV?$numpunct@D@0@ABVlocale@0@@Z$3
	DD	01H
	DD	FLAT:__unwindfunclet$??$use_facet@V?$numpunct@D@std@@@std@@YAABV?$numpunct@D@0@ABVlocale@0@@Z$4
	DD	02H
	DD	FLAT:__unwindfunclet$??$use_facet@V?$numpunct@D@std@@@std@@YAABV?$numpunct@D@0@ABVlocale@0@@Z$5
	DD	00H
	DD	FLAT:__unwindfunclet$??$use_facet@V?$numpunct@D@std@@@std@@YAABV?$numpunct@D@0@ABVlocale@0@@Z$4
	DD	00H
	DD	FLAT:__unwindfunclet$??$use_facet@V?$numpunct@D@std@@@std@@YAABV?$numpunct@D@0@ABVlocale@0@@Z$1
xdata$x	ENDS
;	COMDAT xdata$x
xdata$x	SEGMENT
__ehfuncinfo$?_Iput@?$num_put@DV?$ostreambuf_iterator@DU?$char_traits@D@std@@@std@@@std@@ABA?AV?$ostreambuf_iterator@DU?$char_traits@D@std@@@2@V32@AAVios_base@2@DPADI@Z DD 019930522H
	DD	08H
	DD	FLAT:__unwindtable$?_Iput@?$num_put@DV?$ostreambuf_iterator@DU?$char_traits@D@std@@@std@@@std@@ABA?AV?$ostreambuf_iterator@DU?$char_traits@D@std@@@2@V32@AAVios_base@2@DPADI@Z
	DD	2 DUP(00H)
	DD	2 DUP(00H)
	DD	00H
	DD	01H
__unwindtable$?_Iput@?$num_put@DV?$ostreambuf_iterator@DU?$char_traits@D@std@@@std@@@std@@ABA?AV?$ostreambuf_iterator@DU?$char_traits@D@std@@@2@V32@AAVios_base@2@DPADI@Z DD 0ffffffffH
	DD	FLAT:___std_terminate
	DD	0ffffffffH
	DD	FLAT:__unwindfunclet$?_Iput@?$num_put@DV?$ostreambuf_iterator@DU?$char_traits@D@std@@@std@@@std@@ABA?AV?$ostreambuf_iterator@DU?$char_traits@D@std@@@2@V32@AAVios_base@2@DPADI@Z$0
	DD	0ffffffffH
	DD	FLAT:___std_terminate
	DD	0ffffffffH
	DD	FLAT:__unwindfunclet$?_Iput@?$num_put@DV?$ostreambuf_iterator@DU?$char_traits@D@std@@@std@@@std@@ABA?AV?$ostreambuf_iterator@DU?$char_traits@D@std@@@2@V32@AAVios_base@2@DPADI@Z$1
	DD	03H
	DD	FLAT:___std_terminate
	DD	03H
	DD	FLAT:__unwindfunclet$?_Iput@?$num_put@DV?$ostreambuf_iterator@DU?$char_traits@D@std@@@std@@@std@@ABA?AV?$ostreambuf_iterator@DU?$char_traits@D@std@@@2@V32@AAVios_base@2@DPADI@Z$2
	DD	03H
	DD	FLAT:___std_terminate
	DD	03H
	DD	FLAT:__unwindfunclet$?_Iput@?$num_put@DV?$ostreambuf_iterator@DU?$char_traits@D@std@@@std@@@std@@ABA?AV?$ostreambuf_iterator@DU?$char_traits@D@std@@@2@V32@AAVios_base@2@DPADI@Z$3
xdata$x	ENDS
;	COMDAT xdata$x
xdata$x	SEGMENT
__ehfuncinfo$?_Fput@?$num_put@DV?$ostreambuf_iterator@DU?$char_traits@D@std@@@std@@@std@@ABA?AV?$ostreambuf_iterator@DU?$char_traits@D@std@@@2@V32@AAVios_base@2@DPBDI@Z DD 019930522H
	DD	08H
	DD	FLAT:__unwindtable$?_Fput@?$num_put@DV?$ostreambuf_iterator@DU?$char_traits@D@std@@@std@@@std@@ABA?AV?$ostreambuf_iterator@DU?$char_traits@D@std@@@2@V32@AAVios_base@2@DPBDI@Z
	DD	2 DUP(00H)
	DD	2 DUP(00H)
	DD	00H
	DD	01H
__unwindtable$?_Fput@?$num_put@DV?$ostreambuf_iterator@DU?$char_traits@D@std@@@std@@@std@@ABA?AV?$ostreambuf_iterator@DU?$char_traits@D@std@@@2@V32@AAVios_base@2@DPBDI@Z DD 0ffffffffH
	DD	FLAT:___std_terminate
	DD	0ffffffffH
	DD	FLAT:__unwindfunclet$?_Fput@?$num_put@DV?$ostreambuf_iterator@DU?$char_traits@D@std@@@std@@@std@@ABA?AV?$ostreambuf_iterator@DU?$char_traits@D@std@@@2@V32@AAVios_base@2@DPBDI@Z$0
	DD	0ffffffffH
	DD	FLAT:___std_terminate
	DD	0ffffffffH
	DD	FLAT:__unwindfunclet$?_Fput@?$num_put@DV?$ostreambuf_iterator@DU?$char_traits@D@std@@@std@@@std@@ABA?AV?$ostreambuf_iterator@DU?$char_traits@D@std@@@2@V32@AAVios_base@2@DPBDI@Z$1
	DD	03H
	DD	FLAT:___std_terminate
	DD	03H
	DD	FLAT:__unwindfunclet$?_Fput@?$num_put@DV?$ostreambuf_iterator@DU?$char_traits@D@std@@@std@@@std@@ABA?AV?$ostreambuf_iterator@DU?$char_traits@D@std@@@2@V32@AAVios_base@2@DPBDI@Z$2
	DD	03H
	DD	FLAT:___std_terminate
	DD	03H
	DD	FLAT:__unwindfunclet$?_Fput@?$num_put@DV?$ostreambuf_iterator@DU?$char_traits@D@std@@@std@@@std@@ABA?AV?$ostreambuf_iterator@DU?$char_traits@D@std@@@2@V32@AAVios_base@2@DPBDI@Z$3
xdata$x	ENDS
;	COMDAT xdata$x
xdata$x	SEGMENT
__unwindtable$?do_put@?$num_put@DV?$ostreambuf_iterator@DU?$char_traits@D@std@@@std@@@std@@MBE?AV?$ostreambuf_iterator@DU?$char_traits@D@std@@@2@V32@AAVios_base@2@DO@Z DD 0ffffffffH
	DD	FLAT:__unwindfunclet$?do_put@?$num_put@DV?$ostreambuf_iterator@DU?$char_traits@D@std@@@std@@@std@@MBE?AV?$ostreambuf_iterator@DU?$char_traits@D@std@@@2@V32@AAVios_base@2@DO@Z$0
__ehfuncinfo$?do_put@?$num_put@DV?$ostreambuf_iterator@DU?$char_traits@D@std@@@std@@@std@@MBE?AV?$ostreambuf_iterator@DU?$char_traits@D@std@@@2@V32@AAVios_base@2@DO@Z DD 019930522H
	DD	01H
	DD	FLAT:__unwindtable$?do_put@?$num_put@DV?$ostreambuf_iterator@DU?$char_traits@D@std@@@std@@@std@@MBE?AV?$ostreambuf_iterator@DU?$char_traits@D@std@@@2@V32@AAVios_base@2@DO@Z
	DD	2 DUP(00H)
	DD	2 DUP(00H)
	DD	00H
	DD	01H
xdata$x	ENDS
;	COMDAT xdata$x
xdata$x	SEGMENT
__unwindtable$?do_put@?$num_put@DV?$ostreambuf_iterator@DU?$char_traits@D@std@@@std@@@std@@MBE?AV?$ostreambuf_iterator@DU?$char_traits@D@std@@@2@V32@AAVios_base@2@DN@Z DD 0ffffffffH
	DD	FLAT:__unwindfunclet$?do_put@?$num_put@DV?$ostreambuf_iterator@DU?$char_traits@D@std@@@std@@@std@@MBE?AV?$ostreambuf_iterator@DU?$char_traits@D@std@@@2@V32@AAVios_base@2@DN@Z$0
__ehfuncinfo$?do_put@?$num_put@DV?$ostreambuf_iterator@DU?$char_traits@D@std@@@std@@@std@@MBE?AV?$ostreambuf_iterator@DU?$char_traits@D@std@@@2@V32@AAVios_base@2@DN@Z DD 019930522H
	DD	01H
	DD	FLAT:__unwindtable$?do_put@?$num_put@DV?$ostreambuf_iterator@DU?$char_traits@D@std@@@std@@@std@@MBE?AV?$ostreambuf_iterator@DU?$char_traits@D@std@@@2@V32@AAVios_base@2@DN@Z
	DD	2 DUP(00H)
	DD	2 DUP(00H)
	DD	00H
	DD	01H
xdata$x	ENDS
;	COMDAT xdata$x
xdata$x	SEGMENT
__unwindtable$?do_put@?$num_put@DV?$ostreambuf_iterator@DU?$char_traits@D@std@@@std@@@std@@MBE?AV?$ostreambuf_iterator@DU?$char_traits@D@std@@@2@V32@AAVios_base@2@D_N@Z DD 0ffffffffH
	DD	FLAT:___std_terminate
	DD	0ffffffffH
	DD	FLAT:__unwindfunclet$?do_put@?$num_put@DV?$ostreambuf_iterator@DU?$char_traits@D@std@@@std@@@std@@MBE?AV?$ostreambuf_iterator@DU?$char_traits@D@std@@@2@V32@AAVios_base@2@D_N@Z$0
	DD	0ffffffffH
	DD	FLAT:___std_terminate
	DD	0ffffffffH
	DD	FLAT:__unwindfunclet$?do_put@?$num_put@DV?$ostreambuf_iterator@DU?$char_traits@D@std@@@std@@@std@@MBE?AV?$ostreambuf_iterator@DU?$char_traits@D@std@@@2@V32@AAVios_base@2@D_N@Z$1
__ehfuncinfo$?do_put@?$num_put@DV?$ostreambuf_iterator@DU?$char_traits@D@std@@@std@@@std@@MBE?AV?$ostreambuf_iterator@DU?$char_traits@D@std@@@2@V32@AAVios_base@2@D_N@Z DD 019930522H
	DD	04H
	DD	FLAT:__unwindtable$?do_put@?$num_put@DV?$ostreambuf_iterator@DU?$char_traits@D@std@@@std@@@std@@MBE?AV?$ostreambuf_iterator@DU?$char_traits@D@std@@@2@V32@AAVios_base@2@D_N@Z
	DD	2 DUP(00H)
	DD	2 DUP(00H)
	DD	00H
	DD	01H
xdata$x	ENDS
;	COMDAT xdata$x
xdata$x	SEGMENT
__unwindtable$?_Getcat@?$num_put@DV?$ostreambuf_iterator@DU?$char_traits@D@std@@@std@@@std@@SAIPAPBVfacet@locale@2@PBV42@@Z DD 0ffffffffH
	DD	FLAT:__unwindfunclet$?_Getcat@?$num_put@DV?$ostreambuf_iterator@DU?$char_traits@D@std@@@std@@@std@@SAIPAPBVfacet@locale@2@PBV42@@Z$0
__ehfuncinfo$?_Getcat@?$num_put@DV?$ostreambuf_iterator@DU?$char_traits@D@std@@@std@@@std@@SAIPAPBVfacet@locale@2@PBV42@@Z DD 019930522H
	DD	01H
	DD	FLAT:__unwindtable$?_Getcat@?$num_put@DV?$ostreambuf_iterator@DU?$char_traits@D@std@@@std@@@std@@SAIPAPBVfacet@locale@2@PBV42@@Z
	DD	2 DUP(00H)
	DD	2 DUP(00H)
	DD	00H
	DD	01H
xdata$x	ENDS
;	COMDAT xdata$x
xdata$x	SEGMENT
__unwindtable$??$use_facet@V?$num_put@DV?$ostreambuf_iterator@DU?$char_traits@D@std@@@std@@@std@@@std@@YAABV?$num_put@DV?$ostreambuf_iterator@DU?$char_traits@D@std@@@std@@@0@ABVlocale@0@@Z DD 0ffffffffH
	DD	FLAT:__unwindfunclet$??$use_facet@V?$num_put@DV?$ostreambuf_iterator@DU?$char_traits@D@std@@@std@@@std@@@std@@YAABV?$num_put@DV?$ostreambuf_iterator@DU?$char_traits@D@std@@@std@@@0@ABVlocale@0@@Z$0
	DD	00H
	DD	FLAT:__unwindfunclet$??$use_facet@V?$num_put@DV?$ostreambuf_iterator@DU?$char_traits@D@std@@@std@@@std@@@std@@YAABV?$num_put@DV?$ostreambuf_iterator@DU?$char_traits@D@std@@@std@@@0@ABVlocale@0@@Z$3
	DD	00H
	DD	FLAT:__unwindfunclet$??$use_facet@V?$num_put@DV?$ostreambuf_iterator@DU?$char_traits@D@std@@@std@@@std@@@std@@YAABV?$num_put@DV?$ostreambuf_iterator@DU?$char_traits@D@std@@@std@@@0@ABVlocale@0@@Z$1
__ehfuncinfo$??$use_facet@V?$num_put@DV?$ostreambuf_iterator@DU?$char_traits@D@std@@@std@@@std@@@std@@YAABV?$num_put@DV?$ostreambuf_iterator@DU?$char_traits@D@std@@@std@@@0@ABVlocale@0@@Z DD 019930522H
	DD	03H
	DD	FLAT:__unwindtable$??$use_facet@V?$num_put@DV?$ostreambuf_iterator@DU?$char_traits@D@std@@@std@@@std@@@std@@YAABV?$num_put@DV?$ostreambuf_iterator@DU?$char_traits@D@std@@@std@@@0@ABVlocale@0@@Z
	DD	2 DUP(00H)
	DD	2 DUP(00H)
	DD	00H
	DD	01H
xdata$x	ENDS
;	COMDAT xdata$x
xdata$x	SEGMENT
__unwindtable$??1sentry@?$basic_ostream@DU?$char_traits@D@std@@@std@@QAE@XZ DD 0ffffffffH
	DD	FLAT:___std_terminate
__ehfuncinfo$??1sentry@?$basic_ostream@DU?$char_traits@D@std@@@std@@QAE@XZ DD 019930522H
	DD	01H
	DD	FLAT:__unwindtable$??1sentry@?$basic_ostream@DU?$char_traits@D@std@@@std@@QAE@XZ
	DD	2 DUP(00H)
	DD	2 DUP(00H)
	DD	00H
	DD	05H
xdata$x	ENDS
;	COMDAT xdata$x
xdata$x	SEGMENT
__unwindtable$??0sentry@?$basic_ostream@DU?$char_traits@D@std@@@std@@QAE@AAV12@@Z DD 0ffffffffH
	DD	FLAT:__unwindfunclet$??0sentry@?$basic_ostream@DU?$char_traits@D@std@@@std@@QAE@AAV12@@Z$0
	DD	00H
	DD	FLAT:__unwindfunclet$??0sentry@?$basic_ostream@DU?$char_traits@D@std@@@std@@QAE@AAV12@@Z$1
	DD	00H
	DD	FLAT:___std_terminate
	DD	02H
	DD	FLAT:___std_terminate
__ehfuncinfo$??0sentry@?$basic_ostream@DU?$char_traits@D@std@@@std@@QAE@AAV12@@Z DD 019930522H
	DD	04H
	DD	FLAT:__unwindtable$??0sentry@?$basic_ostream@DU?$char_traits@D@std@@@std@@QAE@AAV12@@Z
	DD	2 DUP(00H)
	DD	2 DUP(00H)
	DD	00H
	DD	01H
xdata$x	ENDS
;	COMDAT xdata$x
xdata$x	SEGMENT
__ehfuncinfo$??1_Sentry_base@?$basic_ostream@DU?$char_traits@D@std@@@std@@QAE@XZ DD 019930522H
	DD	00H
	DD	00H
	DD	2 DUP(00H)
	DD	2 DUP(00H)
	DD	00H
	DD	05H
xdata$x	ENDS
;	COMDAT xdata$x
xdata$x	SEGMENT
__catchsym$??$?6U?$char_traits@D@std@@@std@@YAAAV?$basic_ostream@DU?$char_traits@D@std@@@0@AAV10@PBD@Z$5 DD 040H
	DD	00H
	DD	00H
	DD	FLAT:__catch$??$?6U?$char_traits@D@std@@@std@@YAAAV?$basic_ostream@DU?$char_traits@D@std@@@0@AAV10@PBD@Z$0
__tryblocktable$??$?6U?$char_traits@D@std@@@std@@YAAAV?$basic_ostream@DU?$char_traits@D@std@@@0@AAV10@PBD@Z DD 01H
	DD	01H
	DD	02H
	DD	01H
	DD	FLAT:__catchsym$??$?6U?$char_traits@D@std@@@std@@YAAAV?$basic_ostream@DU?$char_traits@D@std@@@0@AAV10@PBD@Z$5
__ehfuncinfo$??$?6U?$char_traits@D@std@@@std@@YAAAV?$basic_ostream@DU?$char_traits@D@std@@@0@AAV10@PBD@Z DD 019930522H
	DD	05H
	DD	FLAT:__unwindtable$??$?6U?$char_traits@D@std@@@std@@YAAAV?$basic_ostream@DU?$char_traits@D@std@@@0@AAV10@PBD@Z
	DD	01H
	DD	FLAT:__tryblocktable$??$?6U?$char_traits@D@std@@@std@@YAAAV?$basic_ostream@DU?$char_traits@D@std@@@0@AAV10@PBD@Z
	DD	2 DUP(00H)
	DD	00H
	DD	01H
__unwindtable$??$?6U?$char_traits@D@std@@@std@@YAAAV?$basic_ostream@DU?$char_traits@D@std@@@0@AAV10@PBD@Z DD 0ffffffffH
	DD	FLAT:__unwindfunclet$??$?6U?$char_traits@D@std@@@std@@YAAAV?$basic_ostream@DU?$char_traits@D@std@@@0@AAV10@PBD@Z$2
	DD	00H
	DD	00H
	DD	00H
	DD	00H
	DD	0ffffffffH
	DD	FLAT:___std_terminate
	DD	03H
	DD	FLAT:___std_terminate
xdata$x	ENDS
;	COMDAT xdata$x
xdata$x	SEGMENT
__unwindtable$?flush@?$basic_ostream@DU?$char_traits@D@std@@@std@@QAEAAV12@XZ DD 0ffffffffH
	DD	FLAT:__unwindfunclet$?flush@?$basic_ostream@DU?$char_traits@D@std@@@std@@QAEAAV12@XZ$0
	DD	0ffffffffH
	DD	FLAT:___std_terminate
	DD	01H
	DD	FLAT:___std_terminate
__ehfuncinfo$?flush@?$basic_ostream@DU?$char_traits@D@std@@@std@@QAEAAV12@XZ DD 019930522H
	DD	03H
	DD	FLAT:__unwindtable$?flush@?$basic_ostream@DU?$char_traits@D@std@@@std@@QAEAAV12@XZ
	DD	2 DUP(00H)
	DD	2 DUP(00H)
	DD	00H
	DD	01H
xdata$x	ENDS
;	COMDAT xdata$x
xdata$x	SEGMENT
__catchsym$??6?$basic_ostream@DU?$char_traits@D@std@@@std@@QAEAAV01@I@Z$9 DD 040H
	DD	00H
	DD	00H
	DD	FLAT:__catch$??6?$basic_ostream@DU?$char_traits@D@std@@@std@@QAEAAV01@I@Z$0
__tryblocktable$??6?$basic_ostream@DU?$char_traits@D@std@@@std@@QAEAAV01@I@Z DD 04H
	DD	04H
	DD	05H
	DD	01H
	DD	FLAT:__catchsym$??6?$basic_ostream@DU?$char_traits@D@std@@@std@@QAEAAV01@I@Z$9
__ehfuncinfo$??6?$basic_ostream@DU?$char_traits@D@std@@@std@@QAEAAV01@I@Z DD 019930522H
	DD	08H
	DD	FLAT:__unwindtable$??6?$basic_ostream@DU?$char_traits@D@std@@@std@@QAEAAV01@I@Z
	DD	01H
	DD	FLAT:__tryblocktable$??6?$basic_ostream@DU?$char_traits@D@std@@@std@@QAEAAV01@I@Z
	DD	2 DUP(00H)
	DD	00H
	DD	01H
__unwindtable$??6?$basic_ostream@DU?$char_traits@D@std@@@std@@QAEAAV01@I@Z DD 0ffffffffH
	DD	FLAT:__unwindfunclet$??6?$basic_ostream@DU?$char_traits@D@std@@@std@@QAEAAV01@I@Z$2
	DD	00H
	DD	FLAT:___std_terminate
	DD	00H
	DD	FLAT:__unwindfunclet$??6?$basic_ostream@DU?$char_traits@D@std@@@std@@QAEAAV01@I@Z$3
	DD	00H
	DD	FLAT:___std_terminate
	DD	00H
	DD	00H
	DD	00H
	DD	00H
	DD	0ffffffffH
	DD	FLAT:___std_terminate
	DD	06H
	DD	FLAT:___std_terminate
xdata$x	ENDS
;	COMDAT xdata$x
xdata$x	SEGMENT
__catchsym$??6?$basic_ostream@DU?$char_traits@D@std@@@std@@QAEAAV01@H@Z$9 DD 040H
	DD	00H
	DD	00H
	DD	FLAT:__catch$??6?$basic_ostream@DU?$char_traits@D@std@@@std@@QAEAAV01@H@Z$0
__tryblocktable$??6?$basic_ostream@DU?$char_traits@D@std@@@std@@QAEAAV01@H@Z DD 04H
	DD	04H
	DD	05H
	DD	01H
	DD	FLAT:__catchsym$??6?$basic_ostream@DU?$char_traits@D@std@@@std@@QAEAAV01@H@Z$9
__ehfuncinfo$??6?$basic_ostream@DU?$char_traits@D@std@@@std@@QAEAAV01@H@Z DD 019930522H
	DD	08H
	DD	FLAT:__unwindtable$??6?$basic_ostream@DU?$char_traits@D@std@@@std@@QAEAAV01@H@Z
	DD	01H
	DD	FLAT:__tryblocktable$??6?$basic_ostream@DU?$char_traits@D@std@@@std@@QAEAAV01@H@Z
	DD	2 DUP(00H)
	DD	00H
	DD	01H
__unwindtable$??6?$basic_ostream@DU?$char_traits@D@std@@@std@@QAEAAV01@H@Z DD 0ffffffffH
	DD	FLAT:__unwindfunclet$??6?$basic_ostream@DU?$char_traits@D@std@@@std@@QAEAAV01@H@Z$2
	DD	00H
	DD	FLAT:___std_terminate
	DD	00H
	DD	FLAT:__unwindfunclet$??6?$basic_ostream@DU?$char_traits@D@std@@@std@@QAEAAV01@H@Z$3
	DD	00H
	DD	FLAT:___std_terminate
	DD	00H
	DD	00H
	DD	00H
	DD	00H
	DD	0ffffffffH
	DD	FLAT:___std_terminate
	DD	06H
	DD	FLAT:___std_terminate
xdata$x	ENDS
;	COMDAT xdata$x
xdata$x	SEGMENT
__catchsym$?_Osfx@?$basic_ostream@DU?$char_traits@D@std@@@std@@QAEXXZ$2 DD 040H
	DD	00H
	DD	00H
	DD	FLAT:__catch$?_Osfx@?$basic_ostream@DU?$char_traits@D@std@@@std@@QAEXXZ$0
__unwindtable$?_Osfx@?$basic_ostream@DU?$char_traits@D@std@@@std@@QAEXXZ DD 0ffffffffH
	DD	00H
	DD	0ffffffffH
	DD	00H
__tryblocktable$?_Osfx@?$basic_ostream@DU?$char_traits@D@std@@@std@@QAEXXZ DD 00H
	DD	00H
	DD	01H
	DD	01H
	DD	FLAT:__catchsym$?_Osfx@?$basic_ostream@DU?$char_traits@D@std@@@std@@QAEXXZ$2
__ehfuncinfo$?_Osfx@?$basic_ostream@DU?$char_traits@D@std@@@std@@QAEXXZ DD 019930522H
	DD	02H
	DD	FLAT:__unwindtable$?_Osfx@?$basic_ostream@DU?$char_traits@D@std@@@std@@QAEXXZ
	DD	01H
	DD	FLAT:__tryblocktable$?_Osfx@?$basic_ostream@DU?$char_traits@D@std@@@std@@QAEXXZ
	DD	2 DUP(00H)
	DD	00H
	DD	01H
xdata$x	ENDS
;	COMDAT xdata$x
xdata$x	SEGMENT
__unwindtable$??0Game@core@@QAE@PBDHHHH0H@Z DD 0ffffffffH
	DD	FLAT:__unwindfunclet$??0Game@core@@QAE@PBDHHHH0H@Z$0
__ehfuncinfo$??0Game@core@@QAE@PBDHHHH0H@Z DD 019930522H
	DD	01H
	DD	FLAT:__unwindtable$??0Game@core@@QAE@PBDHHHH0H@Z
	DD	2 DUP(00H)
	DD	2 DUP(00H)
	DD	00H
	DD	01H
xdata$x	ENDS
;	COMDAT xdata$x
xdata$x	SEGMENT
__unwindtable$?getloc@ios_base@std@@QBE?AVlocale@2@XZ DD 0ffffffffH
	DD	FLAT:___std_terminate
__ehfuncinfo$?getloc@ios_base@std@@QBE?AVlocale@2@XZ DD 019930522H
	DD	01H
	DD	FLAT:__unwindtable$?getloc@ios_base@std@@QBE?AVlocale@2@XZ
	DD	2 DUP(00H)
	DD	2 DUP(00H)
	DD	00H
	DD	01H
xdata$x	ENDS
;	COMDAT xdata$x
xdata$x	SEGMENT
__unwindtable$??0failure@ios_base@std@@QAE@PBDABVerror_code@2@@Z DD 0ffffffffH
	DD	FLAT:__unwindfunclet$??0failure@ios_base@std@@QAE@PBDABVerror_code@2@@Z$1
__ehfuncinfo$??0failure@ios_base@std@@QAE@PBDABVerror_code@2@@Z DD 019930522H
	DD	01H
	DD	FLAT:__unwindtable$??0failure@ios_base@std@@QAE@PBDABVerror_code@2@@Z
	DD	2 DUP(00H)
	DD	2 DUP(00H)
	DD	00H
	DD	01H
xdata$x	ENDS
;	COMDAT xdata$x
xdata$x	SEGMENT
__unwindtable$??0system_error@std@@QAE@Verror_code@1@PBD@Z DD 0ffffffffH
	DD	FLAT:__unwindfunclet$??0system_error@std@@QAE@Verror_code@1@PBD@Z$0
__ehfuncinfo$??0system_error@std@@QAE@Verror_code@1@PBD@Z DD 019930522H
	DD	01H
	DD	FLAT:__unwindtable$??0system_error@std@@QAE@Verror_code@1@PBD@Z
	DD	2 DUP(00H)
	DD	2 DUP(00H)
	DD	00H
	DD	01H
xdata$x	ENDS
;	COMDAT xdata$x
xdata$x	SEGMENT
__unwindtable$??0_System_error@std@@IAE@Verror_code@1@ABV?$basic_string@DU?$char_traits@D@std@@V?$allocator@D@2@@1@@Z DD 0ffffffffH
	DD	FLAT:__unwindfunclet$??0_System_error@std@@IAE@Verror_code@1@ABV?$basic_string@DU?$char_traits@D@std@@V?$allocator@D@2@@1@@Z$3
	DD	00H
	DD	FLAT:__unwindfunclet$??0_System_error@std@@IAE@Verror_code@1@ABV?$basic_string@DU?$char_traits@D@std@@V?$allocator@D@2@@1@@Z$4
__ehfuncinfo$??0_System_error@std@@IAE@Verror_code@1@ABV?$basic_string@DU?$char_traits@D@std@@V?$allocator@D@2@@1@@Z DD 019930522H
	DD	02H
	DD	FLAT:__unwindtable$??0_System_error@std@@IAE@Verror_code@1@ABV?$basic_string@DU?$char_traits@D@std@@V?$allocator@D@2@@1@@Z
	DD	2 DUP(00H)
	DD	2 DUP(00H)
	DD	00H
	DD	01H
xdata$x	ENDS
;	COMDAT xdata$x
xdata$x	SEGMENT
__unwindtable$?_Makestr@_System_error@std@@CA?AV?$basic_string@DU?$char_traits@D@std@@V?$allocator@D@2@@2@Verror_code@2@V32@@Z DD 0ffffffffH
	DD	FLAT:__unwindfunclet$?_Makestr@_System_error@std@@CA?AV?$basic_string@DU?$char_traits@D@std@@V?$allocator@D@2@@2@Verror_code@2@V32@@Z$0
	DD	00H
	DD	FLAT:__unwindfunclet$?_Makestr@_System_error@std@@CA?AV?$basic_string@DU?$char_traits@D@std@@V?$allocator@D@2@@2@Verror_code@2@V32@@Z$1
__ehfuncinfo$?_Makestr@_System_error@std@@CA?AV?$basic_string@DU?$char_traits@D@std@@V?$allocator@D@2@@2@Verror_code@2@V32@@Z DD 019930522H
	DD	02H
	DD	FLAT:__unwindtable$?_Makestr@_System_error@std@@CA?AV?$basic_string@DU?$char_traits@D@std@@V?$allocator@D@2@@2@Verror_code@2@V32@@Z
	DD	2 DUP(00H)
	DD	2 DUP(00H)
	DD	00H
	DD	01H
xdata$x	ENDS
;	COMDAT xdata$x
xdata$x	SEGMENT
__unwindtable$??$use_facet@V?$ctype@D@std@@@std@@YAABV?$ctype@D@0@ABVlocale@0@@Z DD 0ffffffffH
	DD	FLAT:__unwindfunclet$??$use_facet@V?$ctype@D@std@@@std@@YAABV?$ctype@D@0@ABVlocale@0@@Z$0
	DD	00H
	DD	FLAT:__unwindfunclet$??$use_facet@V?$ctype@D@std@@@std@@YAABV?$ctype@D@0@ABVlocale@0@@Z$3
	DD	00H
	DD	FLAT:__unwindfunclet$??$use_facet@V?$ctype@D@std@@@std@@YAABV?$ctype@D@0@ABVlocale@0@@Z$1
__ehfuncinfo$??$use_facet@V?$ctype@D@std@@@std@@YAABV?$ctype@D@0@ABVlocale@0@@Z DD 019930522H
	DD	03H
	DD	FLAT:__unwindtable$??$use_facet@V?$ctype@D@std@@@std@@YAABV?$ctype@D@0@ABVlocale@0@@Z
	DD	2 DUP(00H)
	DD	2 DUP(00H)
	DD	00H
	DD	01H
xdata$x	ENDS
;	COMDAT xdata$x
xdata$x	SEGMENT
__unwindtable$?_Getcat@?$ctype@D@std@@SAIPAPBVfacet@locale@2@PBV42@@Z DD 0ffffffffH
	DD	FLAT:__unwindfunclet$?_Getcat@?$ctype@D@std@@SAIPAPBVfacet@locale@2@PBV42@@Z$0
__ehfuncinfo$?_Getcat@?$ctype@D@std@@SAIPAPBVfacet@locale@2@PBV42@@Z DD 019930522H
	DD	01H
	DD	FLAT:__unwindtable$?_Getcat@?$ctype@D@std@@SAIPAPBVfacet@locale@2@PBV42@@Z
	DD	2 DUP(00H)
	DD	2 DUP(00H)
	DD	00H
	DD	01H
xdata$x	ENDS
;	COMDAT xdata$x
xdata$x	SEGMENT
__ehfuncinfo$??1locale@std@@QAE@XZ DD 019930522H
	DD	00H
	DD	00H
	DD	2 DUP(00H)
	DD	2 DUP(00H)
	DD	00H
	DD	05H
xdata$x	ENDS
;	COMDAT xdata$x
xdata$x	SEGMENT
__ehfuncinfo$??0locale@std@@QAE@ABV01@@Z DD 019930522H
	DD	00H
	DD	00H
	DD	2 DUP(00H)
	DD	2 DUP(00H)
	DD	00H
	DD	05H
xdata$x	ENDS
;	COMDAT xdata$x
xdata$x	SEGMENT
__ehfuncinfo$??1_Locinfo@std@@QAE@XZ DD 019930522H
	DD	00H
	DD	00H
	DD	2 DUP(00H)
	DD	2 DUP(00H)
	DD	00H
	DD	05H
xdata$x	ENDS
;	COMDAT xdata$x
xdata$x	SEGMENT
__ehfuncinfo$??0_Locinfo@std@@QAE@PBD@Z DD 019930522H
	DD	07H
	DD	FLAT:__unwindtable$??0_Locinfo@std@@QAE@PBD@Z
	DD	2 DUP(00H)
	DD	2 DUP(00H)
	DD	00H
	DD	01H
__unwindtable$??0_Locinfo@std@@QAE@PBD@Z DD 0ffffffffH
	DD	FLAT:__unwindfunclet$??0_Locinfo@std@@QAE@PBD@Z$0
	DD	00H
	DD	FLAT:__unwindfunclet$??0_Locinfo@std@@QAE@PBD@Z$1
	DD	01H
	DD	FLAT:__unwindfunclet$??0_Locinfo@std@@QAE@PBD@Z$2
	DD	02H
	DD	FLAT:__unwindfunclet$??0_Locinfo@std@@QAE@PBD@Z$3
	DD	03H
	DD	FLAT:__unwindfunclet$??0_Locinfo@std@@QAE@PBD@Z$4
	DD	04H
	DD	FLAT:__unwindfunclet$??0_Locinfo@std@@QAE@PBD@Z$5
	DD	05H
	DD	FLAT:__unwindfunclet$??0_Locinfo@std@@QAE@PBD@Z$6
xdata$x	ENDS
; Function compile flags: /Ogtpy
; File c:\program files (x86)\microsoft visual studio\2017\community\vc\tools\msvc\14.15.26726\include\type_traits
;	COMDAT ??$forward@AAPAV_Facet_base@std@@@std@@YAAAPAV_Facet_base@0@AAPAV10@@Z
_TEXT	SEGMENT
__Arg$ = 8						; size = 4
??$forward@AAPAV_Facet_base@std@@@std@@YAAAPAV_Facet_base@0@AAPAV10@@Z PROC ; std::forward<std::_Facet_base * &>, COMDAT

; 1574 : 	return (static_cast<_Ty&&>(_Arg));

  00000	8b 44 24 04	 mov	 eax, DWORD PTR __Arg$[esp-4]

; 1575 : 	}

  00004	c3		 ret	 0
??$forward@AAPAV_Facet_base@std@@@std@@YAAAPAV_Facet_base@0@AAPAV10@@Z ENDP ; std::forward<std::_Facet_base * &>
_TEXT	ENDS
; Function compile flags: /Ogtpy
; File c:\program files (x86)\microsoft visual studio\2017\community\vc\tools\msvc\14.15.26726\include\xutility
;	COMDAT ??$?0AAPAV_Facet_base@std@@@?$_Compressed_pair@U?$default_delete@V_Facet_base@std@@@std@@PAV_Facet_base@2@$00@std@@QAE@U_Zero_then_variadic_args_t@1@AAPAV_Facet_base@1@@Z
_TEXT	SEGMENT
___formal$ = 8						; size = 1
_<_Val2_0>$ = 12					; size = 4
??$?0AAPAV_Facet_base@std@@@?$_Compressed_pair@U?$default_delete@V_Facet_base@std@@@std@@PAV_Facet_base@2@$00@std@@QAE@U_Zero_then_variadic_args_t@1@AAPAV_Facet_base@1@@Z PROC ; std::_Compressed_pair<std::default_delete<std::_Facet_base>,std::_Facet_base *,1>::_Compressed_pair<std::default_delete<std::_Facet_base>,std::_Facet_base *,1><std::_Facet_base * &>, COMDAT
; _this$ = ecx

; 277  : 		: _Ty1(), _Myval2(_STD forward<_Other2>(_Val2)...)

  00000	8b 44 24 08	 mov	 eax, DWORD PTR _<_Val2_0>$[esp-4]
  00004	8b 00		 mov	 eax, DWORD PTR [eax]
  00006	89 01		 mov	 DWORD PTR [ecx], eax

; 279  : 		}

  00008	8b c1		 mov	 eax, ecx
  0000a	c2 08 00	 ret	 8
??$?0AAPAV_Facet_base@std@@@?$_Compressed_pair@U?$default_delete@V_Facet_base@std@@@std@@PAV_Facet_base@2@$00@std@@QAE@U_Zero_then_variadic_args_t@1@AAPAV_Facet_base@1@@Z ENDP ; std::_Compressed_pair<std::default_delete<std::_Facet_base>,std::_Facet_base *,1>::_Compressed_pair<std::default_delete<std::_Facet_base>,std::_Facet_base *,1><std::_Facet_base * &>
_TEXT	ENDS
; Function compile flags: /Ogtpy
; File c:\program files (x86)\microsoft visual studio\2017\community\vc\tools\msvc\14.15.26726\include\xutility
;	COMDAT ??$_Fill_unchecked1@PAHH@std@@YAXPAH0ABHU?$integral_constant@_N$0A@@0@@Z
_TEXT	SEGMENT
__First$ = 8						; size = 4
__Last$ = 12						; size = 4
__Val$ = 16						; size = 4
___formal$ = 20						; size = 1
??$_Fill_unchecked1@PAHH@std@@YAXPAH0ABHU?$integral_constant@_N$0A@@0@@Z PROC ; std::_Fill_unchecked1<int *,int>, COMDAT

; 2901 : 	{	// copy _Val through [_First, _Last), no special optimization

  00000	53		 push	 ebx

; 2902 : 	for (; _First != _Last; ++_First)

  00001	8b 5c 24 08	 mov	 ebx, DWORD PTR __First$[esp]
  00005	33 c9		 xor	 ecx, ecx
  00007	55		 push	 ebp
  00008	8b 6c 24 10	 mov	 ebp, DWORD PTR __Last$[esp+4]
  0000c	33 d2		 xor	 edx, edx
  0000e	2b eb		 sub	 ebp, ebx
  00010	83 c5 03	 add	 ebp, 3
  00013	c1 ed 02	 shr	 ebp, 2
  00016	3b 5c 24 10	 cmp	 ebx, DWORD PTR __Last$[esp+4]
  0001a	0f 47 e9	 cmova	 ebp, ecx
  0001d	85 ed		 test	 ebp, ebp
  0001f	74 52		 je	 SHORT $LN3@Fill_unche
  00021	8b 44 24 14	 mov	 eax, DWORD PTR __Val$[esp+4]
  00025	57		 push	 edi
  00026	83 fd 04	 cmp	 ebp, 4
  00029	72 32		 jb	 SHORT $LN9@Fill_unche

; 2903 : 		*_First = _Val;

  0002b	8b 38		 mov	 edi, DWORD PTR [eax]
  0002d	8d 4b fc	 lea	 ecx, DWORD PTR [ebx-4]
  00030	8d 0c a9	 lea	 ecx, DWORD PTR [ecx+ebp*4]
  00033	3b d8		 cmp	 ebx, eax
  00035	77 04		 ja	 SHORT $LN10@Fill_unche

; 2902 : 	for (; _First != _Last; ++_First)

  00037	3b c8		 cmp	 ecx, eax
  00039	73 22		 jae	 SHORT $LN9@Fill_unche
$LN10@Fill_unche:
  0003b	56		 push	 esi
  0003c	8b f5		 mov	 esi, ebp
  0003e	83 e6 fc	 and	 esi, -4			; fffffffcH
$LL4@Fill_unche:
  00041	83 c2 04	 add	 edx, 4
  00044	3b d6		 cmp	 edx, esi
  00046	75 f9		 jne	 SHORT $LL4@Fill_unche
  00048	c1 e6 02	 shl	 esi, 2
  0004b	8b c7		 mov	 eax, edi
  0004d	8b ce		 mov	 ecx, esi
  0004f	8b fb		 mov	 edi, ebx
  00051	c1 e9 02	 shr	 ecx, 2
  00054	03 de		 add	 ebx, esi
  00056	f3 ab		 rep stosd
  00058	8b 44 24 1c	 mov	 eax, DWORD PTR __Val$[esp+12]
  0005c	5e		 pop	 esi
$LN9@Fill_unche:
  0005d	5f		 pop	 edi
  0005e	3b d5		 cmp	 edx, ebp
  00060	74 11		 je	 SHORT $LN3@Fill_unche
$LL8@Fill_unche:

; 2903 : 		*_First = _Val;

  00062	8b 00		 mov	 eax, DWORD PTR [eax]
  00064	8d 5b 04	 lea	 ebx, DWORD PTR [ebx+4]
  00067	42		 inc	 edx
  00068	89 43 fc	 mov	 DWORD PTR [ebx-4], eax
  0006b	8b 44 24 14	 mov	 eax, DWORD PTR __Val$[esp+4]
  0006f	3b d5		 cmp	 edx, ebp
  00071	75 ef		 jne	 SHORT $LL8@Fill_unche
$LN3@Fill_unche:
  00073	5d		 pop	 ebp

; 2904 : 	}

  00074	5b		 pop	 ebx
  00075	c3		 ret	 0
??$_Fill_unchecked1@PAHH@std@@YAXPAH0ABHU?$integral_constant@_N$0A@@0@@Z ENDP ; std::_Fill_unchecked1<int *,int>
_TEXT	ENDS
; Function compile flags: /Ogtpy
; File c:\program files (x86)\microsoft visual studio\2017\community\vc\tools\msvc\14.15.26726\include\xutility
;	COMDAT ??$_Fill_memset_is_safe@PAHH@std@@YA?AU?$integral_constant@_N$0A@@0@ABQAHABH@Z
_TEXT	SEGMENT
___formal$ = 8						; size = 4
___formal$ = 12						; size = 4
??$_Fill_memset_is_safe@PAHH@std@@YA?AU?$integral_constant@_N$0A@@0@ABQAHABH@Z PROC ; std::_Fill_memset_is_safe<int *,int>, COMDAT

; 2895 : 	return {};

  00000	32 c0		 xor	 al, al

; 2896 : 	}

  00002	c3		 ret	 0
??$_Fill_memset_is_safe@PAHH@std@@YA?AU?$integral_constant@_N$0A@@0@ABQAHABH@Z ENDP ; std::_Fill_memset_is_safe<int *,int>
_TEXT	ENDS
; Function compile flags: /Ogtpy
; File c:\program files (x86)\microsoft visual studio\2017\community\vc\tools\msvc\14.15.26726\include\xutility
;	COMDAT ??$_Adl_verify_range1@V?$_Vector_iterator@V?$_Vector_val@U?$_Simple_types@H@std@@@std@@@std@@V12@@std@@YAXABV?$_Vector_iterator@V?$_Vector_val@U?$_Simple_types@H@std@@@std@@@0@0U?$integral_constant@_N$0A@@0@@Z
_TEXT	SEGMENT
___formal$ = 8						; size = 4
___formal$ = 12						; size = 4
___formal$ = 16						; size = 1
??$_Adl_verify_range1@V?$_Vector_iterator@V?$_Vector_val@U?$_Simple_types@H@std@@@std@@@std@@V12@@std@@YAXABV?$_Vector_iterator@V?$_Vector_val@U?$_Simple_types@H@std@@@std@@@0@0U?$integral_constant@_N$0A@@0@@Z PROC ; std::_Adl_verify_range1<std::_Vector_iterator<std::_Vector_val<std::_Simple_types<int> > >,std::_Vector_iterator<std::_Vector_val<std::_Simple_types<int> > > >, COMDAT

; 610  : 	}

  00000	c3		 ret	 0
??$_Adl_verify_range1@V?$_Vector_iterator@V?$_Vector_val@U?$_Simple_types@H@std@@@std@@@std@@V12@@std@@YAXABV?$_Vector_iterator@V?$_Vector_val@U?$_Simple_types@H@std@@@std@@@0@0U?$integral_constant@_N$0A@@0@@Z ENDP ; std::_Adl_verify_range1<std::_Vector_iterator<std::_Vector_val<std::_Simple_types<int> > >,std::_Vector_iterator<std::_Vector_val<std::_Simple_types<int> > > >
_TEXT	ENDS
; Function compile flags: /Ogtpy
; File c:\program files (x86)\microsoft visual studio\2017\community\vc\tools\msvc\14.15.26726\include\memory
; File c:\program files (x86)\microsoft visual studio\2017\community\vc\tools\msvc\14.15.26726\include\xutility
; File c:\program files (x86)\microsoft visual studio\2017\community\vc\tools\msvc\14.15.26726\include\memory
;	COMDAT ??$?0PAV_Facet_base@std@@@?$_Unique_ptr_base@V_Facet_base@std@@U?$default_delete@V_Facet_base@std@@@2@@std@@QAE@PAV_Facet_base@1@@Z
_TEXT	SEGMENT
__Ptr$ = 8						; size = 4
??$?0PAV_Facet_base@std@@@?$_Unique_ptr_base@V_Facet_base@std@@U?$default_delete@V_Facet_base@std@@@2@@std@@QAE@PAV_Facet_base@1@@Z PROC ; std::_Unique_ptr_base<std::_Facet_base,std::default_delete<std::_Facet_base> >::_Unique_ptr_base<std::_Facet_base,std::default_delete<std::_Facet_base> ><std::_Facet_base *>, COMDAT
; _this$ = ecx
; File c:\program files (x86)\microsoft visual studio\2017\community\vc\tools\msvc\14.15.26726\include\xutility

; 277  : 		: _Ty1(), _Myval2(_STD forward<_Other2>(_Val2)...)

  00000	8b 44 24 04	 mov	 eax, DWORD PTR __Ptr$[esp-4]
  00004	89 01		 mov	 DWORD PTR [ecx], eax
; File c:\program files (x86)\microsoft visual studio\2017\community\vc\tools\msvc\14.15.26726\include\memory

; 2145 : 		}

  00006	8b c1		 mov	 eax, ecx
  00008	c2 04 00	 ret	 4
??$?0PAV_Facet_base@std@@@?$_Unique_ptr_base@V_Facet_base@std@@U?$default_delete@V_Facet_base@std@@@2@@std@@QAE@PAV_Facet_base@1@@Z ENDP ; std::_Unique_ptr_base<std::_Facet_base,std::default_delete<std::_Facet_base> >::_Unique_ptr_base<std::_Facet_base,std::default_delete<std::_Facet_base> ><std::_Facet_base *>
_TEXT	ENDS
; Function compile flags: /Ogtpy
; File c:\program files (x86)\microsoft visual studio\2017\community\vc\tools\msvc\14.15.26726\include\xlocnum
;	COMDAT ??$_Getvals@D@?$numpunct@D@std@@IAEXDPBUlconv@@U_Cvtvec@@@Z
_TEXT	SEGMENT
___formal$ = 8						; size = 1
__Ptr$ = 12						; size = 4
__Cvt$ = 16						; size = 44
??$_Getvals@D@?$numpunct@D@std@@IAEXDPBUlconv@@U_Cvtvec@@@Z PROC ; std::numpunct<char>::_Getvals<char>, COMDAT
; _this$ = ecx

; 189  : 		_Dp = _Maklocchr(_Ptr->decimal_point[0], static_cast<_Elem2 *>(nullptr), _Cvt);

  00000	8b 54 24 08	 mov	 edx, DWORD PTR __Ptr$[esp-4]
  00004	8b 02		 mov	 eax, DWORD PTR [edx]
  00006	0f b6 00	 movzx	 eax, BYTE PTR [eax]
  00009	88 41 0c	 mov	 BYTE PTR [ecx+12], al

; 190  : 		_Kseparator = _Maklocchr(_Ptr->thousands_sep[0], static_cast<_Elem2 *>(nullptr), _Cvt);

  0000c	8b 42 04	 mov	 eax, DWORD PTR [edx+4]
  0000f	0f b6 00	 movzx	 eax, BYTE PTR [eax]
  00012	88 41 0d	 mov	 BYTE PTR [ecx+13], al

; 191  : 		}

  00015	c2 34 00	 ret	 52			; 00000034H
??$_Getvals@D@?$numpunct@D@std@@IAEXDPBUlconv@@U_Cvtvec@@@Z ENDP ; std::numpunct<char>::_Getvals<char>
_TEXT	ENDS
; Function compile flags: /Ogtpy
; File c:\program files (x86)\microsoft visual studio\2017\community\vc\tools\msvc\14.15.26726\include\xlocale
;	COMDAT ??$_Maklocchr@D@std@@YADDPADABU_Cvtvec@@@Z
_TEXT	SEGMENT
__Byte$ = 8						; size = 1
___formal$ = 12						; size = 4
___formal$ = 16						; size = 4
??$_Maklocchr@D@std@@YADDPADABU_Cvtvec@@@Z PROC		; std::_Maklocchr<char>, COMDAT

; 635  : 	return ((_Elem)(unsigned char)_Byte);

  00000	8a 44 24 04	 mov	 al, BYTE PTR __Byte$[esp-4]

; 636  : 	}

  00004	c3		 ret	 0
??$_Maklocchr@D@std@@YADDPADABU_Cvtvec@@@Z ENDP		; std::_Maklocchr<char>
_TEXT	ENDS
; Function compile flags: /Ogtpy
; File c:\program files (x86)\microsoft visual studio\2017\community\vc\tools\msvc\14.15.26726\include\xlocale
;	COMDAT ??$_Maklocstr@D@std@@YAPADPBDPADABU_Cvtvec@@@Z
_TEXT	SEGMENT
__Ptr$ = 8						; size = 4
___formal$ = 12						; size = 4
___formal$ = 16						; size = 4
??$_Maklocstr@D@std@@YAPADPBDPADABU_Cvtvec@@@Z PROC	; std::_Maklocstr<char>, COMDAT

; 664  : 	{	// convert C string to _Elem sequence using _Cvtvec

  00000	56		 push	 esi

; 665  : 	size_t _Count = _CSTD strlen(_Ptr) + 1;

  00001	8b 74 24 08	 mov	 esi, DWORD PTR __Ptr$[esp]
  00005	57		 push	 edi
  00006	8b fe		 mov	 edi, esi
  00008	8d 4f 01	 lea	 ecx, DWORD PTR [edi+1]
  0000b	0f 1f 44 00 00	 npad	 5
$LL11@Maklocstr:
  00010	8a 07		 mov	 al, BYTE PTR [edi]
  00012	47		 inc	 edi
  00013	84 c0		 test	 al, al
  00015	75 f9		 jne	 SHORT $LL11@Maklocstr
  00017	2b f9		 sub	 edi, ecx
  00019	47		 inc	 edi

; 666  : 
; 667  : 	_Elem *_Ptrdest = (_Elem *)_calloc_dbg(_Count, sizeof (_Elem),

  0001a	6a 01		 push	 1
  0001c	57		 push	 edi
  0001d	e8 00 00 00 00	 call	 _calloc
  00022	8b d0		 mov	 edx, eax
  00024	83 c4 08	 add	 esp, 8

; 668  : 		_CRT_BLOCK, __FILE__, __LINE__);
; 669  : 
; 670  : 	if (!_Ptrdest)

  00027	85 d2		 test	 edx, edx
  00029	74 1b		 je	 SHORT $LN14@Maklocstr

; 672  : 
; 673  : 	for (_Elem *_Ptrnext = _Ptrdest; 0 < _Count; --_Count, ++_Ptrnext, ++_Ptr)

  0002b	85 ff		 test	 edi, edi
  0002d	74 12		 je	 SHORT $LN3@Maklocstr
  0002f	8b ca		 mov	 ecx, edx
  00031	2b ce		 sub	 ecx, esi
$LL4@Maklocstr:

; 674  : 		*_Ptrnext = (_Elem)(unsigned char)*_Ptr;

  00033	8a 06		 mov	 al, BYTE PTR [esi]
  00035	8d 76 01	 lea	 esi, DWORD PTR [esi+1]
  00038	88 44 31 ff	 mov	 BYTE PTR [ecx+esi-1], al
  0003c	83 ef 01	 sub	 edi, 1
  0003f	75 f2		 jne	 SHORT $LL4@Maklocstr
$LN3@Maklocstr:
  00041	5f		 pop	 edi

; 675  : 
; 676  : 	return (_Ptrdest);

  00042	8b c2		 mov	 eax, edx

; 677  : 	}

  00044	5e		 pop	 esi
  00045	c3		 ret	 0
$LN14@Maklocstr:

; 671  : 		_Xbad_alloc();

  00046	e8 00 00 00 00	 call	 ?_Xbad_alloc@std@@YAXXZ	; std::_Xbad_alloc
$LN12@Maklocstr:
  0004b	cc		 int	 3
??$_Maklocstr@D@std@@YAPADPBDPADABU_Cvtvec@@@Z ENDP	; std::_Maklocstr<char>
_TEXT	ENDS
; Function compile flags: /Ogtpy
; File c:\program files (x86)\microsoft visual studio\2017\community\vc\tools\msvc\14.15.26726\include\xmemory0
;	COMDAT ??$_Pocma@V?$allocator@D@std@@@std@@YAXAAV?$allocator@D@0@0U?$integral_constant@_N$00@0@@Z
_TEXT	SEGMENT
__Left$ = 8						; size = 4
__Right$ = 12						; size = 4
___formal$ = 16						; size = 1
??$_Pocma@V?$allocator@D@std@@@std@@YAXAAV?$allocator@D@0@0U?$integral_constant@_N$00@0@@Z PROC ; std::_Pocma<std::allocator<char> >, COMDAT

; 1089 : 	_Left = _STD move(_Right);
; 1090 : 	}

  00000	c3		 ret	 0
??$_Pocma@V?$allocator@D@std@@@std@@YAXAAV?$allocator@D@0@0U?$integral_constant@_N$00@0@@Z ENDP ; std::_Pocma<std::allocator<char> >
_TEXT	ENDS
; Function compile flags: /Ogtpy
; File c:\program files (x86)\microsoft visual studio\2017\community\vc\tools\msvc\14.15.26726\include\xmemory0
;	COMDAT ??$_Allocate_manually_vector_aligned@U_Default_allocate_traits@std@@@std@@YAPAXI@Z
_TEXT	SEGMENT
__Bytes$ = 8						; size = 4
??$_Allocate_manually_vector_aligned@U_Default_allocate_traits@std@@@std@@YAPAXI@Z PROC ; std::_Allocate_manually_vector_aligned<std::_Default_allocate_traits>, COMDAT

; 93   : 	size_t _Block_size = _Non_user_size + _Bytes;

  00000	8b 44 24 04	 mov	 eax, DWORD PTR __Bytes$[esp-4]

; 94   : 	if (_Block_size <= _Bytes)

  00004	83 ca ff	 or	 edx, -1
  00007	8d 48 23	 lea	 ecx, DWORD PTR [eax+35]
  0000a	3b c8		 cmp	 ecx, eax
  0000c	0f 46 ca	 cmovbe	 ecx, edx

; 52   : 		return (::operator new(_Bytes));

  0000f	51		 push	 ecx
  00010	e8 00 00 00 00	 call	 ??2@YAPAXI@Z		; operator new

; 95   : 		{	// add overflow, try allocating all of memory and assume the
; 96   : 			// allocation function will throw bad_alloc
; 97   : 		_Block_size = static_cast<size_t>(-1);
; 98   : 		}
; 99   : 
; 100  : 	const uintptr_t _Ptr_container = reinterpret_cast<uintptr_t>(_Traits::_Allocate(_Block_size));

  00015	8b c8		 mov	 ecx, eax

; 52   : 		return (::operator new(_Bytes));

  00017	83 c4 04	 add	 esp, 4

; 101  : 	_STL_VERIFY(_Ptr_container != 0, "invalid argument");	// validate even in release since we're doing p[-1]

  0001a	85 c9		 test	 ecx, ecx
  0001c	74 0a		 je	 SHORT $LN7@Allocate_m

; 102  : 	void * const _Ptr = reinterpret_cast<void *>((_Ptr_container + _Non_user_size)
; 103  : 		& ~(_Big_allocation_alignment - 1));

  0001e	8d 41 23	 lea	 eax, DWORD PTR [ecx+35]
  00021	83 e0 e0	 and	 eax, -32		; ffffffe0H

; 104  : 	static_cast<uintptr_t *>(_Ptr)[-1] = _Ptr_container;

  00024	89 48 fc	 mov	 DWORD PTR [eax-4], ecx

; 105  : 
; 106  :   #ifdef _DEBUG
; 107  : 	static_cast<uintptr_t *>(_Ptr)[-2] = _Big_allocation_sentinel;
; 108  :   #endif /* _DEBUG */
; 109  : 	return (_Ptr);
; 110  : 	}

  00027	c3		 ret	 0
$LN7@Allocate_m:

; 101  : 	_STL_VERIFY(_Ptr_container != 0, "invalid argument");	// validate even in release since we're doing p[-1]

  00028	e9 00 00 00 00	 jmp	 __invalid_parameter_noinfo_noreturn
??$_Allocate_manually_vector_aligned@U_Default_allocate_traits@std@@@std@@YAPAXI@Z ENDP ; std::_Allocate_manually_vector_aligned<std::_Default_allocate_traits>
_TEXT	ENDS
; Function compile flags: /Ogtpy
; File c:\program files (x86)\microsoft visual studio\2017\community\vc\tools\msvc\14.15.26726\include\type_traits
;	COMDAT ??$forward@ABQAD@std@@YAABQADABQAD@Z
_TEXT	SEGMENT
__Arg$ = 8						; size = 4
??$forward@ABQAD@std@@YAABQADABQAD@Z PROC		; std::forward<char * const &>, COMDAT

; 1574 : 	return (static_cast<_Ty&&>(_Arg));

  00000	8b 44 24 04	 mov	 eax, DWORD PTR __Arg$[esp-4]

; 1575 : 	}

  00004	c3		 ret	 0
??$forward@ABQAD@std@@YAABQADABQAD@Z ENDP		; std::forward<char * const &>
_TEXT	ENDS
; Function compile flags: /Ogtpy
; File c:\program files (x86)\microsoft visual studio\2017\community\vc\tools\msvc\14.15.26726\include\xutility
; File c:\program files (x86)\microsoft visual studio\2017\community\vc\tools\msvc\14.15.26726\include\xstring
; File c:\program files (x86)\microsoft visual studio\2017\community\vc\tools\msvc\14.15.26726\include\xutility
; File c:\program files (x86)\microsoft visual studio\2017\community\vc\tools\msvc\14.15.26726\include\xstring
; File c:\program files (x86)\microsoft visual studio\2017\community\vc\tools\msvc\14.15.26726\include\xutility
;	COMDAT ??$?0V?$allocator@D@std@@$$V@?$_Compressed_pair@V?$allocator@D@std@@V?$_String_val@U?$_Simple_types@D@std@@@2@$00@std@@QAE@U_One_then_variadic_args_t@1@$$QAV?$allocator@D@1@@Z
_TEXT	SEGMENT
___formal$ = 8						; size = 1
__Val1$ = 12						; size = 4
??$?0V?$allocator@D@std@@$$V@?$_Compressed_pair@V?$allocator@D@std@@V?$_String_val@U?$_Simple_types@D@std@@@2@$00@std@@QAE@U_One_then_variadic_args_t@1@$$QAV?$allocator@D@1@@Z PROC ; std::_Compressed_pair<std::allocator<char>,std::_String_val<std::_Simple_types<char> >,1>::_Compressed_pair<std::allocator<char>,std::_String_val<std::_Simple_types<char> >,1><std::allocator<char> >, COMDAT
; _this$ = ecx
; File c:\program files (x86)\microsoft visual studio\2017\community\vc\tools\msvc\14.15.26726\include\xstring

; 1784 : 		_Mysize(0),

  00000	c7 41 10 00 00
	00 00		 mov	 DWORD PTR [ecx+16], 0
; File c:\program files (x86)\microsoft visual studio\2017\community\vc\tools\msvc\14.15.26726\include\xutility

; 288  : 		}

  00007	8b c1		 mov	 eax, ecx
; File c:\program files (x86)\microsoft visual studio\2017\community\vc\tools\msvc\14.15.26726\include\xstring

; 1785 : 		_Myres(0)

  00009	c7 41 14 00 00
	00 00		 mov	 DWORD PTR [ecx+20], 0
; File c:\program files (x86)\microsoft visual studio\2017\community\vc\tools\msvc\14.15.26726\include\xutility

; 288  : 		}

  00010	c2 08 00	 ret	 8
??$?0V?$allocator@D@std@@$$V@?$_Compressed_pair@V?$allocator@D@std@@V?$_String_val@U?$_Simple_types@D@std@@@2@$00@std@@QAE@U_One_then_variadic_args_t@1@$$QAV?$allocator@D@1@@Z ENDP ; std::_Compressed_pair<std::allocator<char>,std::_String_val<std::_Simple_types<char> >,1>::_Compressed_pair<std::allocator<char>,std::_String_val<std::_Simple_types<char> >,1><std::allocator<char> >
_TEXT	ENDS
; Function compile flags: /Ogtpy
; File c:\program files (x86)\microsoft visual studio\2017\community\vc\tools\msvc\14.15.26726\include\type_traits
;	COMDAT ??$forward@V?$allocator@D@std@@@std@@YA$$QAV?$allocator@D@0@AAV10@@Z
_TEXT	SEGMENT
__Arg$ = 8						; size = 4
??$forward@V?$allocator@D@std@@@std@@YA$$QAV?$allocator@D@0@AAV10@@Z PROC ; std::forward<std::allocator<char> >, COMDAT

; 1574 : 	return (static_cast<_Ty&&>(_Arg));

  00000	8b 44 24 04	 mov	 eax, DWORD PTR __Arg$[esp-4]

; 1575 : 	}

  00004	c3		 ret	 0
??$forward@V?$allocator@D@std@@@std@@YA$$QAV?$allocator@D@0@AAV10@@Z ENDP ; std::forward<std::allocator<char> >
_TEXT	ENDS
; Function compile flags: /Ogtpy
; File c:\program files (x86)\microsoft visual studio\2017\community\vc\tools\msvc\14.15.26726\include\xutility
;	COMDAT ??$_Fill_unchecked@PAHH@std@@YAXPAH0ABH@Z
_TEXT	SEGMENT
__First$ = 8						; size = 4
__Last$ = 12						; size = 4
__Val$ = 16						; size = 4
??$_Fill_unchecked@PAHH@std@@YAXPAH0ABH@Z PROC		; std::_Fill_unchecked<int *,int>, COMDAT

; 2916 : 	{	// copy _Val through [_First, _Last), choose optimization

  00000	53		 push	 ebx

; 2917 : 	_Fill_unchecked1(_First, _Last, _Val, _Fill_memset_is_safe(_First, _Val));

  00001	8b 5c 24 08	 mov	 ebx, DWORD PTR __First$[esp]
  00005	33 c9		 xor	 ecx, ecx
  00007	55		 push	 ebp
  00008	8b 6c 24 10	 mov	 ebp, DWORD PTR __Last$[esp+4]
  0000c	33 d2		 xor	 edx, edx
  0000e	2b eb		 sub	 ebp, ebx
  00010	83 c5 03	 add	 ebp, 3
  00013	c1 ed 02	 shr	 ebp, 2
  00016	3b 5c 24 10	 cmp	 ebx, DWORD PTR __Last$[esp+4]
  0001a	0f 47 e9	 cmova	 ebp, ecx

; 2902 : 	for (; _First != _Last; ++_First)

  0001d	85 ed		 test	 ebp, ebp
  0001f	74 52		 je	 SHORT $LN7@Fill_unche
  00021	8b 44 24 14	 mov	 eax, DWORD PTR __Val$[esp+4]
  00025	57		 push	 edi
  00026	83 fd 04	 cmp	 ebp, 4
  00029	72 32		 jb	 SHORT $LN13@Fill_unche

; 2903 : 		*_First = _Val;

  0002b	8b 38		 mov	 edi, DWORD PTR [eax]

; 2917 : 	_Fill_unchecked1(_First, _Last, _Val, _Fill_memset_is_safe(_First, _Val));

  0002d	8d 4b fc	 lea	 ecx, DWORD PTR [ebx-4]
  00030	8d 0c a9	 lea	 ecx, DWORD PTR [ecx+ebp*4]
  00033	3b d8		 cmp	 ebx, eax
  00035	77 04		 ja	 SHORT $LN14@Fill_unche
  00037	3b c8		 cmp	 ecx, eax
  00039	73 22		 jae	 SHORT $LN13@Fill_unche
$LN14@Fill_unche:
  0003b	56		 push	 esi
  0003c	8b f5		 mov	 esi, ebp
  0003e	83 e6 fc	 and	 esi, -4			; fffffffcH
$LL8@Fill_unche:

; 2902 : 	for (; _First != _Last; ++_First)

  00041	83 c2 04	 add	 edx, 4
  00044	3b d6		 cmp	 edx, esi
  00046	75 f9		 jne	 SHORT $LL8@Fill_unche

; 2917 : 	_Fill_unchecked1(_First, _Last, _Val, _Fill_memset_is_safe(_First, _Val));

  00048	c1 e6 02	 shl	 esi, 2
  0004b	8b c7		 mov	 eax, edi
  0004d	8b ce		 mov	 ecx, esi
  0004f	8b fb		 mov	 edi, ebx
  00051	c1 e9 02	 shr	 ecx, 2
  00054	03 de		 add	 ebx, esi
  00056	f3 ab		 rep stosd
  00058	8b 44 24 1c	 mov	 eax, DWORD PTR __Val$[esp+12]
  0005c	5e		 pop	 esi
$LN13@Fill_unche:

; 2902 : 	for (; _First != _Last; ++_First)

  0005d	5f		 pop	 edi
  0005e	3b d5		 cmp	 edx, ebp
  00060	74 11		 je	 SHORT $LN7@Fill_unche
$LL12@Fill_unche:

; 2903 : 		*_First = _Val;

  00062	8b 00		 mov	 eax, DWORD PTR [eax]

; 2917 : 	_Fill_unchecked1(_First, _Last, _Val, _Fill_memset_is_safe(_First, _Val));

  00064	8d 5b 04	 lea	 ebx, DWORD PTR [ebx+4]

; 2902 : 	for (; _First != _Last; ++_First)

  00067	42		 inc	 edx

; 2903 : 		*_First = _Val;

  00068	89 43 fc	 mov	 DWORD PTR [ebx-4], eax
  0006b	8b 44 24 14	 mov	 eax, DWORD PTR __Val$[esp+4]
  0006f	3b d5		 cmp	 edx, ebp
  00071	75 ef		 jne	 SHORT $LL12@Fill_unche
$LN7@Fill_unche:
  00073	5d		 pop	 ebp

; 2918 : 	}

  00074	5b		 pop	 ebx
  00075	c3		 ret	 0
??$_Fill_unchecked@PAHH@std@@YAXPAH0ABH@Z ENDP		; std::_Fill_unchecked<int *,int>
_TEXT	ENDS
; Function compile flags: /Ogtpy
; File c:\program files (x86)\microsoft visual studio\2017\community\vc\tools\msvc\14.15.26726\include\xutility
;	COMDAT ??$_Get_unwrapped@V?$_Vector_iterator@V?$_Vector_val@U?$_Simple_types@H@std@@@std@@@std@@$0A@@std@@YAPAHABV?$_Vector_iterator@V?$_Vector_val@U?$_Simple_types@H@std@@@std@@@0@@Z
_TEXT	SEGMENT
__It$ = 8						; size = 4
??$_Get_unwrapped@V?$_Vector_iterator@V?$_Vector_val@U?$_Simple_types@H@std@@@std@@@std@@$0A@@std@@YAPAHABV?$_Vector_iterator@V?$_Vector_val@U?$_Simple_types@H@std@@@std@@@0@@Z PROC ; std::_Get_unwrapped<std::_Vector_iterator<std::_Vector_val<std::_Simple_types<int> > >,0>, COMDAT

; 643  : 	return (_It._Unwrapped());

  00000	8b 44 24 04	 mov	 eax, DWORD PTR __It$[esp-4]
  00004	8b 00		 mov	 eax, DWORD PTR [eax]

; 644  : 	}

  00006	c3		 ret	 0
??$_Get_unwrapped@V?$_Vector_iterator@V?$_Vector_val@U?$_Simple_types@H@std@@@std@@@std@@$0A@@std@@YAPAHABV?$_Vector_iterator@V?$_Vector_val@U?$_Simple_types@H@std@@@std@@@0@@Z ENDP ; std::_Get_unwrapped<std::_Vector_iterator<std::_Vector_val<std::_Simple_types<int> > >,0>
_TEXT	ENDS
; Function compile flags: /Ogtpy
; File c:\program files (x86)\microsoft visual studio\2017\community\vc\tools\msvc\14.15.26726\include\xutility
;	COMDAT ??$_Adl_verify_range@V?$_Vector_iterator@V?$_Vector_val@U?$_Simple_types@H@std@@@std@@@std@@V12@@std@@YAXABV?$_Vector_iterator@V?$_Vector_val@U?$_Simple_types@H@std@@@std@@@0@0@Z
_TEXT	SEGMENT
__First$ = 8						; size = 4
__Last$ = 12						; size = 4
??$_Adl_verify_range@V?$_Vector_iterator@V?$_Vector_val@U?$_Simple_types@H@std@@@std@@@std@@V12@@std@@YAXABV?$_Vector_iterator@V?$_Vector_val@U?$_Simple_types@H@std@@@std@@@0@0@Z PROC ; std::_Adl_verify_range<std::_Vector_iterator<std::_Vector_val<std::_Simple_types<int> > >,std::_Vector_iterator<std::_Vector_val<std::_Simple_types<int> > > >, COMDAT

; 616  : 	_Adl_verify_range1(_First, _Last, bool_constant<_Range_verifiable_v<_Iter, _Sentinel>>{});
; 617  : 	}

  00000	c3		 ret	 0
??$_Adl_verify_range@V?$_Vector_iterator@V?$_Vector_val@U?$_Simple_types@H@std@@@std@@@std@@V12@@std@@YAXABV?$_Vector_iterator@V?$_Vector_val@U?$_Simple_types@H@std@@@std@@@0@0@Z ENDP ; std::_Adl_verify_range<std::_Vector_iterator<std::_Vector_val<std::_Simple_types<int> > >,std::_Vector_iterator<std::_Vector_val<std::_Simple_types<int> > > >
_TEXT	ENDS
; Function compile flags: /Ogtpy
; File c:\program files (x86)\microsoft visual studio\2017\community\vc\tools\msvc\14.15.26726\include\system_error
;	COMDAT ??$_Immortalize_impl@V_Iostream_error_category@std@@@std@@YGHPAX0PAPAX@Z
_TEXT	SEGMENT
___formal$ = 8						; size = 4
__Storage_ptr$ = 12					; size = 4
___formal$ = 16						; size = 4
??$_Immortalize_impl@V_Iostream_error_category@std@@@std@@YGHPAX0PAPAX@Z PROC ; std::_Immortalize_impl<std::_Iostream_error_category>, COMDAT

; 505  : 	_Iostream_error_category() noexcept

  00000	8b 44 24 08	 mov	 eax, DWORD PTR __Storage_ptr$[esp-4]
  00004	c7 00 00 00 00
	00		 mov	 DWORD PTR [eax], OFFSET ??_7_Iostream_error_category@std@@6B@

; 506  : 		{	// default constructor
; 507  : 		_Addr = _Iostream_addr;

  0000a	c7 40 04 05 00
	00 00		 mov	 DWORD PTR [eax+4], 5

; 601  : 	::new (_Storage_ptr) _Ty();
; 602  : 	return (1);

  00011	b8 01 00 00 00	 mov	 eax, 1

; 603  : 	}

  00016	c2 0c 00	 ret	 12			; 0000000cH
??$_Immortalize_impl@V_Iostream_error_category@std@@@std@@YGHPAX0PAPAX@Z ENDP ; std::_Immortalize_impl<std::_Iostream_error_category>
_TEXT	ENDS
; Function compile flags: /Ogtpy
; File c:\program files (x86)\microsoft visual studio\2017\community\vc\tools\msvc\14.15.26726\include\memory
; File c:\program files (x86)\microsoft visual studio\2017\community\vc\tools\msvc\14.15.26726\include\xutility
; File c:\program files (x86)\microsoft visual studio\2017\community\vc\tools\msvc\14.15.26726\include\memory
;	COMDAT ??$?0U?$default_delete@V_Facet_base@std@@@std@@$0A@@?$unique_ptr@V_Facet_base@std@@U?$default_delete@V_Facet_base@std@@@2@@std@@QAE@PAV_Facet_base@1@@Z
_TEXT	SEGMENT
__Ptr$ = 8						; size = 4
??$?0U?$default_delete@V_Facet_base@std@@@std@@$0A@@?$unique_ptr@V_Facet_base@std@@U?$default_delete@V_Facet_base@std@@@2@@std@@QAE@PAV_Facet_base@1@@Z PROC ; std::unique_ptr<std::_Facet_base,std::default_delete<std::_Facet_base> >::unique_ptr<std::_Facet_base,std::default_delete<std::_Facet_base> ><std::default_delete<std::_Facet_base>,0>, COMDAT
; _this$ = ecx
; File c:\program files (x86)\microsoft visual studio\2017\community\vc\tools\msvc\14.15.26726\include\xutility

; 277  : 		: _Ty1(), _Myval2(_STD forward<_Other2>(_Val2)...)

  00000	8b 44 24 04	 mov	 eax, DWORD PTR __Ptr$[esp-4]
  00004	89 01		 mov	 DWORD PTR [ecx], eax
; File c:\program files (x86)\microsoft visual studio\2017\community\vc\tools\msvc\14.15.26726\include\memory

; 2213 : 		}

  00006	8b c1		 mov	 eax, ecx
  00008	c2 04 00	 ret	 4
??$?0U?$default_delete@V_Facet_base@std@@@std@@$0A@@?$unique_ptr@V_Facet_base@std@@U?$default_delete@V_Facet_base@std@@@2@@std@@QAE@PAV_Facet_base@1@@Z ENDP ; std::unique_ptr<std::_Facet_base,std::default_delete<std::_Facet_base> >::unique_ptr<std::_Facet_base,std::default_delete<std::_Facet_base> ><std::default_delete<std::_Facet_base>,0>
_TEXT	ENDS
; Function compile flags: /Ogtpy
; File c:\program files (x86)\microsoft visual studio\2017\community\vc\tools\msvc\14.15.26726\include\memory
;	COMDAT ?release@?$unique_ptr@V_Facet_base@std@@U?$default_delete@V_Facet_base@std@@@2@@std@@QAEPAV_Facet_base@2@XZ
_TEXT	SEGMENT
?release@?$unique_ptr@V_Facet_base@std@@U?$default_delete@V_Facet_base@std@@@2@@std@@QAEPAV_Facet_base@2@XZ PROC ; std::unique_ptr<std::_Facet_base,std::default_delete<std::_Facet_base> >::release, COMDAT
; _this$ = ecx

; 2312 : 		return (this->_Myptr());

  00000	8b 01		 mov	 eax, DWORD PTR [ecx]

; 2322 : 		pointer _Ans = get();
; 2323 : 		this->_Myptr() = pointer();

  00002	c7 01 00 00 00
	00		 mov	 DWORD PTR [ecx], 0

; 2324 : 		return (_Ans);
; 2325 : 		}

  00008	c3		 ret	 0
?release@?$unique_ptr@V_Facet_base@std@@U?$default_delete@V_Facet_base@std@@@2@@std@@QAEPAV_Facet_base@2@XZ ENDP ; std::unique_ptr<std::_Facet_base,std::default_delete<std::_Facet_base> >::release
_TEXT	ENDS
; Function compile flags: /Ogtpy
; File c:\program files (x86)\microsoft visual studio\2017\community\vc\tools\msvc\14.15.26726\include\memory
;	COMDAT ?get@?$unique_ptr@V_Facet_base@std@@U?$default_delete@V_Facet_base@std@@@2@@std@@QBEPAV_Facet_base@2@XZ
_TEXT	SEGMENT
?get@?$unique_ptr@V_Facet_base@std@@U?$default_delete@V_Facet_base@std@@@2@@std@@QBEPAV_Facet_base@2@XZ PROC ; std::unique_ptr<std::_Facet_base,std::default_delete<std::_Facet_base> >::get, COMDAT
; _this$ = ecx

; 2312 : 		return (this->_Myptr());

  00000	8b 01		 mov	 eax, DWORD PTR [ecx]

; 2313 : 		}

  00002	c3		 ret	 0
?get@?$unique_ptr@V_Facet_base@std@@U?$default_delete@V_Facet_base@std@@@2@@std@@QBEPAV_Facet_base@2@XZ ENDP ; std::unique_ptr<std::_Facet_base,std::default_delete<std::_Facet_base> >::get
_TEXT	ENDS
; Function compile flags: /Ogtpy
; File c:\program files (x86)\microsoft visual studio\2017\community\vc\tools\msvc\14.15.26726\include\memory
;	COMDAT ??1?$unique_ptr@V_Facet_base@std@@U?$default_delete@V_Facet_base@std@@@2@@std@@QAE@XZ
_TEXT	SEGMENT
??1?$unique_ptr@V_Facet_base@std@@U?$default_delete@V_Facet_base@std@@@2@@std@@QAE@XZ PROC ; std::unique_ptr<std::_Facet_base,std::default_delete<std::_Facet_base> >::~unique_ptr<std::_Facet_base,std::default_delete<std::_Facet_base> >, COMDAT
; _this$ = ecx

; 2294 : 		if (get() != pointer())

  00000	8b 09		 mov	 ecx, DWORD PTR [ecx]
  00002	85 c9		 test	 ecx, ecx
  00004	74 06		 je	 SHORT $LN22@unique_ptr

; 2084 : 		delete _Ptr;

  00006	8b 01		 mov	 eax, DWORD PTR [ecx]
  00008	6a 01		 push	 1
  0000a	ff 10		 call	 DWORD PTR [eax]
$LN22@unique_ptr:

; 2295 : 			{
; 2296 : 			this->get_deleter()(get());
; 2297 : 			}
; 2298 : 		}

  0000c	c3		 ret	 0
??1?$unique_ptr@V_Facet_base@std@@U?$default_delete@V_Facet_base@std@@@2@@std@@QAE@XZ ENDP ; std::unique_ptr<std::_Facet_base,std::default_delete<std::_Facet_base> >::~unique_ptr<std::_Facet_base,std::default_delete<std::_Facet_base> >
_TEXT	ENDS
; Function compile flags: /Ogtpy
; File c:\program files (x86)\microsoft visual studio\2017\community\vc\tools\msvc\14.15.26726\include\xutility
;	COMDAT ?_Get_second@?$_Compressed_pair@U?$default_delete@V_Facet_base@std@@@std@@PAV_Facet_base@2@$00@std@@QBEABQAV_Facet_base@2@XZ
_TEXT	SEGMENT
?_Get_second@?$_Compressed_pair@U?$default_delete@V_Facet_base@std@@@std@@PAV_Facet_base@2@$00@std@@QBEABQAV_Facet_base@2@XZ PROC ; std::_Compressed_pair<std::default_delete<std::_Facet_base>,std::_Facet_base *,1>::_Get_second, COMDAT
; _this$ = ecx

; 307  : 		return (_Myval2);

  00000	8b c1		 mov	 eax, ecx

; 308  : 		}

  00002	c3		 ret	 0
?_Get_second@?$_Compressed_pair@U?$default_delete@V_Facet_base@std@@@std@@PAV_Facet_base@2@$00@std@@QBEABQAV_Facet_base@2@XZ ENDP ; std::_Compressed_pair<std::default_delete<std::_Facet_base>,std::_Facet_base *,1>::_Get_second
_TEXT	ENDS
; Function compile flags: /Ogtpy
; File c:\program files (x86)\microsoft visual studio\2017\community\vc\tools\msvc\14.15.26726\include\xutility
;	COMDAT ?_Get_second@?$_Compressed_pair@U?$default_delete@V_Facet_base@std@@@std@@PAV_Facet_base@2@$00@std@@QAEAAPAV_Facet_base@2@XZ
_TEXT	SEGMENT
?_Get_second@?$_Compressed_pair@U?$default_delete@V_Facet_base@std@@@std@@PAV_Facet_base@2@$00@std@@QAEAAPAV_Facet_base@2@XZ PROC ; std::_Compressed_pair<std::default_delete<std::_Facet_base>,std::_Facet_base *,1>::_Get_second, COMDAT
; _this$ = ecx

; 302  : 		return (_Myval2);

  00000	8b c1		 mov	 eax, ecx

; 303  : 		}

  00002	c3		 ret	 0
?_Get_second@?$_Compressed_pair@U?$default_delete@V_Facet_base@std@@@std@@PAV_Facet_base@2@$00@std@@QAEAAPAV_Facet_base@2@XZ ENDP ; std::_Compressed_pair<std::default_delete<std::_Facet_base>,std::_Facet_base *,1>::_Get_second
_TEXT	ENDS
; Function compile flags: /Ogtpy
; File c:\program files (x86)\microsoft visual studio\2017\community\vc\tools\msvc\14.15.26726\include\xutility
;	COMDAT ?_Get_first@?$_Compressed_pair@U?$default_delete@V_Facet_base@std@@@std@@PAV_Facet_base@2@$00@std@@QAEAAU?$default_delete@V_Facet_base@std@@@2@XZ
_TEXT	SEGMENT
?_Get_first@?$_Compressed_pair@U?$default_delete@V_Facet_base@std@@@std@@PAV_Facet_base@2@$00@std@@QAEAAU?$default_delete@V_Facet_base@std@@@2@XZ PROC ; std::_Compressed_pair<std::default_delete<std::_Facet_base>,std::_Facet_base *,1>::_Get_first, COMDAT
; _this$ = ecx

; 292  : 		return (*this);

  00000	8b c1		 mov	 eax, ecx

; 293  : 		}

  00002	c3		 ret	 0
?_Get_first@?$_Compressed_pair@U?$default_delete@V_Facet_base@std@@@std@@PAV_Facet_base@2@$00@std@@QAEAAU?$default_delete@V_Facet_base@std@@@2@XZ ENDP ; std::_Compressed_pair<std::default_delete<std::_Facet_base>,std::_Facet_base *,1>::_Get_first
_TEXT	ENDS
; Function compile flags: /Ogtpy
; File c:\program files (x86)\microsoft visual studio\2017\community\vc\tools\msvc\14.15.26726\include\memory
;	COMDAT ?_Myptr@?$_Unique_ptr_base@V_Facet_base@std@@U?$default_delete@V_Facet_base@std@@@2@@std@@QBEABQAV_Facet_base@2@XZ
_TEXT	SEGMENT
?_Myptr@?$_Unique_ptr_base@V_Facet_base@std@@U?$default_delete@V_Facet_base@std@@@2@@std@@QBEABQAV_Facet_base@2@XZ PROC ; std::_Unique_ptr_base<std::_Facet_base,std::default_delete<std::_Facet_base> >::_Myptr, COMDAT
; _this$ = ecx

; 2164 : 		return (_Mypair._Get_second());

  00000	8b c1		 mov	 eax, ecx

; 2165 : 		}

  00002	c3		 ret	 0
?_Myptr@?$_Unique_ptr_base@V_Facet_base@std@@U?$default_delete@V_Facet_base@std@@@2@@std@@QBEABQAV_Facet_base@2@XZ ENDP ; std::_Unique_ptr_base<std::_Facet_base,std::default_delete<std::_Facet_base> >::_Myptr
_TEXT	ENDS
; Function compile flags: /Ogtpy
; File c:\program files (x86)\microsoft visual studio\2017\community\vc\tools\msvc\14.15.26726\include\memory
;	COMDAT ?_Myptr@?$_Unique_ptr_base@V_Facet_base@std@@U?$default_delete@V_Facet_base@std@@@2@@std@@QAEAAPAV_Facet_base@2@XZ
_TEXT	SEGMENT
?_Myptr@?$_Unique_ptr_base@V_Facet_base@std@@U?$default_delete@V_Facet_base@std@@@2@@std@@QAEAAPAV_Facet_base@2@XZ PROC ; std::_Unique_ptr_base<std::_Facet_base,std::default_delete<std::_Facet_base> >::_Myptr, COMDAT
; _this$ = ecx

; 2159 : 		return (_Mypair._Get_second());

  00000	8b c1		 mov	 eax, ecx

; 2160 : 		}

  00002	c3		 ret	 0
?_Myptr@?$_Unique_ptr_base@V_Facet_base@std@@U?$default_delete@V_Facet_base@std@@@2@@std@@QAEAAPAV_Facet_base@2@XZ ENDP ; std::_Unique_ptr_base<std::_Facet_base,std::default_delete<std::_Facet_base> >::_Myptr
_TEXT	ENDS
; Function compile flags: /Ogtpy
; File c:\program files (x86)\microsoft visual studio\2017\community\vc\tools\msvc\14.15.26726\include\memory
;	COMDAT ?get_deleter@?$_Unique_ptr_base@V_Facet_base@std@@U?$default_delete@V_Facet_base@std@@@2@@std@@QAEAAU?$default_delete@V_Facet_base@std@@@2@XZ
_TEXT	SEGMENT
?get_deleter@?$_Unique_ptr_base@V_Facet_base@std@@U?$default_delete@V_Facet_base@std@@@2@@std@@QAEAAU?$default_delete@V_Facet_base@std@@@2@XZ PROC ; std::_Unique_ptr_base<std::_Facet_base,std::default_delete<std::_Facet_base> >::get_deleter, COMDAT
; _this$ = ecx

; 2149 : 		return (_Mypair._Get_first());

  00000	8b c1		 mov	 eax, ecx

; 2150 : 		}

  00002	c3		 ret	 0
?get_deleter@?$_Unique_ptr_base@V_Facet_base@std@@U?$default_delete@V_Facet_base@std@@@2@@std@@QAEAAU?$default_delete@V_Facet_base@std@@@2@XZ ENDP ; std::_Unique_ptr_base<std::_Facet_base,std::default_delete<std::_Facet_base> >::get_deleter
_TEXT	ENDS
; Function compile flags: /Ogtpy
; File c:\program files (x86)\microsoft visual studio\2017\community\vc\tools\msvc\14.15.26726\include\memory
;	COMDAT ??R?$default_delete@V_Facet_base@std@@@std@@QBEXPAV_Facet_base@1@@Z
_TEXT	SEGMENT
__Ptr$ = 8						; size = 4
??R?$default_delete@V_Facet_base@std@@@std@@QBEXPAV_Facet_base@1@@Z PROC ; std::default_delete<std::_Facet_base>::operator(), COMDAT
; _this$ = ecx

; 2082 : 		static_assert(0 < sizeof (_Ty),
; 2083 : 			"can't delete an incomplete type");
; 2084 : 		delete _Ptr;

  00000	8b 4c 24 04	 mov	 ecx, DWORD PTR __Ptr$[esp-4]
  00004	85 c9		 test	 ecx, ecx
  00006	74 0c		 je	 SHORT $LN3@operator
  00008	8b 01		 mov	 eax, DWORD PTR [ecx]
  0000a	c7 44 24 04 01
	00 00 00	 mov	 DWORD PTR __Ptr$[esp-4], 1
  00012	ff 20		 jmp	 DWORD PTR [eax]
$LN3@operator:

; 2085 : 		}

  00014	c2 04 00	 ret	 4
??R?$default_delete@V_Facet_base@std@@@std@@QBEXPAV_Facet_base@1@@Z ENDP ; std::default_delete<std::_Facet_base>::operator()
_TEXT	ENDS
; Function compile flags: /Ogtpy
; File c:\program files (x86)\microsoft visual studio\2017\community\vc\tools\msvc\14.15.26726\include\xutility
;	COMDAT ??$_Adl_verify_range1@PBDPBD@std@@YAXABQBD0U?$integral_constant@_N$0A@@0@@Z
_TEXT	SEGMENT
___formal$ = 8						; size = 4
___formal$ = 12						; size = 4
___formal$ = 16						; size = 1
??$_Adl_verify_range1@PBDPBD@std@@YAXABQBD0U?$integral_constant@_N$0A@@0@@Z PROC ; std::_Adl_verify_range1<char const *,char const *>, COMDAT

; 610  : 	}

  00000	c3		 ret	 0
??$_Adl_verify_range1@PBDPBD@std@@YAXABQBD0U?$integral_constant@_N$0A@@0@@Z ENDP ; std::_Adl_verify_range1<char const *,char const *>
_TEXT	ENDS
; Function compile flags: /Ogtpy
; File c:\program files (x86)\microsoft visual studio\2017\community\vc\tools\msvc\14.15.26726\include\xmemory0
;	COMDAT ??$_Pocma@V?$allocator@D@std@@@std@@YAXAAV?$allocator@D@0@0@Z
_TEXT	SEGMENT
__Left$ = 8						; size = 4
__Right$ = 12						; size = 4
??$_Pocma@V?$allocator@D@std@@@std@@YAXAAV?$allocator@D@0@0@Z PROC ; std::_Pocma<std::allocator<char> >, COMDAT

; 1100 : 	typename allocator_traits<_Alloc>::propagate_on_container_move_assignment _Tag;
; 1101 : 	_Pocma(_Left, _Right, _Tag);
; 1102 : 	}

  00000	c3		 ret	 0
??$_Pocma@V?$allocator@D@std@@@std@@YAXAAV?$allocator@D@0@0@Z ENDP ; std::_Pocma<std::allocator<char> >
_TEXT	ENDS
; Function compile flags: /Ogtpy
; File c:\program files (x86)\microsoft visual studio\2017\community\vc\tools\msvc\14.15.26726\include\xstddef
;	COMDAT ??$addressof@V?$basic_string@DU?$char_traits@D@std@@V?$allocator@D@2@@std@@@std@@YAPAV?$basic_string@DU?$char_traits@D@std@@V?$allocator@D@2@@0@AAV10@@Z
_TEXT	SEGMENT
__Val$ = 8						; size = 4
??$addressof@V?$basic_string@DU?$char_traits@D@std@@V?$allocator@D@2@@std@@@std@@YAPAV?$basic_string@DU?$char_traits@D@std@@V?$allocator@D@2@@0@AAV10@@Z PROC ; std::addressof<std::basic_string<char,std::char_traits<char>,std::allocator<char> > >, COMDAT

; 330  : 	return (__builtin_addressof(_Val));

  00000	8b 44 24 04	 mov	 eax, DWORD PTR __Val$[esp-4]

; 331  : 	}

  00004	c3		 ret	 0
??$addressof@V?$basic_string@DU?$char_traits@D@std@@V?$allocator@D@2@@std@@@std@@YAPAV?$basic_string@DU?$char_traits@D@std@@V?$allocator@D@2@@0@AAV10@@Z ENDP ; std::addressof<std::basic_string<char,std::char_traits<char>,std::allocator<char> > >
_TEXT	ENDS
; Function compile flags: /Ogtpy
; File c:\program files (x86)\microsoft visual studio\2017\community\vc\tools\msvc\14.15.26726\include\xstring
; File c:\program files (x86)\microsoft visual studio\2017\community\vc\tools\msvc\14.15.26726\include\utility
; File c:\program files (x86)\microsoft visual studio\2017\community\vc\tools\msvc\14.15.26726\include\xstring
; File c:\program files (x86)\microsoft visual studio\2017\community\vc\tools\msvc\14.15.26726\include\iosfwd
; File c:\program files (x86)\microsoft visual studio\2017\community\vc\tools\msvc\14.15.26726\include\xstring
; File c:\program files (x86)\microsoft visual studio\2017\community\vc\tools\msvc\14.15.26726\include\iosfwd
; File c:\program files (x86)\microsoft visual studio\2017\community\vc\tools\msvc\14.15.26726\include\xstring
; File c:\program files (x86)\microsoft visual studio\2017\community\vc\tools\msvc\14.15.26726\include\iosfwd
; File c:\program files (x86)\microsoft visual studio\2017\community\vc\tools\msvc\14.15.26726\include\xstring
; File c:\program files (x86)\microsoft visual studio\2017\community\vc\tools\msvc\14.15.26726\include\xmemory0
; File c:\program files (x86)\microsoft visual studio\2017\community\vc\tools\msvc\14.15.26726\include\xstring
; File c:\program files (x86)\microsoft visual studio\2017\community\vc\tools\msvc\14.15.26726\include\iosfwd
; File c:\program files (x86)\microsoft visual studio\2017\community\vc\tools\msvc\14.15.26726\include\xstring
; File c:\program files (x86)\microsoft visual studio\2017\community\vc\tools\msvc\14.15.26726\include\iosfwd
; File c:\program files (x86)\microsoft visual studio\2017\community\vc\tools\msvc\14.15.26726\include\xstring
; File c:\program files (x86)\microsoft visual studio\2017\community\vc\tools\msvc\14.15.26726\include\xmemory0
; File c:\program files (x86)\microsoft visual studio\2017\community\vc\tools\msvc\14.15.26726\include\xstring
;	COMDAT ??$_Reallocate_grow_by@V<lambda_6607a66f2a10a1261ff9db96cba1015b>@@IID@?$basic_string@DU?$char_traits@D@std@@V?$allocator@D@2@@std@@QAEAAV01@IV<lambda_6607a66f2a10a1261ff9db96cba1015b>@@IID@Z
_TEXT	SEGMENT
tv523 = -4						; size = 4
__Old_size$1$ = -4					; size = 4
__Old$1$ = 8						; size = 4
__Size_increase$ = 8					; size = 4
__Fn$ = 12						; size = 1
tv524 = 16						; size = 4
_<_Args_0>$ = 16					; size = 4
_<_Args_1>$ = 20					; size = 4
tv526 = 24						; size = 4
_<_Args_2>$ = 24					; size = 1
??$_Reallocate_grow_by@V<lambda_6607a66f2a10a1261ff9db96cba1015b>@@IID@?$basic_string@DU?$char_traits@D@std@@V?$allocator@D@2@@std@@QAEAAV01@IV<lambda_6607a66f2a10a1261ff9db96cba1015b>@@IID@Z PROC ; std::basic_string<char,std::char_traits<char>,std::allocator<char> >::_Reallocate_grow_by<<lambda_6607a66f2a10a1261ff9db96cba1015b>,unsigned int,unsigned int,char>, COMDAT
; _this$ = ecx

; 3919 : 		{	// reallocate to increase size by _Size_increase elements, new buffer prepared by

  00000	51		 push	 ecx
  00001	56		 push	 esi
  00002	8b f1		 mov	 esi, ecx

; 3920 : 			// _Fn(_New_ptr, _Old_ptr, _Old_size, _Args...)
; 3921 : 		auto& _My_data = this->_Get_data();
; 3922 : 		const size_type _Old_size = _My_data._Mysize;
; 3923 : 		if (max_size() - _Old_size < _Size_increase)

  00004	b9 ff ff ff 7f	 mov	 ecx, 2147483647		; 7fffffffH
  00009	8b c1		 mov	 eax, ecx
  0000b	57		 push	 edi
  0000c	8b 7c 24 10	 mov	 edi, DWORD PTR __Size_increase$[esp+8]
  00010	8b 56 10	 mov	 edx, DWORD PTR [esi+16]
  00013	2b c2		 sub	 eax, edx
  00015	89 54 24 08	 mov	 DWORD PTR __Old_size$1$[esp+12], edx
  00019	3b c7		 cmp	 eax, edi
  0001b	0f 82 09 01 00
	00		 jb	 $LN105@Reallocate

; 3926 : 			}
; 3927 : 
; 3928 : 		const size_type _New_size = _Old_size + _Size_increase;
; 3929 : 		const size_type _Old_capacity = _My_data._Myres;

  00021	8b 46 14	 mov	 eax, DWORD PTR [esi+20]
  00024	55		 push	 ebp
  00025	8d 2c 3a	 lea	 ebp, DWORD PTR [edx+edi]
  00028	89 44 24 14	 mov	 DWORD PTR __Old$1$[esp+12], eax

; 3869 : 		const size_type _Masked = _Requested | this->_ALLOC_MASK;

  0002c	8b fd		 mov	 edi, ebp
  0002e	83 cf 0f	 or	 edi, 15			; 0000000fH
  00031	3b f9		 cmp	 edi, ecx

; 3870 : 		if (_Masked > _Max)

  00033	76 04		 jbe	 SHORT $LN25@Reallocate

; 3871 : 			{	// the mask overflows, settle for max_size()
; 3872 : 			return (_Max);

  00035	8b f9		 mov	 edi, ecx
  00037	eb 18		 jmp	 SHORT $LN24@Reallocate
$LN25@Reallocate:

; 3873 : 			}
; 3874 : 
; 3875 : 		const size_type _Old = _My_data._Myres;
; 3876 : 		if (_Old > _Max - _Old / 2)

  00039	8b d0		 mov	 edx, eax
  0003b	d1 ea		 shr	 edx, 1
  0003d	2b ca		 sub	 ecx, edx
  0003f	3b c1		 cmp	 eax, ecx
  00041	76 07		 jbe	 SHORT $LN26@Reallocate

; 3877 : 			{	// similarly, geometric overflows
; 3878 : 			return (_Max);

  00043	bf ff ff ff 7f	 mov	 edi, 2147483647		; 7fffffffH
  00048	eb 07		 jmp	 SHORT $LN24@Reallocate
$LN26@Reallocate:

; 3879 : 			}
; 3880 : 
; 3881 : 		return (_Max_value(_Masked, _Old + _Old / 2));

  0004a	03 c2		 add	 eax, edx
; File c:\program files (x86)\microsoft visual studio\2017\community\vc\tools\msvc\14.15.26726\include\utility

; 33   : 	return (_Left < _Right ? _Right : _Left);

  0004c	3b f8		 cmp	 edi, eax
  0004e	0f 42 f8	 cmovb	 edi, eax
$LN24@Reallocate:
  00051	53		 push	 ebx
; File c:\program files (x86)\microsoft visual studio\2017\community\vc\tools\msvc\14.15.26726\include\xstring

; 3932 : 		const pointer _New_ptr = _Al.allocate(_New_capacity + 1); // throws

  00052	8d 47 01	 lea	 eax, DWORD PTR [edi+1]
  00055	8b ce		 mov	 ecx, esi
  00057	50		 push	 eax
  00058	e8 00 00 00 00	 call	 ?allocate@?$allocator@D@std@@QAEPADI@Z ; std::allocator<char>::allocate
  0005d	8b d8		 mov	 ebx, eax

; 3933 : 		_My_data._Orphan_all();
; 3934 : 		_My_data._Mysize = _New_size;

  0005f	89 6e 10	 mov	 DWORD PTR [esi+16], ebp

; 3935 : 		_My_data._Myres = _New_capacity;
; 3936 : 		_Elem * const _Raw_new = _Unfancy(_New_ptr);

  00062	0f be 44 24 28	 movsx	 eax, BYTE PTR _<_Args_2>$[esp+16]
  00067	8b 6c 24 20	 mov	 ebp, DWORD PTR _<_Args_0>$[esp+16]
  0006b	89 44 24 28	 mov	 DWORD PTR tv526[esp+16], eax
  0006f	8b 44 24 10	 mov	 eax, DWORD PTR __Old_size$1$[esp+20]
  00073	2b c5		 sub	 eax, ebp
  00075	89 7e 14	 mov	 DWORD PTR [esi+20], edi
  00078	40		 inc	 eax
  00079	8d 3c 2b	 lea	 edi, DWORD PTR [ebx+ebp]
  0007c	89 44 24 20	 mov	 DWORD PTR tv524[esp+16], eax
  00080	8b 44 24 24	 mov	 eax, DWORD PTR _<_Args_1>$[esp+16]
  00084	03 c7		 add	 eax, edi

; 3937 : 		if (this->_BUF_SIZE <= _Old_capacity)

  00086	83 7c 24 18 10	 cmp	 DWORD PTR __Old$1$[esp+16], 16 ; 00000010H
  0008b	89 44 24 10	 mov	 DWORD PTR tv523[esp+20], eax
  0008f	55		 push	 ebp
  00090	72 63		 jb	 SHORT $LN3@Reallocate

; 3938 : 			{
; 3939 : 			const pointer _Old_ptr = _My_data._Bx._Ptr;

  00092	8b 3e		 mov	 edi, DWORD PTR [esi]
; File c:\program files (x86)\microsoft visual studio\2017\community\vc\tools\msvc\14.15.26726\include\iosfwd

; 471  : 		return (static_cast<char *>(_CSTD memcpy(_First1, _First2, _Count)));

  00094	57		 push	 edi
  00095	53		 push	 ebx
  00096	e8 00 00 00 00	 call	 _memcpy

; 501  : 		return (static_cast<char *>(_CSTD memset(_First, _Ch, _Count)));

  0009b	ff 74 24 30	 push	 DWORD PTR _<_Args_1>$[esp+28]
  0009f	8d 04 2b	 lea	 eax, DWORD PTR [ebx+ebp]
  000a2	ff 74 24 38	 push	 DWORD PTR tv526[esp+32]
  000a6	50		 push	 eax
  000a7	e8 00 00 00 00	 call	 _memset

; 471  : 		return (static_cast<char *>(_CSTD memcpy(_First1, _First2, _Count)));

  000ac	ff 74 24 38	 push	 DWORD PTR tv524[esp+40]
; File c:\program files (x86)\microsoft visual studio\2017\community\vc\tools\msvc\14.15.26726\include\xstring

; 2805 : 			_Traits::copy(_New_ptr + _Off + _Count, _Old_ptr + _Off, _Old_size - _Off + 1);

  000b0	8d 04 2f	 lea	 eax, DWORD PTR [edi+ebp]
; File c:\program files (x86)\microsoft visual studio\2017\community\vc\tools\msvc\14.15.26726\include\iosfwd

; 471  : 		return (static_cast<char *>(_CSTD memcpy(_First1, _First2, _Count)));

  000b3	50		 push	 eax
  000b4	ff 74 24 30	 push	 DWORD PTR tv523[esp+52]
  000b8	e8 00 00 00 00	 call	 _memcpy
; File c:\program files (x86)\microsoft visual studio\2017\community\vc\tools\msvc\14.15.26726\include\xstring

; 3941 : 			_Al.deallocate(_Old_ptr, _Old_capacity + 1);

  000bd	8b 4c 24 3c	 mov	 ecx, DWORD PTR __Old$1$[esp+52]
; File c:\program files (x86)\microsoft visual studio\2017\community\vc\tools\msvc\14.15.26726\include\iosfwd

; 471  : 		return (static_cast<char *>(_CSTD memcpy(_First1, _First2, _Count)));

  000c1	83 c4 24	 add	 esp, 36			; 00000024H
; File c:\program files (x86)\microsoft visual studio\2017\community\vc\tools\msvc\14.15.26726\include\xstring

; 3941 : 			_Al.deallocate(_Old_ptr, _Old_capacity + 1);

  000c4	41		 inc	 ecx
; File c:\program files (x86)\microsoft visual studio\2017\community\vc\tools\msvc\14.15.26726\include\xmemory0

; 201  : 	if (_Bytes >= _Big_allocation_threshold)

  000c5	81 f9 00 10 00
	00		 cmp	 ecx, 4096		; 00001000H
  000cb	72 12		 jb	 SHORT $LN80@Reallocate

; 118  : 	const uintptr_t _Ptr_container = _Ptr_user[-1];

  000cd	8b 57 fc	 mov	 edx, DWORD PTR [edi-4]
  000d0	83 c1 23	 add	 ecx, 35			; 00000023H

; 119  : 
; 120  : 	// If the following asserts, it likely means that we are performing
; 121  : 	// an aligned delete on memory coming from an unaligned allocation.
; 122  : 	_STL_ASSERT(_Ptr_user[-2] == _Big_allocation_sentinel, "invalid argument");
; 123  : 
; 124  : 	// Extra paranoia on aligned allocation/deallocation; ensure _Ptr_container is
; 125  : 	// in range [_Min_back_shift, _Non_user_size]
; 126  :   #ifdef _DEBUG
; 127  : 	constexpr uintptr_t _Min_back_shift = 2 * sizeof(void *);
; 128  :   #else /* ^^^ _DEBUG ^^^ // vvv !_DEBUG vvv */
; 129  : 	constexpr uintptr_t _Min_back_shift = sizeof(void *);
; 130  :   #endif /* _DEBUG */
; 131  : 	const uintptr_t _Back_shift = reinterpret_cast<uintptr_t>(_Ptr) - _Ptr_container;

  000d3	2b fa		 sub	 edi, edx

; 132  : 	_STL_VERIFY(_Back_shift >= _Min_back_shift && _Back_shift <= _Non_user_size, "invalid argument");

  000d5	8d 47 fc	 lea	 eax, DWORD PTR [edi-4]
  000d8	83 f8 1f	 cmp	 eax, 31			; 0000001fH
  000db	77 52		 ja	 SHORT $LN77@Reallocate

; 133  : 	_Ptr = reinterpret_cast<void *>(_Ptr_container);

  000dd	8b fa		 mov	 edi, edx
$LN80@Reallocate:

; 207  : 	::operator delete(_Ptr, _Bytes);

  000df	51		 push	 ecx
  000e0	57		 push	 edi
  000e1	e8 00 00 00 00	 call	 ??3@YAXPAXI@Z		; operator delete
  000e6	83 c4 08	 add	 esp, 8
; File c:\program files (x86)\microsoft visual studio\2017\community\vc\tools\msvc\14.15.26726\include\xstring

; 3950 : 		return (*this);

  000e9	89 1e		 mov	 DWORD PTR [esi], ebx
  000eb	8b c6		 mov	 eax, esi
  000ed	5b		 pop	 ebx
  000ee	5d		 pop	 ebp
  000ef	5f		 pop	 edi

; 3951 : 		}

  000f0	5e		 pop	 esi
  000f1	59		 pop	 ecx
  000f2	c2 14 00	 ret	 20			; 00000014H
$LN3@Reallocate:
; File c:\program files (x86)\microsoft visual studio\2017\community\vc\tools\msvc\14.15.26726\include\iosfwd

; 471  : 		return (static_cast<char *>(_CSTD memcpy(_First1, _First2, _Count)));

  000f5	56		 push	 esi
  000f6	53		 push	 ebx
  000f7	e8 00 00 00 00	 call	 _memcpy

; 501  : 		return (static_cast<char *>(_CSTD memset(_First, _Ch, _Count)));

  000fc	ff 74 24 30	 push	 DWORD PTR _<_Args_1>$[esp+28]
  00100	ff 74 24 38	 push	 DWORD PTR tv526[esp+32]
  00104	57		 push	 edi
  00105	e8 00 00 00 00	 call	 _memset

; 471  : 		return (static_cast<char *>(_CSTD memcpy(_First1, _First2, _Count)));

  0010a	ff 74 24 38	 push	 DWORD PTR tv524[esp+40]
; File c:\program files (x86)\microsoft visual studio\2017\community\vc\tools\msvc\14.15.26726\include\xstring

; 2805 : 			_Traits::copy(_New_ptr + _Off + _Count, _Old_ptr + _Off, _Old_size - _Off + 1);

  0010e	8d 04 2e	 lea	 eax, DWORD PTR [esi+ebp]
; File c:\program files (x86)\microsoft visual studio\2017\community\vc\tools\msvc\14.15.26726\include\iosfwd

; 471  : 		return (static_cast<char *>(_CSTD memcpy(_First1, _First2, _Count)));

  00111	50		 push	 eax
  00112	ff 74 24 30	 push	 DWORD PTR tv523[esp+52]
  00116	e8 00 00 00 00	 call	 _memcpy
  0011b	83 c4 24	 add	 esp, 36			; 00000024H
; File c:\program files (x86)\microsoft visual studio\2017\community\vc\tools\msvc\14.15.26726\include\xstring

; 3950 : 		return (*this);

  0011e	89 1e		 mov	 DWORD PTR [esi], ebx
  00120	8b c6		 mov	 eax, esi
  00122	5b		 pop	 ebx
  00123	5d		 pop	 ebp
  00124	5f		 pop	 edi

; 3951 : 		}

  00125	5e		 pop	 esi
  00126	59		 pop	 ecx
  00127	c2 14 00	 ret	 20			; 00000014H
$LN105@Reallocate:

; 3924 : 			{
; 3925 : 			_Xlen();	// result too long

  0012a	e8 00 00 00 00	 call	 ?_Xlen@?$basic_string@DU?$char_traits@D@std@@V?$allocator@D@2@@std@@SAXXZ ; std::basic_string<char,std::char_traits<char>,std::allocator<char> >::_Xlen
$LN77@Reallocate:
; File c:\program files (x86)\microsoft visual studio\2017\community\vc\tools\msvc\14.15.26726\include\xmemory0

; 132  : 	_STL_VERIFY(_Back_shift >= _Min_back_shift && _Back_shift <= _Non_user_size, "invalid argument");

  0012f	e8 00 00 00 00	 call	 __invalid_parameter_noinfo_noreturn
$LN106@Reallocate:
$LN102@Reallocate:
  00134	cc		 int	 3
??$_Reallocate_grow_by@V<lambda_6607a66f2a10a1261ff9db96cba1015b>@@IID@?$basic_string@DU?$char_traits@D@std@@V?$allocator@D@2@@std@@QAEAAV01@IV<lambda_6607a66f2a10a1261ff9db96cba1015b>@@IID@Z ENDP ; std::basic_string<char,std::char_traits<char>,std::allocator<char> >::_Reallocate_grow_by<<lambda_6607a66f2a10a1261ff9db96cba1015b>,unsigned int,unsigned int,char>
_TEXT	ENDS
; Function compile flags: /Ogtpy
; File c:\program files (x86)\microsoft visual studio\2017\community\vc\tools\msvc\14.15.26726\include\xstring
; File c:\program files (x86)\microsoft visual studio\2017\community\vc\tools\msvc\14.15.26726\include\iosfwd
; File c:\program files (x86)\microsoft visual studio\2017\community\vc\tools\msvc\14.15.26726\include\xstring
; File c:\program files (x86)\microsoft visual studio\2017\community\vc\tools\msvc\14.15.26726\include\iosfwd
; File c:\program files (x86)\microsoft visual studio\2017\community\vc\tools\msvc\14.15.26726\include\xstring
; File c:\program files (x86)\microsoft visual studio\2017\community\vc\tools\msvc\14.15.26726\include\iosfwd
; File c:\program files (x86)\microsoft visual studio\2017\community\vc\tools\msvc\14.15.26726\include\xstring
; File c:\program files (x86)\microsoft visual studio\2017\community\vc\tools\msvc\14.15.26726\include\iosfwd
; File c:\program files (x86)\microsoft visual studio\2017\community\vc\tools\msvc\14.15.26726\include\xstring
; File c:\program files (x86)\microsoft visual studio\2017\community\vc\tools\msvc\14.15.26726\include\iosfwd
; File c:\program files (x86)\microsoft visual studio\2017\community\vc\tools\msvc\14.15.26726\include\xstring
; File c:\program files (x86)\microsoft visual studio\2017\community\vc\tools\msvc\14.15.26726\include\iosfwd
; File c:\program files (x86)\microsoft visual studio\2017\community\vc\tools\msvc\14.15.26726\include\xstring
; File c:\program files (x86)\microsoft visual studio\2017\community\vc\tools\msvc\14.15.26726\include\iosfwd
; File c:\program files (x86)\microsoft visual studio\2017\community\vc\tools\msvc\14.15.26726\include\xstring
; File c:\program files (x86)\microsoft visual studio\2017\community\vc\tools\msvc\14.15.26726\include\iosfwd
; File c:\program files (x86)\microsoft visual studio\2017\community\vc\tools\msvc\14.15.26726\include\xstring
;	COMDAT ??R<lambda_6607a66f2a10a1261ff9db96cba1015b>@@QBEXQADQBDIIID@Z
_TEXT	SEGMENT
__New_ptr$ = 8						; size = 4
__Old_ptr$ = 12						; size = 4
__Old_size$ = 16					; size = 4
__Off$ = 20						; size = 4
__Count$ = 24						; size = 4
__Ch$ = 28						; size = 1
??R<lambda_6607a66f2a10a1261ff9db96cba1015b>@@QBEXQADQBDIIID@Z PROC ; <lambda_6607a66f2a10a1261ff9db96cba1015b>::operator(), COMDAT
; _this$ = ecx

; 2802 : 				const size_type _Off, const size_type _Count, const _Elem _Ch) {

  00000	53		 push	 ebx
; File c:\program files (x86)\microsoft visual studio\2017\community\vc\tools\msvc\14.15.26726\include\iosfwd

; 471  : 		return (static_cast<char *>(_CSTD memcpy(_First1, _First2, _Count)));

  00001	8b 5c 24 0c	 mov	 ebx, DWORD PTR __Old_ptr$[esp]
; File c:\program files (x86)\microsoft visual studio\2017\community\vc\tools\msvc\14.15.26726\include\xstring

; 2802 : 				const size_type _Off, const size_type _Count, const _Elem _Ch) {

  00005	55		 push	 ebp
; File c:\program files (x86)\microsoft visual studio\2017\community\vc\tools\msvc\14.15.26726\include\iosfwd

; 471  : 		return (static_cast<char *>(_CSTD memcpy(_First1, _First2, _Count)));

  00006	8b 6c 24 18	 mov	 ebp, DWORD PTR __Off$[esp+4]
; File c:\program files (x86)\microsoft visual studio\2017\community\vc\tools\msvc\14.15.26726\include\xstring

; 2802 : 				const size_type _Off, const size_type _Count, const _Elem _Ch) {

  0000a	56		 push	 esi
; File c:\program files (x86)\microsoft visual studio\2017\community\vc\tools\msvc\14.15.26726\include\iosfwd

; 471  : 		return (static_cast<char *>(_CSTD memcpy(_First1, _First2, _Count)));

  0000b	8b 74 24 10	 mov	 esi, DWORD PTR __New_ptr$[esp+8]
; File c:\program files (x86)\microsoft visual studio\2017\community\vc\tools\msvc\14.15.26726\include\xstring

; 2802 : 				const size_type _Off, const size_type _Count, const _Elem _Ch) {

  0000f	57		 push	 edi
; File c:\program files (x86)\microsoft visual studio\2017\community\vc\tools\msvc\14.15.26726\include\iosfwd

; 471  : 		return (static_cast<char *>(_CSTD memcpy(_First1, _First2, _Count)));

  00010	55		 push	 ebp
  00011	53		 push	 ebx
  00012	56		 push	 esi
  00013	e8 00 00 00 00	 call	 _memcpy

; 501  : 		return (static_cast<char *>(_CSTD memset(_First, _Ch, _Count)));

  00018	0f be 44 24 34	 movsx	 eax, BYTE PTR __Ch$[esp+24]
; File c:\program files (x86)\microsoft visual studio\2017\community\vc\tools\msvc\14.15.26726\include\xstring

; 2804 : 			_Traits::assign(_New_ptr + _Off, _Count, _Ch);

  0001d	8d 3c 2e	 lea	 edi, DWORD PTR [esi+ebp]
; File c:\program files (x86)\microsoft visual studio\2017\community\vc\tools\msvc\14.15.26726\include\iosfwd

; 501  : 		return (static_cast<char *>(_CSTD memset(_First, _Ch, _Count)));

  00020	8b 74 24 30	 mov	 esi, DWORD PTR __Count$[esp+24]
  00024	56		 push	 esi
  00025	50		 push	 eax
  00026	57		 push	 edi
  00027	e8 00 00 00 00	 call	 _memset
; File c:\program files (x86)\microsoft visual studio\2017\community\vc\tools\msvc\14.15.26726\include\xstring

; 2805 : 			_Traits::copy(_New_ptr + _Off + _Count, _Old_ptr + _Off, _Old_size - _Off + 1);

  0002c	8b 44 24 34	 mov	 eax, DWORD PTR __Old_size$[esp+36]
  00030	2b c5		 sub	 eax, ebp
  00032	40		 inc	 eax
; File c:\program files (x86)\microsoft visual studio\2017\community\vc\tools\msvc\14.15.26726\include\iosfwd

; 471  : 		return (static_cast<char *>(_CSTD memcpy(_First1, _First2, _Count)));

  00033	50		 push	 eax
; File c:\program files (x86)\microsoft visual studio\2017\community\vc\tools\msvc\14.15.26726\include\xstring

; 2805 : 			_Traits::copy(_New_ptr + _Off + _Count, _Old_ptr + _Off, _Old_size - _Off + 1);

  00034	8d 04 2b	 lea	 eax, DWORD PTR [ebx+ebp]
; File c:\program files (x86)\microsoft visual studio\2017\community\vc\tools\msvc\14.15.26726\include\iosfwd

; 471  : 		return (static_cast<char *>(_CSTD memcpy(_First1, _First2, _Count)));

  00037	50		 push	 eax
; File c:\program files (x86)\microsoft visual studio\2017\community\vc\tools\msvc\14.15.26726\include\xstring

; 2805 : 			_Traits::copy(_New_ptr + _Off + _Count, _Old_ptr + _Off, _Old_size - _Off + 1);

  00038	8d 04 37	 lea	 eax, DWORD PTR [edi+esi]
; File c:\program files (x86)\microsoft visual studio\2017\community\vc\tools\msvc\14.15.26726\include\iosfwd

; 471  : 		return (static_cast<char *>(_CSTD memcpy(_First1, _First2, _Count)));

  0003b	50		 push	 eax
  0003c	e8 00 00 00 00	 call	 _memcpy
  00041	83 c4 24	 add	 esp, 36			; 00000024H
  00044	5f		 pop	 edi
  00045	5e		 pop	 esi
  00046	5d		 pop	 ebp
  00047	5b		 pop	 ebx
; File c:\program files (x86)\microsoft visual studio\2017\community\vc\tools\msvc\14.15.26726\include\xstring

; 2806 : 			}, _Off, _Count, _Ch));

  00048	c2 18 00	 ret	 24			; 00000018H
??R<lambda_6607a66f2a10a1261ff9db96cba1015b>@@QBEXQADQBDIIID@Z ENDP ; <lambda_6607a66f2a10a1261ff9db96cba1015b>::operator()
_TEXT	ENDS
; Function compile flags: /Ogtpy
; File c:\program files (x86)\microsoft visual studio\2017\community\vc\tools\msvc\14.15.26726\include\xstring
; File c:\program files (x86)\microsoft visual studio\2017\community\vc\tools\msvc\14.15.26726\include\utility
; File c:\program files (x86)\microsoft visual studio\2017\community\vc\tools\msvc\14.15.26726\include\xstring
; File c:\program files (x86)\microsoft visual studio\2017\community\vc\tools\msvc\14.15.26726\include\iosfwd
; File c:\program files (x86)\microsoft visual studio\2017\community\vc\tools\msvc\14.15.26726\include\xstring
; File c:\program files (x86)\microsoft visual studio\2017\community\vc\tools\msvc\14.15.26726\include\iosfwd
; File c:\program files (x86)\microsoft visual studio\2017\community\vc\tools\msvc\14.15.26726\include\xstring
; File c:\program files (x86)\microsoft visual studio\2017\community\vc\tools\msvc\14.15.26726\include\iosfwd
; File c:\program files (x86)\microsoft visual studio\2017\community\vc\tools\msvc\14.15.26726\include\xstring
; File c:\program files (x86)\microsoft visual studio\2017\community\vc\tools\msvc\14.15.26726\include\xmemory0
; File c:\program files (x86)\microsoft visual studio\2017\community\vc\tools\msvc\14.15.26726\include\xstring
; File c:\program files (x86)\microsoft visual studio\2017\community\vc\tools\msvc\14.15.26726\include\xmemory0
; File c:\program files (x86)\microsoft visual studio\2017\community\vc\tools\msvc\14.15.26726\include\xstring
; File c:\program files (x86)\microsoft visual studio\2017\community\vc\tools\msvc\14.15.26726\include\xmemory0
; File c:\program files (x86)\microsoft visual studio\2017\community\vc\tools\msvc\14.15.26726\include\xstring
;	COMDAT ??$_Reallocate_for@V<lambda_9366063389c5f42a00a5088cf24e69de>@@PBD@?$basic_string@DU?$char_traits@D@std@@V?$allocator@D@2@@std@@QAEAAV01@IV<lambda_9366063389c5f42a00a5088cf24e69de>@@PBD@Z
_TEXT	SEGMENT
__New_ptr$1$ = 8					; size = 4
__New_size$ = 8						; size = 4
__Fn$ = 12						; size = 1
_<_Args_0>$ = 16					; size = 4
??$_Reallocate_for@V<lambda_9366063389c5f42a00a5088cf24e69de>@@PBD@?$basic_string@DU?$char_traits@D@std@@V?$allocator@D@2@@std@@QAEAAV01@IV<lambda_9366063389c5f42a00a5088cf24e69de>@@PBD@Z PROC ; std::basic_string<char,std::char_traits<char>,std::allocator<char> >::_Reallocate_for<<lambda_9366063389c5f42a00a5088cf24e69de>,char const *>, COMDAT
; _this$ = ecx

; 3887 : 		{	// reallocate to store exactly _New_size elements, new buffer prepared by

  00000	53		 push	 ebx

; 3888 : 			// _Fn(_New_ptr, _New_size, _Args...)
; 3889 : 		if (_New_size > max_size())

  00001	8b 5c 24 08	 mov	 ebx, DWORD PTR __New_size$[esp]
  00005	57		 push	 edi
  00006	8b f9		 mov	 edi, ecx
  00008	81 fb ff ff ff
	7f		 cmp	 ebx, 2147483647		; 7fffffffH
  0000e	0f 87 9e 00 00
	00		 ja	 $LN92@Reallocate

; 3892 : 			}
; 3893 : 
; 3894 : 		auto& _My_data = this->_Get_data();
; 3895 : 		const size_type _Old_capacity = _My_data._Myres;

  00014	55		 push	 ebp
  00015	8b 6f 14	 mov	 ebp, DWORD PTR [edi+20]
  00018	56		 push	 esi

; 3869 : 		const size_type _Masked = _Requested | this->_ALLOC_MASK;

  00019	8b f3		 mov	 esi, ebx
  0001b	83 ce 0f	 or	 esi, 15			; 0000000fH
  0001e	81 fe ff ff ff
	7f		 cmp	 esi, 2147483647		; 7fffffffH

; 3870 : 		if (_Masked > _Max)

  00024	76 07		 jbe	 SHORT $LN25@Reallocate

; 3871 : 			{	// the mask overflows, settle for max_size()
; 3872 : 			return (_Max);

  00026	be ff ff ff 7f	 mov	 esi, 2147483647		; 7fffffffH
  0002b	eb 1e		 jmp	 SHORT $LN24@Reallocate
$LN25@Reallocate:

; 3873 : 			}
; 3874 : 
; 3875 : 		const size_type _Old = _My_data._Myres;
; 3876 : 		if (_Old > _Max - _Old / 2)

  0002d	8b cd		 mov	 ecx, ebp
  0002f	b8 ff ff ff 7f	 mov	 eax, 2147483647		; 7fffffffH
  00034	d1 e9		 shr	 ecx, 1
  00036	2b c1		 sub	 eax, ecx
  00038	3b e8		 cmp	 ebp, eax
  0003a	76 07		 jbe	 SHORT $LN26@Reallocate

; 3877 : 			{	// similarly, geometric overflows
; 3878 : 			return (_Max);

  0003c	be ff ff ff 7f	 mov	 esi, 2147483647		; 7fffffffH
  00041	eb 08		 jmp	 SHORT $LN24@Reallocate
$LN26@Reallocate:

; 3879 : 			}
; 3880 : 
; 3881 : 		return (_Max_value(_Masked, _Old + _Old / 2));

  00043	8d 04 29	 lea	 eax, DWORD PTR [ecx+ebp]
; File c:\program files (x86)\microsoft visual studio\2017\community\vc\tools\msvc\14.15.26726\include\utility

; 33   : 	return (_Left < _Right ? _Right : _Left);

  00046	3b f0		 cmp	 esi, eax
  00048	0f 42 f0	 cmovb	 esi, eax
$LN24@Reallocate:
; File c:\program files (x86)\microsoft visual studio\2017\community\vc\tools\msvc\14.15.26726\include\xstring

; 3898 : 		const pointer _New_ptr = _Al.allocate(_New_capacity + 1); // throws

  0004b	8d 46 01	 lea	 eax, DWORD PTR [esi+1]
  0004e	8b cf		 mov	 ecx, edi
  00050	50		 push	 eax
  00051	e8 00 00 00 00	 call	 ?allocate@?$allocator@D@std@@QAEPADI@Z ; std::allocator<char>::allocate
; File c:\program files (x86)\microsoft visual studio\2017\community\vc\tools\msvc\14.15.26726\include\iosfwd

; 471  : 		return (static_cast<char *>(_CSTD memcpy(_First1, _First2, _Count)));

  00056	53		 push	 ebx
  00057	ff 74 24 20	 push	 DWORD PTR _<_Args_0>$[esp+16]
; File c:\program files (x86)\microsoft visual studio\2017\community\vc\tools\msvc\14.15.26726\include\xstring

; 3901 : 		_My_data._Myres = _New_capacity;

  0005b	89 77 14	 mov	 DWORD PTR [edi+20], esi
; File c:\program files (x86)\microsoft visual studio\2017\community\vc\tools\msvc\14.15.26726\include\iosfwd

; 471  : 		return (static_cast<char *>(_CSTD memcpy(_First1, _First2, _Count)));

  0005e	8b f0		 mov	 esi, eax
  00060	56		 push	 esi
; File c:\program files (x86)\microsoft visual studio\2017\community\vc\tools\msvc\14.15.26726\include\xstring

; 3898 : 		const pointer _New_ptr = _Al.allocate(_New_capacity + 1); // throws

  00061	89 44 24 20	 mov	 DWORD PTR __New_ptr$1$[esp+24], eax

; 3899 : 		_My_data._Orphan_all();
; 3900 : 		_My_data._Mysize = _New_size;

  00065	89 5f 10	 mov	 DWORD PTR [edi+16], ebx
; File c:\program files (x86)\microsoft visual studio\2017\community\vc\tools\msvc\14.15.26726\include\iosfwd

; 471  : 		return (static_cast<char *>(_CSTD memcpy(_First1, _First2, _Count)));

  00068	e8 00 00 00 00	 call	 _memcpy
  0006d	83 c4 0c	 add	 esp, 12			; 0000000cH

; 506  : 		_Left = _Right;

  00070	c6 04 1e 00	 mov	 BYTE PTR [esi+ebx], 0
; File c:\program files (x86)\microsoft visual studio\2017\community\vc\tools\msvc\14.15.26726\include\xstring

; 3903 : 		if (this->_BUF_SIZE <= _Old_capacity)

  00074	83 fd 10	 cmp	 ebp, 16			; 00000010H
  00077	72 29		 jb	 SHORT $LN3@Reallocate
; File c:\program files (x86)\microsoft visual studio\2017\community\vc\tools\msvc\14.15.26726\include\xmemory0

; 992  : 		_Deallocate<_New_alignof<_Ty>>(_Ptr, sizeof(_Ty) * _Count);

  00079	8b 07		 mov	 eax, DWORD PTR [edi]
; File c:\program files (x86)\microsoft visual studio\2017\community\vc\tools\msvc\14.15.26726\include\xstring

; 3905 : 			_Al.deallocate(_My_data._Bx._Ptr, _Old_capacity + 1);

  0007b	8d 4d 01	 lea	 ecx, DWORD PTR [ebp+1]
; File c:\program files (x86)\microsoft visual studio\2017\community\vc\tools\msvc\14.15.26726\include\xmemory0

; 201  : 	if (_Bytes >= _Big_allocation_threshold)

  0007e	81 f9 00 10 00
	00		 cmp	 ecx, 4096		; 00001000H
  00084	72 12		 jb	 SHORT $LN76@Reallocate

; 118  : 	const uintptr_t _Ptr_container = _Ptr_user[-1];

  00086	8b 50 fc	 mov	 edx, DWORD PTR [eax-4]
  00089	83 c1 23	 add	 ecx, 35			; 00000023H

; 119  : 
; 120  : 	// If the following asserts, it likely means that we are performing
; 121  : 	// an aligned delete on memory coming from an unaligned allocation.
; 122  : 	_STL_ASSERT(_Ptr_user[-2] == _Big_allocation_sentinel, "invalid argument");
; 123  : 
; 124  : 	// Extra paranoia on aligned allocation/deallocation; ensure _Ptr_container is
; 125  : 	// in range [_Min_back_shift, _Non_user_size]
; 126  :   #ifdef _DEBUG
; 127  : 	constexpr uintptr_t _Min_back_shift = 2 * sizeof(void *);
; 128  :   #else /* ^^^ _DEBUG ^^^ // vvv !_DEBUG vvv */
; 129  : 	constexpr uintptr_t _Min_back_shift = sizeof(void *);
; 130  :   #endif /* _DEBUG */
; 131  : 	const uintptr_t _Back_shift = reinterpret_cast<uintptr_t>(_Ptr) - _Ptr_container;

  0008c	2b c2		 sub	 eax, edx

; 132  : 	_STL_VERIFY(_Back_shift >= _Min_back_shift && _Back_shift <= _Non_user_size, "invalid argument");

  0008e	83 c0 fc	 add	 eax, -4			; fffffffcH
  00091	83 f8 1f	 cmp	 eax, 31			; 0000001fH
  00094	77 17		 ja	 SHORT $LN73@Reallocate

; 133  : 	_Ptr = reinterpret_cast<void *>(_Ptr_container);

  00096	8b c2		 mov	 eax, edx
$LN76@Reallocate:

; 207  : 	::operator delete(_Ptr, _Bytes);

  00098	51		 push	 ecx
  00099	50		 push	 eax
  0009a	e8 00 00 00 00	 call	 ??3@YAXPAXI@Z		; operator delete
  0009f	83 c4 08	 add	 esp, 8
$LN3@Reallocate:
; File c:\program files (x86)\microsoft visual studio\2017\community\vc\tools\msvc\14.15.26726\include\xstring

; 3913 : 		return (*this);

  000a2	89 37		 mov	 DWORD PTR [edi], esi
  000a4	8b c7		 mov	 eax, edi
  000a6	5e		 pop	 esi
  000a7	5d		 pop	 ebp
  000a8	5f		 pop	 edi

; 3914 : 		}

  000a9	5b		 pop	 ebx
  000aa	c2 0c 00	 ret	 12			; 0000000cH
$LN73@Reallocate:
; File c:\program files (x86)\microsoft visual studio\2017\community\vc\tools\msvc\14.15.26726\include\xmemory0

; 132  : 	_STL_VERIFY(_Back_shift >= _Min_back_shift && _Back_shift <= _Non_user_size, "invalid argument");

  000ad	e8 00 00 00 00	 call	 __invalid_parameter_noinfo_noreturn
$LN93@Reallocate:
$LN92@Reallocate:
; File c:\program files (x86)\microsoft visual studio\2017\community\vc\tools\msvc\14.15.26726\include\xstring

; 3891 : 			_Xlen();	// result too long

  000b2	e8 00 00 00 00	 call	 ?_Xlen@?$basic_string@DU?$char_traits@D@std@@V?$allocator@D@2@@std@@SAXXZ ; std::basic_string<char,std::char_traits<char>,std::allocator<char> >::_Xlen
$LN90@Reallocate:
  000b7	cc		 int	 3
??$_Reallocate_for@V<lambda_9366063389c5f42a00a5088cf24e69de>@@PBD@?$basic_string@DU?$char_traits@D@std@@V?$allocator@D@2@@std@@QAEAAV01@IV<lambda_9366063389c5f42a00a5088cf24e69de>@@PBD@Z ENDP ; std::basic_string<char,std::char_traits<char>,std::allocator<char> >::_Reallocate_for<<lambda_9366063389c5f42a00a5088cf24e69de>,char const *>
_TEXT	ENDS
; Function compile flags: /Ogtpy
; File c:\program files (x86)\microsoft visual studio\2017\community\vc\tools\msvc\14.15.26726\include\xstring
; File c:\program files (x86)\microsoft visual studio\2017\community\vc\tools\msvc\14.15.26726\include\iosfwd
; File c:\program files (x86)\microsoft visual studio\2017\community\vc\tools\msvc\14.15.26726\include\xstring
; File c:\program files (x86)\microsoft visual studio\2017\community\vc\tools\msvc\14.15.26726\include\iosfwd
; File c:\program files (x86)\microsoft visual studio\2017\community\vc\tools\msvc\14.15.26726\include\xstring
;	COMDAT ??R<lambda_9366063389c5f42a00a5088cf24e69de>@@QBEXQADIQBD@Z
_TEXT	SEGMENT
__New_ptr$ = 8						; size = 4
__Count$ = 12						; size = 4
__Ptr$ = 16						; size = 4
??R<lambda_9366063389c5f42a00a5088cf24e69de>@@QBEXQADIQBD@Z PROC ; <lambda_9366063389c5f42a00a5088cf24e69de>::operator(), COMDAT
; _this$ = ecx

; 2668 : 		return (_Reallocate_for(_Count, [](_Elem * const _New_ptr, const size_type _Count, const _Elem * const _Ptr) {

  00000	56		 push	 esi
; File c:\program files (x86)\microsoft visual studio\2017\community\vc\tools\msvc\14.15.26726\include\iosfwd

; 471  : 		return (static_cast<char *>(_CSTD memcpy(_First1, _First2, _Count)));

  00001	8b 74 24 08	 mov	 esi, DWORD PTR __New_ptr$[esp]
; File c:\program files (x86)\microsoft visual studio\2017\community\vc\tools\msvc\14.15.26726\include\xstring

; 2668 : 		return (_Reallocate_for(_Count, [](_Elem * const _New_ptr, const size_type _Count, const _Elem * const _Ptr) {

  00005	57		 push	 edi
; File c:\program files (x86)\microsoft visual studio\2017\community\vc\tools\msvc\14.15.26726\include\iosfwd

; 471  : 		return (static_cast<char *>(_CSTD memcpy(_First1, _First2, _Count)));

  00006	8b 7c 24 10	 mov	 edi, DWORD PTR __Count$[esp+4]
  0000a	57		 push	 edi
  0000b	ff 74 24 18	 push	 DWORD PTR __Ptr$[esp+8]
  0000f	56		 push	 esi
  00010	e8 00 00 00 00	 call	 _memcpy
  00015	83 c4 0c	 add	 esp, 12			; 0000000cH

; 506  : 		_Left = _Right;

  00018	c6 04 3e 00	 mov	 BYTE PTR [esi+edi], 0
  0001c	5f		 pop	 edi
  0001d	5e		 pop	 esi
; File c:\program files (x86)\microsoft visual studio\2017\community\vc\tools\msvc\14.15.26726\include\xstring

; 2671 : 			}, _Ptr));

  0001e	c2 0c 00	 ret	 12			; 0000000cH
??R<lambda_9366063389c5f42a00a5088cf24e69de>@@QBEXQADIQBD@Z ENDP ; <lambda_9366063389c5f42a00a5088cf24e69de>::operator()
_TEXT	ENDS
; Function compile flags: /Ogtpy
; File c:\program files (x86)\microsoft visual studio\2017\community\vc\tools\msvc\14.15.26726\include\streambuf
;	COMDAT ?_Pnavail@?$basic_streambuf@DU?$char_traits@D@std@@@std@@IBE_JXZ
_TEXT	SEGMENT
?_Pnavail@?$basic_streambuf@DU?$char_traits@D@std@@@std@@IBE_JXZ PROC ; std::basic_streambuf<char,std::char_traits<char> >::_Pnavail, COMDAT
; _this$ = ecx

; 312  : 		return (*_IPnext != nullptr ? *_IPcount : 0);

  00000	8b 41 20	 mov	 eax, DWORD PTR [ecx+32]
  00003	83 38 00	 cmp	 DWORD PTR [eax], 0
  00006	74 07		 je	 SHORT $LN3@Pnavail
  00008	8b 41 30	 mov	 eax, DWORD PTR [ecx+48]
  0000b	8b 00		 mov	 eax, DWORD PTR [eax]
  0000d	99		 cdq

; 313  : 		}

  0000e	c3		 ret	 0
$LN3@Pnavail:

; 312  : 		return (*_IPnext != nullptr ? *_IPcount : 0);

  0000f	33 c0		 xor	 eax, eax
  00011	99		 cdq

; 313  : 		}

  00012	c3		 ret	 0
?_Pnavail@?$basic_streambuf@DU?$char_traits@D@std@@@std@@IBE_JXZ ENDP ; std::basic_streambuf<char,std::char_traits<char> >::_Pnavail
_TEXT	ENDS
; Function compile flags: /Ogtpy
; File c:\program files (x86)\microsoft visual studio\2017\community\vc\tools\msvc\14.15.26726\include\streambuf
;	COMDAT ?_Pninc@?$basic_streambuf@DU?$char_traits@D@std@@@std@@IAEPADXZ
_TEXT	SEGMENT
?_Pninc@?$basic_streambuf@DU?$char_traits@D@std@@@std@@IAEPADXZ PROC ; std::basic_streambuf<char,std::char_traits<char> >::_Pninc, COMDAT
; _this$ = ecx

; 306  : 		--*_IPcount;

  00000	8b 41 30	 mov	 eax, DWORD PTR [ecx+48]
  00003	ff 08		 dec	 DWORD PTR [eax]

; 307  : 		return ((*_IPnext)++);

  00005	8b 51 20	 mov	 edx, DWORD PTR [ecx+32]
  00008	8b 02		 mov	 eax, DWORD PTR [edx]
  0000a	8d 48 01	 lea	 ecx, DWORD PTR [eax+1]
  0000d	89 0a		 mov	 DWORD PTR [edx], ecx

; 308  : 		}

  0000f	c3		 ret	 0
?_Pninc@?$basic_streambuf@DU?$char_traits@D@std@@@std@@IAEPADXZ ENDP ; std::basic_streambuf<char,std::char_traits<char> >::_Pninc
_TEXT	ENDS
; Function compile flags: /Ogtpy
; File c:\program files (x86)\microsoft visual studio\2017\community\vc\tools\msvc\14.15.26726\include\streambuf
;	COMDAT ?sputn@?$basic_streambuf@DU?$char_traits@D@std@@@std@@QAE_JPBD_J@Z
_TEXT	SEGMENT
__Ptr$ = 8						; size = 4
__Count$ = 12						; size = 8
?sputn@?$basic_streambuf@DU?$char_traits@D@std@@@std@@QAE_JPBD_J@Z PROC ; std::basic_streambuf<char,std::char_traits<char> >::sputn, COMDAT
; _this$ = ecx

; 206  : 		return (xsputn(_Ptr, _Count));

  00000	ff 74 24 0c	 push	 DWORD PTR __Count$[esp]
  00004	8b 01		 mov	 eax, DWORD PTR [ecx]
  00006	ff 74 24 0c	 push	 DWORD PTR __Count$[esp]
  0000a	ff 74 24 0c	 push	 DWORD PTR __Ptr$[esp+4]
  0000e	8b 40 24	 mov	 eax, DWORD PTR [eax+36]
  00011	ff d0		 call	 eax

; 207  : 		}

  00013	c2 0c 00	 ret	 12			; 0000000cH
?sputn@?$basic_streambuf@DU?$char_traits@D@std@@@std@@QAE_JPBD_J@Z ENDP ; std::basic_streambuf<char,std::char_traits<char> >::sputn
_TEXT	ENDS
; Function compile flags: /Ogtpy
; File c:\program files (x86)\microsoft visual studio\2017\community\vc\tools\msvc\14.15.26726\include\streambuf
; File c:\program files (x86)\microsoft visual studio\2017\community\vc\tools\msvc\14.15.26726\include\iosfwd
; File c:\program files (x86)\microsoft visual studio\2017\community\vc\tools\msvc\14.15.26726\include\streambuf
; File c:\program files (x86)\microsoft visual studio\2017\community\vc\tools\msvc\14.15.26726\include\iosfwd
; File c:\program files (x86)\microsoft visual studio\2017\community\vc\tools\msvc\14.15.26726\include\streambuf
;	COMDAT ?sputc@?$basic_streambuf@DU?$char_traits@D@std@@@std@@QAEHD@Z
_TEXT	SEGMENT
__Ch$ = 8						; size = 1
?sputc@?$basic_streambuf@DU?$char_traits@D@std@@@std@@QAEHD@Z PROC ; std::basic_streambuf<char,std::char_traits<char> >::sputc, COMDAT
; _this$ = ecx

; 312  : 		return (*_IPnext != nullptr ? *_IPcount : 0);

  00000	8b 41 20	 mov	 eax, DWORD PTR [ecx+32]
  00003	83 38 00	 cmp	 DWORD PTR [eax], 0
  00006	74 22		 je	 SHORT $LN3@sputc
  00008	8b 51 30	 mov	 edx, DWORD PTR [ecx+48]
  0000b	8b 02		 mov	 eax, DWORD PTR [edx]

; 198  : 		return (0 < _Pnavail()

  0000d	85 c0		 test	 eax, eax
  0000f	7e 19		 jle	 SHORT $LN3@sputc

; 306  : 		--*_IPcount;

  00011	48		 dec	 eax
  00012	89 02		 mov	 DWORD PTR [edx], eax

; 307  : 		return ((*_IPnext)++);

  00014	8b 49 20	 mov	 ecx, DWORD PTR [ecx+32]
  00017	8b 11		 mov	 edx, DWORD PTR [ecx]
  00019	8d 42 01	 lea	 eax, DWORD PTR [edx+1]
  0001c	89 01		 mov	 DWORD PTR [ecx], eax

; 198  : 		return (0 < _Pnavail()

  0001e	8a 44 24 04	 mov	 al, BYTE PTR __Ch$[esp-4]
  00022	88 02		 mov	 BYTE PTR [edx], al
; File c:\program files (x86)\microsoft visual studio\2017\community\vc\tools\msvc\14.15.26726\include\iosfwd

; 526  : 		return (static_cast<unsigned char>(_Ch));

  00024	0f b6 c0	 movzx	 eax, al
; File c:\program files (x86)\microsoft visual studio\2017\community\vc\tools\msvc\14.15.26726\include\streambuf

; 201  : 		}

  00027	c2 04 00	 ret	 4
$LN3@sputc:
; File c:\program files (x86)\microsoft visual studio\2017\community\vc\tools\msvc\14.15.26726\include\iosfwd

; 526  : 		return (static_cast<unsigned char>(_Ch));

  0002a	0f b6 44 24 04	 movzx	 eax, BYTE PTR __Ch$[esp-4]
; File c:\program files (x86)\microsoft visual studio\2017\community\vc\tools\msvc\14.15.26726\include\streambuf

; 198  : 		return (0 < _Pnavail()

  0002f	8b 11		 mov	 edx, DWORD PTR [ecx]
  00031	89 44 24 04	 mov	 DWORD PTR __Ch$[esp-4], eax
  00035	ff 62 0c	 jmp	 DWORD PTR [edx+12]
?sputc@?$basic_streambuf@DU?$char_traits@D@std@@@std@@QAEHD@Z ENDP ; std::basic_streambuf<char,std::char_traits<char> >::sputc
_TEXT	ENDS
; Function compile flags: /Ogtpy
; File c:\program files (x86)\microsoft visual studio\2017\community\vc\tools\msvc\14.15.26726\include\streambuf
;	COMDAT ?pubsync@?$basic_streambuf@DU?$char_traits@D@std@@@std@@QAEHXZ
_TEXT	SEGMENT
?pubsync@?$basic_streambuf@DU?$char_traits@D@std@@@std@@QAEHXZ PROC ; std::basic_streambuf<char,std::char_traits<char> >::pubsync, COMDAT
; _this$ = ecx

; 143  : 		return (sync());

  00000	8b 01		 mov	 eax, DWORD PTR [ecx]
  00002	ff 60 34	 jmp	 DWORD PTR [eax+52]
?pubsync@?$basic_streambuf@DU?$char_traits@D@std@@@std@@QAEHXZ ENDP ; std::basic_streambuf<char,std::char_traits<char> >::pubsync
_TEXT	ENDS
; Function compile flags: /Ogtpy
; File c:\program files (x86)\microsoft visual studio\2017\community\vc\tools\msvc\14.15.26726\include\xmemory0
;	COMDAT ??$_Deallocate@$07$0A@@std@@YAXPAXI@Z
_TEXT	SEGMENT
__Ptr$ = 8						; size = 4
__Bytes$ = 12						; size = 4
??$_Deallocate@$07$0A@@std@@YAXPAXI@Z PROC		; std::_Deallocate<8,0>, COMDAT

; 200  :  #if defined(_M_IX86) || defined(_M_X64)
; 201  : 	if (_Bytes >= _Big_allocation_threshold)

  00000	8b 4c 24 08	 mov	 ecx, DWORD PTR __Bytes$[esp-4]
  00004	81 f9 00 10 00
	00		 cmp	 ecx, 4096		; 00001000H
  0000a	72 19		 jb	 SHORT $LN15@Deallocate

; 118  : 	const uintptr_t _Ptr_container = _Ptr_user[-1];

  0000c	8b 44 24 04	 mov	 eax, DWORD PTR __Ptr$[esp-4]
  00010	83 c1 23	 add	 ecx, 35			; 00000023H
  00013	8b 50 fc	 mov	 edx, DWORD PTR [eax-4]

; 119  : 
; 120  : 	// If the following asserts, it likely means that we are performing
; 121  : 	// an aligned delete on memory coming from an unaligned allocation.
; 122  : 	_STL_ASSERT(_Ptr_user[-2] == _Big_allocation_sentinel, "invalid argument");
; 123  : 
; 124  : 	// Extra paranoia on aligned allocation/deallocation; ensure _Ptr_container is
; 125  : 	// in range [_Min_back_shift, _Non_user_size]
; 126  :   #ifdef _DEBUG
; 127  : 	constexpr uintptr_t _Min_back_shift = 2 * sizeof(void *);
; 128  :   #else /* ^^^ _DEBUG ^^^ // vvv !_DEBUG vvv */
; 129  : 	constexpr uintptr_t _Min_back_shift = sizeof(void *);
; 130  :   #endif /* _DEBUG */
; 131  : 	const uintptr_t _Back_shift = reinterpret_cast<uintptr_t>(_Ptr) - _Ptr_container;

  00016	2b c2		 sub	 eax, edx

; 132  : 	_STL_VERIFY(_Back_shift >= _Min_back_shift && _Back_shift <= _Non_user_size, "invalid argument");

  00018	83 c0 fc	 add	 eax, -4			; fffffffcH
  0001b	83 f8 1f	 cmp	 eax, 31			; 0000001fH
  0001e	76 09		 jbe	 SHORT $LN13@Deallocate
  00020	e9 00 00 00 00	 jmp	 __invalid_parameter_noinfo_noreturn
$LN15@Deallocate:

; 200  :  #if defined(_M_IX86) || defined(_M_X64)
; 201  : 	if (_Bytes >= _Big_allocation_threshold)

  00025	8b 54 24 04	 mov	 edx, DWORD PTR __Ptr$[esp-4]
$LN13@Deallocate:

; 202  : 		{	// boost the alignment of big allocations to help autovectorization
; 203  : 		_Adjust_manually_vector_aligned(_Ptr, _Bytes);
; 204  : 		}
; 205  :  #endif /* defined(_M_IX86) || defined(_M_X64) */
; 206  : 
; 207  : 	::operator delete(_Ptr, _Bytes);

  00029	89 4c 24 08	 mov	 DWORD PTR __Bytes$[esp-4], ecx
  0002d	89 54 24 04	 mov	 DWORD PTR __Ptr$[esp-4], edx
  00031	e9 00 00 00 00	 jmp	 ??3@YAXPAXI@Z		; operator delete
??$_Deallocate@$07$0A@@std@@YAXPAXI@Z ENDP		; std::_Deallocate<8,0>
_TEXT	ENDS
; Function compile flags: /Ogtpy
; File c:\program files (x86)\microsoft visual studio\2017\community\vc\tools\msvc\14.15.26726\include\xmemory0
;	COMDAT ??$_Allocate@$07U_Default_allocate_traits@std@@$0A@@std@@YAPAXI@Z
_TEXT	SEGMENT
__Bytes$ = 8						; size = 4
??$_Allocate@$07U_Default_allocate_traits@std@@$0A@@std@@YAPAXI@Z PROC ; std::_Allocate<8,std::_Default_allocate_traits,0>, COMDAT

; 181  :  #if defined(_M_IX86) || defined(_M_X64)
; 182  : 	if (_Bytes >= _Big_allocation_threshold)

  00000	8b 4c 24 04	 mov	 ecx, DWORD PTR __Bytes$[esp-4]
  00004	81 f9 00 10 00
	00		 cmp	 ecx, 4096		; 00001000H
  0000a	72 29		 jb	 SHORT $LN2@Allocate

; 93   : 	size_t _Block_size = _Non_user_size + _Bytes;

  0000c	8d 41 23	 lea	 eax, DWORD PTR [ecx+35]

; 94   : 	if (_Block_size <= _Bytes)

  0000f	83 ca ff	 or	 edx, -1
  00012	3b c1		 cmp	 eax, ecx
  00014	0f 46 c2	 cmovbe	 eax, edx

; 52   : 		return (::operator new(_Bytes));

  00017	50		 push	 eax
  00018	e8 00 00 00 00	 call	 ??2@YAPAXI@Z		; operator new

; 100  : 	const uintptr_t _Ptr_container = reinterpret_cast<uintptr_t>(_Traits::_Allocate(_Block_size));

  0001d	8b c8		 mov	 ecx, eax

; 52   : 		return (::operator new(_Bytes));

  0001f	83 c4 04	 add	 esp, 4

; 101  : 	_STL_VERIFY(_Ptr_container != 0, "invalid argument");	// validate even in release since we're doing p[-1]

  00022	85 c9		 test	 ecx, ecx
  00024	74 0a		 je	 SHORT $LN11@Allocate

; 102  : 	void * const _Ptr = reinterpret_cast<void *>((_Ptr_container + _Non_user_size)
; 103  : 		& ~(_Big_allocation_alignment - 1));

  00026	8d 41 23	 lea	 eax, DWORD PTR [ecx+35]
  00029	83 e0 e0	 and	 eax, -32		; ffffffe0H

; 104  : 	static_cast<uintptr_t *>(_Ptr)[-1] = _Ptr_container;

  0002c	89 48 fc	 mov	 DWORD PTR [eax-4], ecx

; 194  : 	}

  0002f	c3		 ret	 0
$LN11@Allocate:

; 101  : 	_STL_VERIFY(_Ptr_container != 0, "invalid argument");	// validate even in release since we're doing p[-1]

  00030	e9 00 00 00 00	 jmp	 __invalid_parameter_noinfo_noreturn
$LN2@Allocate:

; 183  : 		{	// boost the alignment of big allocations to help autovectorization
; 184  : 		return (_Allocate_manually_vector_aligned<_Traits>(_Bytes));
; 185  : 		}
; 186  :  #endif /* defined(_M_IX86) || defined(_M_X64) */
; 187  : 
; 188  : 	if (_Bytes != 0)

  00035	85 c9		 test	 ecx, ecx
  00037	74 09		 je	 SHORT $LN3@Allocate

; 52   : 		return (::operator new(_Bytes));

  00039	89 4c 24 04	 mov	 DWORD PTR __Bytes$[esp-4], ecx
  0003d	e9 00 00 00 00	 jmp	 ??2@YAPAXI@Z		; operator new
$LN3@Allocate:

; 189  : 		{
; 190  : 		return (_Traits::_Allocate(_Bytes));
; 191  : 		}
; 192  : 
; 193  : 	return (nullptr);

  00042	33 c0		 xor	 eax, eax

; 194  : 	}

  00044	c3		 ret	 0
??$_Allocate@$07U_Default_allocate_traits@std@@$0A@@std@@YAPAXI@Z ENDP ; std::_Allocate<8,std::_Default_allocate_traits,0>
_TEXT	ENDS
; Function compile flags: /Ogtpy
; File c:\program files (x86)\microsoft visual studio\2017\community\vc\tools\msvc\14.15.26726\include\xstddef
;	COMDAT ??$addressof@V?$_String_val@U?$_Simple_types@D@std@@@std@@@std@@YAPAV?$_String_val@U?$_Simple_types@D@std@@@0@AAV10@@Z
_TEXT	SEGMENT
__Val$ = 8						; size = 4
??$addressof@V?$_String_val@U?$_Simple_types@D@std@@@std@@@std@@YAPAV?$_String_val@U?$_Simple_types@D@std@@@0@AAV10@@Z PROC ; std::addressof<std::_String_val<std::_Simple_types<char> > >, COMDAT

; 330  : 	return (__builtin_addressof(_Val));

  00000	8b 44 24 04	 mov	 eax, DWORD PTR __Val$[esp-4]

; 331  : 	}

  00004	c3		 ret	 0
??$addressof@V?$_String_val@U?$_Simple_types@D@std@@@std@@@std@@YAPAV?$_String_val@U?$_Simple_types@D@std@@@0@AAV10@@Z ENDP ; std::addressof<std::_String_val<std::_Simple_types<char> > >
_TEXT	ENDS
; Function compile flags: /Ogtpy
; File c:\program files (x86)\microsoft visual studio\2017\community\vc\tools\msvc\14.15.26726\include\xmemory0
;	COMDAT ??$construct@PADABQAD@?$_Default_allocator_traits@V?$allocator@D@std@@@std@@SAXAAV?$allocator@D@1@QAPADABQAD@Z
_TEXT	SEGMENT
___formal$ = 8						; size = 4
__Ptr$ = 12						; size = 4
_<_Args_0>$ = 16					; size = 4
??$construct@PADABQAD@?$_Default_allocator_traits@V?$allocator@D@std@@@std@@SAXAAV?$allocator@D@1@QAPADABQAD@Z PROC ; std::_Default_allocator_traits<std::allocator<char> >::construct<char *,char * const &>, COMDAT

; 880  : 		::new (const_cast<void *>(static_cast<const volatile void *>(_Ptr)))

  00000	8b 44 24 0c	 mov	 eax, DWORD PTR _<_Args_0>$[esp-4]
  00004	8b 08		 mov	 ecx, DWORD PTR [eax]
  00006	8b 44 24 08	 mov	 eax, DWORD PTR __Ptr$[esp-4]
  0000a	89 08		 mov	 DWORD PTR [eax], ecx

; 881  : 			_Objty(_STD forward<_Types>(_Args)...);
; 882  : 		}

  0000c	c3		 ret	 0
??$construct@PADABQAD@?$_Default_allocator_traits@V?$allocator@D@std@@@std@@SAXAAV?$allocator@D@1@QAPADABQAD@Z ENDP ; std::_Default_allocator_traits<std::allocator<char> >::construct<char *,char * const &>
_TEXT	ENDS
; Function compile flags: /Ogtpy
; File c:\program files (x86)\microsoft visual studio\2017\community\vc\tools\msvc\14.15.26726\include\xstring
; File c:\program files (x86)\microsoft visual studio\2017\community\vc\tools\msvc\14.15.26726\include\utility
; File c:\program files (x86)\microsoft visual studio\2017\community\vc\tools\msvc\14.15.26726\include\xstring
; File c:\program files (x86)\microsoft visual studio\2017\community\vc\tools\msvc\14.15.26726\include\iosfwd
; File c:\program files (x86)\microsoft visual studio\2017\community\vc\tools\msvc\14.15.26726\include\xstring
; File c:\program files (x86)\microsoft visual studio\2017\community\vc\tools\msvc\14.15.26726\include\iosfwd
; File c:\program files (x86)\microsoft visual studio\2017\community\vc\tools\msvc\14.15.26726\include\xmemory0
; File c:\program files (x86)\microsoft visual studio\2017\community\vc\tools\msvc\14.15.26726\include\xstring
; File c:\program files (x86)\microsoft visual studio\2017\community\vc\tools\msvc\14.15.26726\include\iosfwd
; File c:\program files (x86)\microsoft visual studio\2017\community\vc\tools\msvc\14.15.26726\include\xstring
; File c:\program files (x86)\microsoft visual studio\2017\community\vc\tools\msvc\14.15.26726\include\xmemory0
; File c:\program files (x86)\microsoft visual studio\2017\community\vc\tools\msvc\14.15.26726\include\xstring
;	COMDAT ??$_Reallocate_grow_by@V<lambda_ab246b20b9526e2ef7792587e4298a77>@@PBDI@?$basic_string@DU?$char_traits@D@std@@V?$allocator@D@2@@std@@QAEAAV01@IV<lambda_ab246b20b9526e2ef7792587e4298a77>@@PBDI@Z
_TEXT	SEGMENT
tv474 = -4						; size = 4
__New_size$1$ = -4					; size = 4
__Old$1$ = 8						; size = 4
__Size_increase$ = 8					; size = 4
__Fn$ = 12						; size = 1
_<_Args_0>$ = 16					; size = 4
_<_Args_1>$ = 20					; size = 4
??$_Reallocate_grow_by@V<lambda_ab246b20b9526e2ef7792587e4298a77>@@PBDI@?$basic_string@DU?$char_traits@D@std@@V?$allocator@D@2@@std@@QAEAAV01@IV<lambda_ab246b20b9526e2ef7792587e4298a77>@@PBDI@Z PROC ; std::basic_string<char,std::char_traits<char>,std::allocator<char> >::_Reallocate_grow_by<<lambda_ab246b20b9526e2ef7792587e4298a77>,char const *,unsigned int>, COMDAT
; _this$ = ecx

; 3919 : 		{	// reallocate to increase size by _Size_increase elements, new buffer prepared by

  00000	51		 push	 ecx

; 3920 : 			// _Fn(_New_ptr, _Old_ptr, _Old_size, _Args...)
; 3921 : 		auto& _My_data = this->_Get_data();
; 3922 : 		const size_type _Old_size = _My_data._Mysize;
; 3923 : 		if (max_size() - _Old_size < _Size_increase)

  00001	8b 54 24 08	 mov	 edx, DWORD PTR __Size_increase$[esp]
  00005	55		 push	 ebp
  00006	56		 push	 esi
  00007	8b f1		 mov	 esi, ecx
  00009	b9 ff ff ff 7f	 mov	 ecx, 2147483647		; 7fffffffH
  0000e	8b c1		 mov	 eax, ecx
  00010	8b 6e 10	 mov	 ebp, DWORD PTR [esi+16]
  00013	2b c5		 sub	 eax, ebp
  00015	3b c2		 cmp	 eax, edx
  00017	0f 82 e4 00 00
	00		 jb	 $LN105@Reallocate

; 3929 : 		const size_type _Old_capacity = _My_data._Myres;

  0001d	8b 46 14	 mov	 eax, DWORD PTR [esi+20]
  00020	03 d5		 add	 edx, ebp
  00022	57		 push	 edi

; 3869 : 		const size_type _Masked = _Requested | this->_ALLOC_MASK;

  00023	8b fa		 mov	 edi, edx

; 3926 : 			}
; 3927 : 
; 3928 : 		const size_type _New_size = _Old_size + _Size_increase;

  00025	89 54 24 0c	 mov	 DWORD PTR __New_size$1$[esp+16], edx

; 3869 : 		const size_type _Masked = _Requested | this->_ALLOC_MASK;

  00029	83 cf 0f	 or	 edi, 15			; 0000000fH

; 3929 : 		const size_type _Old_capacity = _My_data._Myres;

  0002c	89 44 24 14	 mov	 DWORD PTR __Old$1$[esp+12], eax

; 3869 : 		const size_type _Masked = _Requested | this->_ALLOC_MASK;

  00030	3b f9		 cmp	 edi, ecx

; 3870 : 		if (_Masked > _Max)

  00032	76 04		 jbe	 SHORT $LN25@Reallocate

; 3871 : 			{	// the mask overflows, settle for max_size()
; 3872 : 			return (_Max);

  00034	8b f9		 mov	 edi, ecx
  00036	eb 18		 jmp	 SHORT $LN24@Reallocate
$LN25@Reallocate:

; 3873 : 			}
; 3874 : 
; 3875 : 		const size_type _Old = _My_data._Myres;
; 3876 : 		if (_Old > _Max - _Old / 2)

  00038	8b d0		 mov	 edx, eax
  0003a	d1 ea		 shr	 edx, 1
  0003c	2b ca		 sub	 ecx, edx
  0003e	3b c1		 cmp	 eax, ecx
  00040	76 07		 jbe	 SHORT $LN26@Reallocate

; 3877 : 			{	// similarly, geometric overflows
; 3878 : 			return (_Max);

  00042	bf ff ff ff 7f	 mov	 edi, 2147483647		; 7fffffffH
  00047	eb 07		 jmp	 SHORT $LN24@Reallocate
$LN26@Reallocate:

; 3879 : 			}
; 3880 : 
; 3881 : 		return (_Max_value(_Masked, _Old + _Old / 2));

  00049	03 c2		 add	 eax, edx
; File c:\program files (x86)\microsoft visual studio\2017\community\vc\tools\msvc\14.15.26726\include\utility

; 33   : 	return (_Left < _Right ? _Right : _Left);

  0004b	3b f8		 cmp	 edi, eax
  0004d	0f 42 f8	 cmovb	 edi, eax
$LN24@Reallocate:
  00050	53		 push	 ebx
; File c:\program files (x86)\microsoft visual studio\2017\community\vc\tools\msvc\14.15.26726\include\xstring

; 3932 : 		const pointer _New_ptr = _Al.allocate(_New_capacity + 1); // throws

  00051	8d 47 01	 lea	 eax, DWORD PTR [edi+1]
  00054	8b ce		 mov	 ecx, esi
  00056	50		 push	 eax
  00057	e8 00 00 00 00	 call	 ?allocate@?$allocator@D@std@@QAEPADI@Z ; std::allocator<char>::allocate
  0005c	8b d8		 mov	 ebx, eax

; 3933 : 		_My_data._Orphan_all();
; 3934 : 		_My_data._Mysize = _New_size;
; 3935 : 		_My_data._Myres = _New_capacity;

  0005e	89 7e 14	 mov	 DWORD PTR [esi+20], edi
  00061	8b 44 24 10	 mov	 eax, DWORD PTR __New_size$1$[esp+20]
  00065	89 46 10	 mov	 DWORD PTR [esi+16], eax

; 3936 : 		_Elem * const _Raw_new = _Unfancy(_New_ptr);

  00068	8b 44 24 24	 mov	 eax, DWORD PTR _<_Args_1>$[esp+16]
  0006c	8d 3c 2b	 lea	 edi, DWORD PTR [ebx+ebp]
  0006f	03 c7		 add	 eax, edi

; 3937 : 		if (this->_BUF_SIZE <= _Old_capacity)

  00071	83 7c 24 18 10	 cmp	 DWORD PTR __Old$1$[esp+16], 16 ; 00000010H
  00076	89 44 24 10	 mov	 DWORD PTR tv474[esp+20], eax
  0007a	55		 push	 ebp
  0007b	72 59		 jb	 SHORT $LN3@Reallocate

; 3938 : 			{
; 3939 : 			const pointer _Old_ptr = _My_data._Bx._Ptr;

  0007d	8b 3e		 mov	 edi, DWORD PTR [esi]
; File c:\program files (x86)\microsoft visual studio\2017\community\vc\tools\msvc\14.15.26726\include\iosfwd

; 471  : 		return (static_cast<char *>(_CSTD memcpy(_First1, _First2, _Count)));

  0007f	57		 push	 edi
  00080	53		 push	 ebx
  00081	e8 00 00 00 00	 call	 _memcpy
  00086	ff 74 24 30	 push	 DWORD PTR _<_Args_1>$[esp+28]
  0008a	8d 04 2b	 lea	 eax, DWORD PTR [ebx+ebp]
  0008d	ff 74 24 30	 push	 DWORD PTR _<_Args_0>$[esp+32]
  00091	50		 push	 eax
  00092	e8 00 00 00 00	 call	 _memcpy

; 506  : 		_Left = _Right;

  00097	8b 44 24 28	 mov	 eax, DWORD PTR tv474[esp+44]

; 471  : 		return (static_cast<char *>(_CSTD memcpy(_First1, _First2, _Count)));

  0009b	83 c4 18	 add	 esp, 24			; 00000018H
; File c:\program files (x86)\microsoft visual studio\2017\community\vc\tools\msvc\14.15.26726\include\xstring

; 3941 : 			_Al.deallocate(_Old_ptr, _Old_capacity + 1);

  0009e	8b 4c 24 18	 mov	 ecx, DWORD PTR __Old$1$[esp+16]
  000a2	41		 inc	 ecx
; File c:\program files (x86)\microsoft visual studio\2017\community\vc\tools\msvc\14.15.26726\include\iosfwd

; 506  : 		_Left = _Right;

  000a3	c6 00 00	 mov	 BYTE PTR [eax], 0
; File c:\program files (x86)\microsoft visual studio\2017\community\vc\tools\msvc\14.15.26726\include\xmemory0

; 201  : 	if (_Bytes >= _Big_allocation_threshold)

  000a6	81 f9 00 10 00
	00		 cmp	 ecx, 4096		; 00001000H
  000ac	72 12		 jb	 SHORT $LN80@Reallocate

; 118  : 	const uintptr_t _Ptr_container = _Ptr_user[-1];

  000ae	8b 57 fc	 mov	 edx, DWORD PTR [edi-4]
  000b1	83 c1 23	 add	 ecx, 35			; 00000023H

; 119  : 
; 120  : 	// If the following asserts, it likely means that we are performing
; 121  : 	// an aligned delete on memory coming from an unaligned allocation.
; 122  : 	_STL_ASSERT(_Ptr_user[-2] == _Big_allocation_sentinel, "invalid argument");
; 123  : 
; 124  : 	// Extra paranoia on aligned allocation/deallocation; ensure _Ptr_container is
; 125  : 	// in range [_Min_back_shift, _Non_user_size]
; 126  :   #ifdef _DEBUG
; 127  : 	constexpr uintptr_t _Min_back_shift = 2 * sizeof(void *);
; 128  :   #else /* ^^^ _DEBUG ^^^ // vvv !_DEBUG vvv */
; 129  : 	constexpr uintptr_t _Min_back_shift = sizeof(void *);
; 130  :   #endif /* _DEBUG */
; 131  : 	const uintptr_t _Back_shift = reinterpret_cast<uintptr_t>(_Ptr) - _Ptr_container;

  000b4	2b fa		 sub	 edi, edx

; 132  : 	_STL_VERIFY(_Back_shift >= _Min_back_shift && _Back_shift <= _Non_user_size, "invalid argument");

  000b6	8d 47 fc	 lea	 eax, DWORD PTR [edi-4]
  000b9	83 f8 1f	 cmp	 eax, 31			; 0000001fH
  000bc	77 48		 ja	 SHORT $LN77@Reallocate

; 133  : 	_Ptr = reinterpret_cast<void *>(_Ptr_container);

  000be	8b fa		 mov	 edi, edx
$LN80@Reallocate:

; 207  : 	::operator delete(_Ptr, _Bytes);

  000c0	51		 push	 ecx
  000c1	57		 push	 edi
  000c2	e8 00 00 00 00	 call	 ??3@YAXPAXI@Z		; operator delete
  000c7	83 c4 08	 add	 esp, 8
; File c:\program files (x86)\microsoft visual studio\2017\community\vc\tools\msvc\14.15.26726\include\xstring

; 3950 : 		return (*this);

  000ca	89 1e		 mov	 DWORD PTR [esi], ebx
  000cc	8b c6		 mov	 eax, esi
  000ce	5b		 pop	 ebx
  000cf	5f		 pop	 edi
  000d0	5e		 pop	 esi

; 3951 : 		}

  000d1	5d		 pop	 ebp
  000d2	59		 pop	 ecx
  000d3	c2 10 00	 ret	 16			; 00000010H
$LN3@Reallocate:
; File c:\program files (x86)\microsoft visual studio\2017\community\vc\tools\msvc\14.15.26726\include\iosfwd

; 471  : 		return (static_cast<char *>(_CSTD memcpy(_First1, _First2, _Count)));

  000d6	56		 push	 esi
  000d7	53		 push	 ebx
  000d8	e8 00 00 00 00	 call	 _memcpy
  000dd	ff 74 24 30	 push	 DWORD PTR _<_Args_1>$[esp+28]
  000e1	ff 74 24 30	 push	 DWORD PTR _<_Args_0>$[esp+32]
  000e5	57		 push	 edi
  000e6	e8 00 00 00 00	 call	 _memcpy

; 506  : 		_Left = _Right;

  000eb	8b 44 24 28	 mov	 eax, DWORD PTR tv474[esp+44]

; 471  : 		return (static_cast<char *>(_CSTD memcpy(_First1, _First2, _Count)));

  000ef	83 c4 18	 add	 esp, 24			; 00000018H

; 506  : 		_Left = _Right;

  000f2	c6 00 00	 mov	 BYTE PTR [eax], 0
; File c:\program files (x86)\microsoft visual studio\2017\community\vc\tools\msvc\14.15.26726\include\xstring

; 3950 : 		return (*this);

  000f5	8b c6		 mov	 eax, esi
  000f7	89 1e		 mov	 DWORD PTR [esi], ebx
  000f9	5b		 pop	 ebx
  000fa	5f		 pop	 edi
  000fb	5e		 pop	 esi

; 3951 : 		}

  000fc	5d		 pop	 ebp
  000fd	59		 pop	 ecx
  000fe	c2 10 00	 ret	 16			; 00000010H
$LN105@Reallocate:

; 3924 : 			{
; 3925 : 			_Xlen();	// result too long

  00101	e8 00 00 00 00	 call	 ?_Xlen@?$basic_string@DU?$char_traits@D@std@@V?$allocator@D@2@@std@@SAXXZ ; std::basic_string<char,std::char_traits<char>,std::allocator<char> >::_Xlen
$LN77@Reallocate:
; File c:\program files (x86)\microsoft visual studio\2017\community\vc\tools\msvc\14.15.26726\include\xmemory0

; 132  : 	_STL_VERIFY(_Back_shift >= _Min_back_shift && _Back_shift <= _Non_user_size, "invalid argument");

  00106	e8 00 00 00 00	 call	 __invalid_parameter_noinfo_noreturn
$LN106@Reallocate:
$LN102@Reallocate:
  0010b	cc		 int	 3
??$_Reallocate_grow_by@V<lambda_ab246b20b9526e2ef7792587e4298a77>@@PBDI@?$basic_string@DU?$char_traits@D@std@@V?$allocator@D@2@@std@@QAEAAV01@IV<lambda_ab246b20b9526e2ef7792587e4298a77>@@PBDI@Z ENDP ; std::basic_string<char,std::char_traits<char>,std::allocator<char> >::_Reallocate_grow_by<<lambda_ab246b20b9526e2ef7792587e4298a77>,char const *,unsigned int>
_TEXT	ENDS
; Function compile flags: /Ogtpy
; File c:\program files (x86)\microsoft visual studio\2017\community\vc\tools\msvc\14.15.26726\include\xstring
; File c:\program files (x86)\microsoft visual studio\2017\community\vc\tools\msvc\14.15.26726\include\iosfwd
; File c:\program files (x86)\microsoft visual studio\2017\community\vc\tools\msvc\14.15.26726\include\xstring
; File c:\program files (x86)\microsoft visual studio\2017\community\vc\tools\msvc\14.15.26726\include\iosfwd
; File c:\program files (x86)\microsoft visual studio\2017\community\vc\tools\msvc\14.15.26726\include\xstring
; File c:\program files (x86)\microsoft visual studio\2017\community\vc\tools\msvc\14.15.26726\include\iosfwd
; File c:\program files (x86)\microsoft visual studio\2017\community\vc\tools\msvc\14.15.26726\include\xstring
;	COMDAT ??R<lambda_ab246b20b9526e2ef7792587e4298a77>@@QBEXQADQBDI1I@Z
_TEXT	SEGMENT
__New_ptr$ = 8						; size = 4
__Old_ptr$ = 12						; size = 4
__Old_size$ = 16					; size = 4
__Ptr$ = 20						; size = 4
__Count$ = 24						; size = 4
??R<lambda_ab246b20b9526e2ef7792587e4298a77>@@QBEXQADQBDI1I@Z PROC ; <lambda_ab246b20b9526e2ef7792587e4298a77>::operator(), COMDAT
; _this$ = ecx

; 2583 : 				const _Elem * const _Ptr, const size_type _Count) {

  00000	56		 push	 esi
; File c:\program files (x86)\microsoft visual studio\2017\community\vc\tools\msvc\14.15.26726\include\iosfwd

; 471  : 		return (static_cast<char *>(_CSTD memcpy(_First1, _First2, _Count)));

  00001	8b 74 24 08	 mov	 esi, DWORD PTR __New_ptr$[esp]
; File c:\program files (x86)\microsoft visual studio\2017\community\vc\tools\msvc\14.15.26726\include\xstring

; 2583 : 				const _Elem * const _Ptr, const size_type _Count) {

  00005	57		 push	 edi
; File c:\program files (x86)\microsoft visual studio\2017\community\vc\tools\msvc\14.15.26726\include\iosfwd

; 471  : 		return (static_cast<char *>(_CSTD memcpy(_First1, _First2, _Count)));

  00006	8b 7c 24 14	 mov	 edi, DWORD PTR __Old_size$[esp+4]
  0000a	57		 push	 edi
  0000b	ff 74 24 14	 push	 DWORD PTR __Old_ptr$[esp+8]
  0000f	56		 push	 esi
  00010	e8 00 00 00 00	 call	 _memcpy
; File c:\program files (x86)\microsoft visual studio\2017\community\vc\tools\msvc\14.15.26726\include\xstring

; 2585 : 			_Traits::copy(_New_ptr + _Old_size, _Ptr, _Count);

  00015	03 fe		 add	 edi, esi
; File c:\program files (x86)\microsoft visual studio\2017\community\vc\tools\msvc\14.15.26726\include\iosfwd

; 471  : 		return (static_cast<char *>(_CSTD memcpy(_First1, _First2, _Count)));

  00017	8b 74 24 28	 mov	 esi, DWORD PTR __Count$[esp+16]
  0001b	56		 push	 esi
  0001c	ff 74 24 28	 push	 DWORD PTR __Ptr$[esp+20]
  00020	57		 push	 edi
  00021	e8 00 00 00 00	 call	 _memcpy
  00026	83 c4 18	 add	 esp, 24			; 00000018H

; 506  : 		_Left = _Right;

  00029	c6 04 37 00	 mov	 BYTE PTR [edi+esi], 0
  0002d	5f		 pop	 edi
  0002e	5e		 pop	 esi
; File c:\program files (x86)\microsoft visual studio\2017\community\vc\tools\msvc\14.15.26726\include\xstring

; 2587 : 			}, _Ptr, _Count));

  0002f	c2 14 00	 ret	 20			; 00000014H
??R<lambda_ab246b20b9526e2ef7792587e4298a77>@@QBEXQADQBDI1I@Z ENDP ; <lambda_ab246b20b9526e2ef7792587e4298a77>::operator()
_TEXT	ENDS
; Function compile flags: /Ogtpy
; File c:\program files (x86)\microsoft visual studio\2017\community\vc\tools\msvc\14.15.26726\include\xstring
; File c:\program files (x86)\microsoft visual studio\2017\community\vc\tools\msvc\14.15.26726\include\utility
; File c:\program files (x86)\microsoft visual studio\2017\community\vc\tools\msvc\14.15.26726\include\xstring
; File c:\program files (x86)\microsoft visual studio\2017\community\vc\tools\msvc\14.15.26726\include\iosfwd
; File c:\program files (x86)\microsoft visual studio\2017\community\vc\tools\msvc\14.15.26726\include\xstring
; File c:\program files (x86)\microsoft visual studio\2017\community\vc\tools\msvc\14.15.26726\include\iosfwd
; File c:\program files (x86)\microsoft visual studio\2017\community\vc\tools\msvc\14.15.26726\include\xmemory0
; File c:\program files (x86)\microsoft visual studio\2017\community\vc\tools\msvc\14.15.26726\include\xstring
; File c:\program files (x86)\microsoft visual studio\2017\community\vc\tools\msvc\14.15.26726\include\iosfwd
; File c:\program files (x86)\microsoft visual studio\2017\community\vc\tools\msvc\14.15.26726\include\xstring
; File c:\program files (x86)\microsoft visual studio\2017\community\vc\tools\msvc\14.15.26726\include\xmemory0
; File c:\program files (x86)\microsoft visual studio\2017\community\vc\tools\msvc\14.15.26726\include\xstring
;	COMDAT ??$_Reallocate_grow_by@V<lambda_c1b8c41cb4019640539cfd828748c4d4>@@ID@?$basic_string@DU?$char_traits@D@std@@V?$allocator@D@2@@std@@QAEAAV01@IV<lambda_c1b8c41cb4019640539cfd828748c4d4>@@ID@Z
_TEXT	SEGMENT
tv481 = -4						; size = 4
__New_size$1$ = -4					; size = 4
__Old$1$ = 8						; size = 4
__Size_increase$ = 8					; size = 4
__Fn$ = 12						; size = 1
_<_Args_0>$ = 16					; size = 4
tv483 = 20						; size = 4
_<_Args_1>$ = 20					; size = 1
??$_Reallocate_grow_by@V<lambda_c1b8c41cb4019640539cfd828748c4d4>@@ID@?$basic_string@DU?$char_traits@D@std@@V?$allocator@D@2@@std@@QAEAAV01@IV<lambda_c1b8c41cb4019640539cfd828748c4d4>@@ID@Z PROC ; std::basic_string<char,std::char_traits<char>,std::allocator<char> >::_Reallocate_grow_by<<lambda_c1b8c41cb4019640539cfd828748c4d4>,unsigned int,char>, COMDAT
; _this$ = ecx

; 3919 : 		{	// reallocate to increase size by _Size_increase elements, new buffer prepared by

  00000	51		 push	 ecx

; 3920 : 			// _Fn(_New_ptr, _Old_ptr, _Old_size, _Args...)
; 3921 : 		auto& _My_data = this->_Get_data();
; 3922 : 		const size_type _Old_size = _My_data._Mysize;
; 3923 : 		if (max_size() - _Old_size < _Size_increase)

  00001	8b 54 24 08	 mov	 edx, DWORD PTR __Size_increase$[esp]
  00005	55		 push	 ebp
  00006	56		 push	 esi
  00007	8b f1		 mov	 esi, ecx
  00009	b9 ff ff ff 7f	 mov	 ecx, 2147483647		; 7fffffffH
  0000e	8b c1		 mov	 eax, ecx
  00010	8b 6e 10	 mov	 ebp, DWORD PTR [esi+16]
  00013	2b c5		 sub	 eax, ebp
  00015	3b c2		 cmp	 eax, edx
  00017	0f 82 ed 00 00
	00		 jb	 $LN105@Reallocate

; 3929 : 		const size_type _Old_capacity = _My_data._Myres;

  0001d	8b 46 14	 mov	 eax, DWORD PTR [esi+20]
  00020	03 d5		 add	 edx, ebp
  00022	57		 push	 edi

; 3869 : 		const size_type _Masked = _Requested | this->_ALLOC_MASK;

  00023	8b fa		 mov	 edi, edx

; 3926 : 			}
; 3927 : 
; 3928 : 		const size_type _New_size = _Old_size + _Size_increase;

  00025	89 54 24 0c	 mov	 DWORD PTR __New_size$1$[esp+16], edx

; 3869 : 		const size_type _Masked = _Requested | this->_ALLOC_MASK;

  00029	83 cf 0f	 or	 edi, 15			; 0000000fH

; 3929 : 		const size_type _Old_capacity = _My_data._Myres;

  0002c	89 44 24 14	 mov	 DWORD PTR __Old$1$[esp+12], eax

; 3869 : 		const size_type _Masked = _Requested | this->_ALLOC_MASK;

  00030	3b f9		 cmp	 edi, ecx

; 3870 : 		if (_Masked > _Max)

  00032	76 04		 jbe	 SHORT $LN25@Reallocate

; 3871 : 			{	// the mask overflows, settle for max_size()
; 3872 : 			return (_Max);

  00034	8b f9		 mov	 edi, ecx
  00036	eb 18		 jmp	 SHORT $LN24@Reallocate
$LN25@Reallocate:

; 3873 : 			}
; 3874 : 
; 3875 : 		const size_type _Old = _My_data._Myres;
; 3876 : 		if (_Old > _Max - _Old / 2)

  00038	8b d0		 mov	 edx, eax
  0003a	d1 ea		 shr	 edx, 1
  0003c	2b ca		 sub	 ecx, edx
  0003e	3b c1		 cmp	 eax, ecx
  00040	76 07		 jbe	 SHORT $LN26@Reallocate

; 3877 : 			{	// similarly, geometric overflows
; 3878 : 			return (_Max);

  00042	bf ff ff ff 7f	 mov	 edi, 2147483647		; 7fffffffH
  00047	eb 07		 jmp	 SHORT $LN24@Reallocate
$LN26@Reallocate:

; 3879 : 			}
; 3880 : 
; 3881 : 		return (_Max_value(_Masked, _Old + _Old / 2));

  00049	03 c2		 add	 eax, edx
; File c:\program files (x86)\microsoft visual studio\2017\community\vc\tools\msvc\14.15.26726\include\utility

; 33   : 	return (_Left < _Right ? _Right : _Left);

  0004b	3b f8		 cmp	 edi, eax
  0004d	0f 42 f8	 cmovb	 edi, eax
$LN24@Reallocate:
  00050	53		 push	 ebx
; File c:\program files (x86)\microsoft visual studio\2017\community\vc\tools\msvc\14.15.26726\include\xstring

; 3932 : 		const pointer _New_ptr = _Al.allocate(_New_capacity + 1); // throws

  00051	8d 47 01	 lea	 eax, DWORD PTR [edi+1]
  00054	8b ce		 mov	 ecx, esi
  00056	50		 push	 eax
  00057	e8 00 00 00 00	 call	 ?allocate@?$allocator@D@std@@QAEPADI@Z ; std::allocator<char>::allocate
  0005c	8b d8		 mov	 ebx, eax

; 3933 : 		_My_data._Orphan_all();
; 3934 : 		_My_data._Mysize = _New_size;
; 3935 : 		_My_data._Myres = _New_capacity;

  0005e	89 7e 14	 mov	 DWORD PTR [esi+20], edi
  00061	8b 44 24 10	 mov	 eax, DWORD PTR __New_size$1$[esp+20]
  00065	89 46 10	 mov	 DWORD PTR [esi+16], eax

; 3936 : 		_Elem * const _Raw_new = _Unfancy(_New_ptr);

  00068	0f be 44 24 24	 movsx	 eax, BYTE PTR _<_Args_1>$[esp+16]
  0006d	89 44 24 24	 mov	 DWORD PTR tv483[esp+16], eax
  00071	8d 3c 2b	 lea	 edi, DWORD PTR [ebx+ebp]
  00074	8b 44 24 20	 mov	 eax, DWORD PTR _<_Args_0>$[esp+16]
  00078	03 c7		 add	 eax, edi

; 3937 : 		if (this->_BUF_SIZE <= _Old_capacity)

  0007a	83 7c 24 18 10	 cmp	 DWORD PTR __Old$1$[esp+16], 16 ; 00000010H
  0007f	89 44 24 10	 mov	 DWORD PTR tv481[esp+20], eax
  00083	55		 push	 ebp
  00084	72 59		 jb	 SHORT $LN3@Reallocate

; 3938 : 			{
; 3939 : 			const pointer _Old_ptr = _My_data._Bx._Ptr;

  00086	8b 3e		 mov	 edi, DWORD PTR [esi]
; File c:\program files (x86)\microsoft visual studio\2017\community\vc\tools\msvc\14.15.26726\include\iosfwd

; 471  : 		return (static_cast<char *>(_CSTD memcpy(_First1, _First2, _Count)));

  00088	57		 push	 edi
  00089	53		 push	 ebx
  0008a	e8 00 00 00 00	 call	 _memcpy

; 501  : 		return (static_cast<char *>(_CSTD memset(_First, _Ch, _Count)));

  0008f	ff 74 24 2c	 push	 DWORD PTR _<_Args_0>$[esp+28]
  00093	8d 04 2b	 lea	 eax, DWORD PTR [ebx+ebp]
  00096	ff 74 24 34	 push	 DWORD PTR tv483[esp+32]
  0009a	50		 push	 eax
  0009b	e8 00 00 00 00	 call	 _memset

; 506  : 		_Left = _Right;

  000a0	8b 44 24 28	 mov	 eax, DWORD PTR tv481[esp+44]

; 501  : 		return (static_cast<char *>(_CSTD memset(_First, _Ch, _Count)));

  000a4	83 c4 18	 add	 esp, 24			; 00000018H
; File c:\program files (x86)\microsoft visual studio\2017\community\vc\tools\msvc\14.15.26726\include\xstring

; 3941 : 			_Al.deallocate(_Old_ptr, _Old_capacity + 1);

  000a7	8b 4c 24 18	 mov	 ecx, DWORD PTR __Old$1$[esp+16]
  000ab	41		 inc	 ecx
; File c:\program files (x86)\microsoft visual studio\2017\community\vc\tools\msvc\14.15.26726\include\iosfwd

; 506  : 		_Left = _Right;

  000ac	c6 00 00	 mov	 BYTE PTR [eax], 0
; File c:\program files (x86)\microsoft visual studio\2017\community\vc\tools\msvc\14.15.26726\include\xmemory0

; 201  : 	if (_Bytes >= _Big_allocation_threshold)

  000af	81 f9 00 10 00
	00		 cmp	 ecx, 4096		; 00001000H
  000b5	72 12		 jb	 SHORT $LN80@Reallocate

; 118  : 	const uintptr_t _Ptr_container = _Ptr_user[-1];

  000b7	8b 57 fc	 mov	 edx, DWORD PTR [edi-4]
  000ba	83 c1 23	 add	 ecx, 35			; 00000023H

; 119  : 
; 120  : 	// If the following asserts, it likely means that we are performing
; 121  : 	// an aligned delete on memory coming from an unaligned allocation.
; 122  : 	_STL_ASSERT(_Ptr_user[-2] == _Big_allocation_sentinel, "invalid argument");
; 123  : 
; 124  : 	// Extra paranoia on aligned allocation/deallocation; ensure _Ptr_container is
; 125  : 	// in range [_Min_back_shift, _Non_user_size]
; 126  :   #ifdef _DEBUG
; 127  : 	constexpr uintptr_t _Min_back_shift = 2 * sizeof(void *);
; 128  :   #else /* ^^^ _DEBUG ^^^ // vvv !_DEBUG vvv */
; 129  : 	constexpr uintptr_t _Min_back_shift = sizeof(void *);
; 130  :   #endif /* _DEBUG */
; 131  : 	const uintptr_t _Back_shift = reinterpret_cast<uintptr_t>(_Ptr) - _Ptr_container;

  000bd	2b fa		 sub	 edi, edx

; 132  : 	_STL_VERIFY(_Back_shift >= _Min_back_shift && _Back_shift <= _Non_user_size, "invalid argument");

  000bf	8d 47 fc	 lea	 eax, DWORD PTR [edi-4]
  000c2	83 f8 1f	 cmp	 eax, 31			; 0000001fH
  000c5	77 48		 ja	 SHORT $LN77@Reallocate

; 133  : 	_Ptr = reinterpret_cast<void *>(_Ptr_container);

  000c7	8b fa		 mov	 edi, edx
$LN80@Reallocate:

; 207  : 	::operator delete(_Ptr, _Bytes);

  000c9	51		 push	 ecx
  000ca	57		 push	 edi
  000cb	e8 00 00 00 00	 call	 ??3@YAXPAXI@Z		; operator delete
  000d0	83 c4 08	 add	 esp, 8
; File c:\program files (x86)\microsoft visual studio\2017\community\vc\tools\msvc\14.15.26726\include\xstring

; 3950 : 		return (*this);

  000d3	89 1e		 mov	 DWORD PTR [esi], ebx
  000d5	8b c6		 mov	 eax, esi
  000d7	5b		 pop	 ebx
  000d8	5f		 pop	 edi
  000d9	5e		 pop	 esi

; 3951 : 		}

  000da	5d		 pop	 ebp
  000db	59		 pop	 ecx
  000dc	c2 10 00	 ret	 16			; 00000010H
$LN3@Reallocate:
; File c:\program files (x86)\microsoft visual studio\2017\community\vc\tools\msvc\14.15.26726\include\iosfwd

; 471  : 		return (static_cast<char *>(_CSTD memcpy(_First1, _First2, _Count)));

  000df	56		 push	 esi
  000e0	53		 push	 ebx
  000e1	e8 00 00 00 00	 call	 _memcpy

; 501  : 		return (static_cast<char *>(_CSTD memset(_First, _Ch, _Count)));

  000e6	ff 74 24 2c	 push	 DWORD PTR _<_Args_0>$[esp+28]
  000ea	ff 74 24 34	 push	 DWORD PTR tv483[esp+32]
  000ee	57		 push	 edi
  000ef	e8 00 00 00 00	 call	 _memset

; 506  : 		_Left = _Right;

  000f4	8b 44 24 28	 mov	 eax, DWORD PTR tv481[esp+44]

; 501  : 		return (static_cast<char *>(_CSTD memset(_First, _Ch, _Count)));

  000f8	83 c4 18	 add	 esp, 24			; 00000018H

; 506  : 		_Left = _Right;

  000fb	c6 00 00	 mov	 BYTE PTR [eax], 0
; File c:\program files (x86)\microsoft visual studio\2017\community\vc\tools\msvc\14.15.26726\include\xstring

; 3950 : 		return (*this);

  000fe	8b c6		 mov	 eax, esi
  00100	89 1e		 mov	 DWORD PTR [esi], ebx
  00102	5b		 pop	 ebx
  00103	5f		 pop	 edi
  00104	5e		 pop	 esi

; 3951 : 		}

  00105	5d		 pop	 ebp
  00106	59		 pop	 ecx
  00107	c2 10 00	 ret	 16			; 00000010H
$LN105@Reallocate:

; 3924 : 			{
; 3925 : 			_Xlen();	// result too long

  0010a	e8 00 00 00 00	 call	 ?_Xlen@?$basic_string@DU?$char_traits@D@std@@V?$allocator@D@2@@std@@SAXXZ ; std::basic_string<char,std::char_traits<char>,std::allocator<char> >::_Xlen
$LN77@Reallocate:
; File c:\program files (x86)\microsoft visual studio\2017\community\vc\tools\msvc\14.15.26726\include\xmemory0

; 132  : 	_STL_VERIFY(_Back_shift >= _Min_back_shift && _Back_shift <= _Non_user_size, "invalid argument");

  0010f	e8 00 00 00 00	 call	 __invalid_parameter_noinfo_noreturn
$LN106@Reallocate:
$LN102@Reallocate:
  00114	cc		 int	 3
??$_Reallocate_grow_by@V<lambda_c1b8c41cb4019640539cfd828748c4d4>@@ID@?$basic_string@DU?$char_traits@D@std@@V?$allocator@D@2@@std@@QAEAAV01@IV<lambda_c1b8c41cb4019640539cfd828748c4d4>@@ID@Z ENDP ; std::basic_string<char,std::char_traits<char>,std::allocator<char> >::_Reallocate_grow_by<<lambda_c1b8c41cb4019640539cfd828748c4d4>,unsigned int,char>
_TEXT	ENDS
; Function compile flags: /Ogtpy
; File c:\program files (x86)\microsoft visual studio\2017\community\vc\tools\msvc\14.15.26726\include\xstring
; File c:\program files (x86)\microsoft visual studio\2017\community\vc\tools\msvc\14.15.26726\include\iosfwd
; File c:\program files (x86)\microsoft visual studio\2017\community\vc\tools\msvc\14.15.26726\include\xstring
; File c:\program files (x86)\microsoft visual studio\2017\community\vc\tools\msvc\14.15.26726\include\iosfwd
; File c:\program files (x86)\microsoft visual studio\2017\community\vc\tools\msvc\14.15.26726\include\xstring
; File c:\program files (x86)\microsoft visual studio\2017\community\vc\tools\msvc\14.15.26726\include\iosfwd
; File c:\program files (x86)\microsoft visual studio\2017\community\vc\tools\msvc\14.15.26726\include\xstring
;	COMDAT ??R<lambda_c1b8c41cb4019640539cfd828748c4d4>@@QBEXQADQBDIID@Z
_TEXT	SEGMENT
__New_ptr$ = 8						; size = 4
__Old_ptr$ = 12						; size = 4
__Old_size$ = 16					; size = 4
__Count$ = 20						; size = 4
__Ch$ = 24						; size = 1
??R<lambda_c1b8c41cb4019640539cfd828748c4d4>@@QBEXQADQBDIID@Z PROC ; <lambda_c1b8c41cb4019640539cfd828748c4d4>::operator(), COMDAT
; _this$ = ecx

; 2610 : 				const size_type _Count, const _Elem _Ch) {

  00000	56		 push	 esi
; File c:\program files (x86)\microsoft visual studio\2017\community\vc\tools\msvc\14.15.26726\include\iosfwd

; 471  : 		return (static_cast<char *>(_CSTD memcpy(_First1, _First2, _Count)));

  00001	8b 74 24 08	 mov	 esi, DWORD PTR __New_ptr$[esp]
; File c:\program files (x86)\microsoft visual studio\2017\community\vc\tools\msvc\14.15.26726\include\xstring

; 2610 : 				const size_type _Count, const _Elem _Ch) {

  00005	57		 push	 edi
; File c:\program files (x86)\microsoft visual studio\2017\community\vc\tools\msvc\14.15.26726\include\iosfwd

; 471  : 		return (static_cast<char *>(_CSTD memcpy(_First1, _First2, _Count)));

  00006	8b 7c 24 14	 mov	 edi, DWORD PTR __Old_size$[esp+4]
  0000a	57		 push	 edi
  0000b	ff 74 24 14	 push	 DWORD PTR __Old_ptr$[esp+8]
  0000f	56		 push	 esi
  00010	e8 00 00 00 00	 call	 _memcpy

; 501  : 		return (static_cast<char *>(_CSTD memset(_First, _Ch, _Count)));

  00015	0f be 44 24 28	 movsx	 eax, BYTE PTR __Ch$[esp+16]
; File c:\program files (x86)\microsoft visual studio\2017\community\vc\tools\msvc\14.15.26726\include\xstring

; 2612 : 			_Traits::assign(_New_ptr + _Old_size, _Count, _Ch);

  0001a	03 fe		 add	 edi, esi
; File c:\program files (x86)\microsoft visual studio\2017\community\vc\tools\msvc\14.15.26726\include\iosfwd

; 501  : 		return (static_cast<char *>(_CSTD memset(_First, _Ch, _Count)));

  0001c	8b 74 24 24	 mov	 esi, DWORD PTR __Count$[esp+16]
  00020	56		 push	 esi
  00021	50		 push	 eax
  00022	57		 push	 edi
  00023	e8 00 00 00 00	 call	 _memset
  00028	83 c4 18	 add	 esp, 24			; 00000018H

; 506  : 		_Left = _Right;

  0002b	c6 04 37 00	 mov	 BYTE PTR [edi+esi], 0
  0002f	5f		 pop	 edi
  00030	5e		 pop	 esi
; File c:\program files (x86)\microsoft visual studio\2017\community\vc\tools\msvc\14.15.26726\include\xstring

; 2614 : 			}, _Count, _Ch));

  00031	c2 14 00	 ret	 20			; 00000014H
??R<lambda_c1b8c41cb4019640539cfd828748c4d4>@@QBEXQADQBDIID@Z ENDP ; <lambda_c1b8c41cb4019640539cfd828748c4d4>::operator()
_TEXT	ENDS
; Function compile flags: /Ogtpy
; File c:\program files (x86)\microsoft visual studio\2017\community\vc\tools\msvc\14.15.26726\include\xstring
; File c:\program files (x86)\microsoft visual studio\2017\community\vc\tools\msvc\14.15.26726\include\utility
; File c:\program files (x86)\microsoft visual studio\2017\community\vc\tools\msvc\14.15.26726\include\xstring
; File c:\program files (x86)\microsoft visual studio\2017\community\vc\tools\msvc\14.15.26726\include\iosfwd
; File c:\program files (x86)\microsoft visual studio\2017\community\vc\tools\msvc\14.15.26726\include\xstring
; File c:\program files (x86)\microsoft visual studio\2017\community\vc\tools\msvc\14.15.26726\include\iosfwd
; File c:\program files (x86)\microsoft visual studio\2017\community\vc\tools\msvc\14.15.26726\include\xstring
; File c:\program files (x86)\microsoft visual studio\2017\community\vc\tools\msvc\14.15.26726\include\iosfwd
; File c:\program files (x86)\microsoft visual studio\2017\community\vc\tools\msvc\14.15.26726\include\xstring
; File c:\program files (x86)\microsoft visual studio\2017\community\vc\tools\msvc\14.15.26726\include\xmemory0
; File c:\program files (x86)\microsoft visual studio\2017\community\vc\tools\msvc\14.15.26726\include\xstring
; File c:\program files (x86)\microsoft visual studio\2017\community\vc\tools\msvc\14.15.26726\include\xmemory0
; File c:\program files (x86)\microsoft visual studio\2017\community\vc\tools\msvc\14.15.26726\include\xstring
; File c:\program files (x86)\microsoft visual studio\2017\community\vc\tools\msvc\14.15.26726\include\xmemory0
; File c:\program files (x86)\microsoft visual studio\2017\community\vc\tools\msvc\14.15.26726\include\xstring
;	COMDAT ??$_Reallocate_for@V<lambda_c6753c90be971fc9cc00b4f35f237a75>@@D@?$basic_string@DU?$char_traits@D@std@@V?$allocator@D@2@@std@@QAEAAV01@IV<lambda_c6753c90be971fc9cc00b4f35f237a75>@@D@Z
_TEXT	SEGMENT
__New_ptr$1$ = 8					; size = 4
__New_size$ = 8						; size = 4
__Fn$ = 12						; size = 1
_<_Args_0>$ = 16					; size = 1
??$_Reallocate_for@V<lambda_c6753c90be971fc9cc00b4f35f237a75>@@D@?$basic_string@DU?$char_traits@D@std@@V?$allocator@D@2@@std@@QAEAAV01@IV<lambda_c6753c90be971fc9cc00b4f35f237a75>@@D@Z PROC ; std::basic_string<char,std::char_traits<char>,std::allocator<char> >::_Reallocate_for<<lambda_c6753c90be971fc9cc00b4f35f237a75>,char>, COMDAT
; _this$ = ecx

; 3887 : 		{	// reallocate to store exactly _New_size elements, new buffer prepared by

  00000	53		 push	 ebx

; 3888 : 			// _Fn(_New_ptr, _New_size, _Args...)
; 3889 : 		if (_New_size > max_size())

  00001	8b 5c 24 08	 mov	 ebx, DWORD PTR __New_size$[esp]
  00005	57		 push	 edi
  00006	8b f9		 mov	 edi, ecx
  00008	81 fb ff ff ff
	7f		 cmp	 ebx, 2147483647		; 7fffffffH
  0000e	0f 87 a0 00 00
	00		 ja	 $LN92@Reallocate

; 3892 : 			}
; 3893 : 
; 3894 : 		auto& _My_data = this->_Get_data();
; 3895 : 		const size_type _Old_capacity = _My_data._Myres;

  00014	55		 push	 ebp
  00015	8b 6f 14	 mov	 ebp, DWORD PTR [edi+20]
  00018	56		 push	 esi

; 3869 : 		const size_type _Masked = _Requested | this->_ALLOC_MASK;

  00019	8b f3		 mov	 esi, ebx
  0001b	83 ce 0f	 or	 esi, 15			; 0000000fH
  0001e	81 fe ff ff ff
	7f		 cmp	 esi, 2147483647		; 7fffffffH

; 3870 : 		if (_Masked > _Max)

  00024	76 07		 jbe	 SHORT $LN25@Reallocate

; 3871 : 			{	// the mask overflows, settle for max_size()
; 3872 : 			return (_Max);

  00026	be ff ff ff 7f	 mov	 esi, 2147483647		; 7fffffffH
  0002b	eb 1e		 jmp	 SHORT $LN24@Reallocate
$LN25@Reallocate:

; 3873 : 			}
; 3874 : 
; 3875 : 		const size_type _Old = _My_data._Myres;
; 3876 : 		if (_Old > _Max - _Old / 2)

  0002d	8b cd		 mov	 ecx, ebp
  0002f	b8 ff ff ff 7f	 mov	 eax, 2147483647		; 7fffffffH
  00034	d1 e9		 shr	 ecx, 1
  00036	2b c1		 sub	 eax, ecx
  00038	3b e8		 cmp	 ebp, eax
  0003a	76 07		 jbe	 SHORT $LN26@Reallocate

; 3877 : 			{	// similarly, geometric overflows
; 3878 : 			return (_Max);

  0003c	be ff ff ff 7f	 mov	 esi, 2147483647		; 7fffffffH
  00041	eb 08		 jmp	 SHORT $LN24@Reallocate
$LN26@Reallocate:

; 3879 : 			}
; 3880 : 
; 3881 : 		return (_Max_value(_Masked, _Old + _Old / 2));

  00043	8d 04 29	 lea	 eax, DWORD PTR [ecx+ebp]
; File c:\program files (x86)\microsoft visual studio\2017\community\vc\tools\msvc\14.15.26726\include\utility

; 33   : 	return (_Left < _Right ? _Right : _Left);

  00046	3b f0		 cmp	 esi, eax
  00048	0f 42 f0	 cmovb	 esi, eax
$LN24@Reallocate:
; File c:\program files (x86)\microsoft visual studio\2017\community\vc\tools\msvc\14.15.26726\include\xstring

; 3898 : 		const pointer _New_ptr = _Al.allocate(_New_capacity + 1); // throws

  0004b	8d 46 01	 lea	 eax, DWORD PTR [esi+1]
  0004e	8b cf		 mov	 ecx, edi
  00050	50		 push	 eax
  00051	e8 00 00 00 00	 call	 ?allocate@?$allocator@D@std@@QAEPADI@Z ; std::allocator<char>::allocate
; File c:\program files (x86)\microsoft visual studio\2017\community\vc\tools\msvc\14.15.26726\include\iosfwd

; 501  : 		return (static_cast<char *>(_CSTD memset(_First, _Ch, _Count)));

  00056	0f be 4c 24 1c	 movsx	 ecx, BYTE PTR _<_Args_0>$[esp+12]
  0005b	53		 push	 ebx
; File c:\program files (x86)\microsoft visual studio\2017\community\vc\tools\msvc\14.15.26726\include\xstring

; 3901 : 		_My_data._Myres = _New_capacity;

  0005c	89 77 14	 mov	 DWORD PTR [edi+20], esi
; File c:\program files (x86)\microsoft visual studio\2017\community\vc\tools\msvc\14.15.26726\include\iosfwd

; 501  : 		return (static_cast<char *>(_CSTD memset(_First, _Ch, _Count)));

  0005f	8b f0		 mov	 esi, eax
  00061	51		 push	 ecx
  00062	56		 push	 esi
; File c:\program files (x86)\microsoft visual studio\2017\community\vc\tools\msvc\14.15.26726\include\xstring

; 3898 : 		const pointer _New_ptr = _Al.allocate(_New_capacity + 1); // throws

  00063	89 44 24 20	 mov	 DWORD PTR __New_ptr$1$[esp+24], eax

; 3899 : 		_My_data._Orphan_all();
; 3900 : 		_My_data._Mysize = _New_size;

  00067	89 5f 10	 mov	 DWORD PTR [edi+16], ebx
; File c:\program files (x86)\microsoft visual studio\2017\community\vc\tools\msvc\14.15.26726\include\iosfwd

; 501  : 		return (static_cast<char *>(_CSTD memset(_First, _Ch, _Count)));

  0006a	e8 00 00 00 00	 call	 _memset
  0006f	83 c4 0c	 add	 esp, 12			; 0000000cH

; 506  : 		_Left = _Right;

  00072	c6 04 1e 00	 mov	 BYTE PTR [esi+ebx], 0
; File c:\program files (x86)\microsoft visual studio\2017\community\vc\tools\msvc\14.15.26726\include\xstring

; 3903 : 		if (this->_BUF_SIZE <= _Old_capacity)

  00076	83 fd 10	 cmp	 ebp, 16			; 00000010H
  00079	72 29		 jb	 SHORT $LN3@Reallocate
; File c:\program files (x86)\microsoft visual studio\2017\community\vc\tools\msvc\14.15.26726\include\xmemory0

; 992  : 		_Deallocate<_New_alignof<_Ty>>(_Ptr, sizeof(_Ty) * _Count);

  0007b	8b 07		 mov	 eax, DWORD PTR [edi]
; File c:\program files (x86)\microsoft visual studio\2017\community\vc\tools\msvc\14.15.26726\include\xstring

; 3905 : 			_Al.deallocate(_My_data._Bx._Ptr, _Old_capacity + 1);

  0007d	8d 4d 01	 lea	 ecx, DWORD PTR [ebp+1]
; File c:\program files (x86)\microsoft visual studio\2017\community\vc\tools\msvc\14.15.26726\include\xmemory0

; 201  : 	if (_Bytes >= _Big_allocation_threshold)

  00080	81 f9 00 10 00
	00		 cmp	 ecx, 4096		; 00001000H
  00086	72 12		 jb	 SHORT $LN76@Reallocate

; 118  : 	const uintptr_t _Ptr_container = _Ptr_user[-1];

  00088	8b 50 fc	 mov	 edx, DWORD PTR [eax-4]
  0008b	83 c1 23	 add	 ecx, 35			; 00000023H

; 119  : 
; 120  : 	// If the following asserts, it likely means that we are performing
; 121  : 	// an aligned delete on memory coming from an unaligned allocation.
; 122  : 	_STL_ASSERT(_Ptr_user[-2] == _Big_allocation_sentinel, "invalid argument");
; 123  : 
; 124  : 	// Extra paranoia on aligned allocation/deallocation; ensure _Ptr_container is
; 125  : 	// in range [_Min_back_shift, _Non_user_size]
; 126  :   #ifdef _DEBUG
; 127  : 	constexpr uintptr_t _Min_back_shift = 2 * sizeof(void *);
; 128  :   #else /* ^^^ _DEBUG ^^^ // vvv !_DEBUG vvv */
; 129  : 	constexpr uintptr_t _Min_back_shift = sizeof(void *);
; 130  :   #endif /* _DEBUG */
; 131  : 	const uintptr_t _Back_shift = reinterpret_cast<uintptr_t>(_Ptr) - _Ptr_container;

  0008e	2b c2		 sub	 eax, edx

; 132  : 	_STL_VERIFY(_Back_shift >= _Min_back_shift && _Back_shift <= _Non_user_size, "invalid argument");

  00090	83 c0 fc	 add	 eax, -4			; fffffffcH
  00093	83 f8 1f	 cmp	 eax, 31			; 0000001fH
  00096	77 17		 ja	 SHORT $LN73@Reallocate

; 133  : 	_Ptr = reinterpret_cast<void *>(_Ptr_container);

  00098	8b c2		 mov	 eax, edx
$LN76@Reallocate:

; 207  : 	::operator delete(_Ptr, _Bytes);

  0009a	51		 push	 ecx
  0009b	50		 push	 eax
  0009c	e8 00 00 00 00	 call	 ??3@YAXPAXI@Z		; operator delete
  000a1	83 c4 08	 add	 esp, 8
$LN3@Reallocate:
; File c:\program files (x86)\microsoft visual studio\2017\community\vc\tools\msvc\14.15.26726\include\xstring

; 3913 : 		return (*this);

  000a4	89 37		 mov	 DWORD PTR [edi], esi
  000a6	8b c7		 mov	 eax, edi
  000a8	5e		 pop	 esi
  000a9	5d		 pop	 ebp
  000aa	5f		 pop	 edi

; 3914 : 		}

  000ab	5b		 pop	 ebx
  000ac	c2 0c 00	 ret	 12			; 0000000cH
$LN73@Reallocate:
; File c:\program files (x86)\microsoft visual studio\2017\community\vc\tools\msvc\14.15.26726\include\xmemory0

; 132  : 	_STL_VERIFY(_Back_shift >= _Min_back_shift && _Back_shift <= _Non_user_size, "invalid argument");

  000af	e8 00 00 00 00	 call	 __invalid_parameter_noinfo_noreturn
$LN93@Reallocate:
$LN92@Reallocate:
