; Listing generated by Microsoft (R) Optimizing Compiler Version 19.15.26726.0 

	TITLE	c:\Dev\Tetris\src\graphics\graphics.cpp
	.686P
	.XMM
	include listing.inc
	.model	flat

INCLUDELIB LIBCMT
INCLUDELIB OLDNAMES

PUBLIC	?s_instance@Graphics@graphics@core@@0PAV123@A	; core::graphics::Graphics::s_instance
_BSS	SEGMENT
?s_instance@Graphics@graphics@core@@0PAV123@A DD 01H DUP (?) ; core::graphics::Graphics::s_instance
_BSS	ENDS
PUBLIC	??0Graphics@graphics@core@@AAE@XZ		; core::graphics::Graphics::Graphics
PUBLIC	?Instance@Graphics@graphics@core@@SAPAV123@XZ	; core::graphics::Graphics::Instance
PUBLIC	?DrawFillRect@Graphics@graphics@core@@QAEXHHHHVColor@3@@Z ; core::graphics::Graphics::DrawFillRect
PUBLIC	?DrawRect@Graphics@graphics@core@@QAEXHHHHVColor@3@@Z ; core::graphics::Graphics::DrawRect
PUBLIC	?DrawText@Graphics@graphics@core@@QAEXPAU_TTF_Font@@PBDHHW4TextAlign@23@VColor@3@@Z ; core::graphics::Graphics::DrawText
EXTRN	??2@YAPAXI@Z:PROC				; operator new
EXTRN	??3@YAXPAXI@Z:PROC				; operator delete
EXTRN	_SDL_FreeSurface:PROC
EXTRN	_SDL_CreateTextureFromSurface:PROC
EXTRN	_SDL_SetRenderDrawColor:PROC
EXTRN	_SDL_RenderDrawRect:PROC
EXTRN	_SDL_RenderFillRect:PROC
EXTRN	_SDL_RenderCopy:PROC
EXTRN	_SDL_DestroyTexture:PROC
EXTRN	_TTF_RenderText_Blended:PROC
EXTRN	@__security_check_cookie@4:PROC
EXTRN	___CxxFrameHandler3:PROC
EXTRN	___security_cookie:DWORD
xdata$x	SEGMENT
__unwindtable$?Instance@Graphics@graphics@core@@SAPAV123@XZ DD 0ffffffffH
	DD	FLAT:__unwindfunclet$?Instance@Graphics@graphics@core@@SAPAV123@XZ$0
__ehfuncinfo$?Instance@Graphics@graphics@core@@SAPAV123@XZ DD 019930522H
	DD	01H
	DD	FLAT:__unwindtable$?Instance@Graphics@graphics@core@@SAPAV123@XZ
	DD	2 DUP(00H)
	DD	2 DUP(00H)
	DD	00H
	DD	01H
xdata$x	ENDS
; Function compile flags: /Odtp
; File c:\dev\tetris\src\graphics\graphics.cpp
_TEXT	SEGMENT
_textTexture$ = -40					; size = 4
_this$ = -36						; size = 4
tv77 = -32						; size = 4
_color$ = -28						; size = 4
_textSurface$ = -24					; size = 4
_destRect$ = -20					; size = 16
__$ArrayPad$ = -4					; size = 4
_t_font$ = 8						; size = 4
_t_text$ = 12						; size = 4
_t_x$ = 16						; size = 4
_t_y$ = 20						; size = 4
_t_alignment$ = 24					; size = 4
_t_color$ = 28						; size = 4
?DrawText@Graphics@graphics@core@@QAEXPAU_TTF_Font@@PBDHHW4TextAlign@23@VColor@3@@Z PROC ; core::graphics::Graphics::DrawText
; _this$ = ecx

; 34   : {

  00000	55		 push	 ebp
  00001	8b ec		 mov	 ebp, esp
  00003	83 ec 28	 sub	 esp, 40			; 00000028H
  00006	a1 00 00 00 00	 mov	 eax, DWORD PTR ___security_cookie
  0000b	33 c5		 xor	 eax, ebp
  0000d	89 45 fc	 mov	 DWORD PTR __$ArrayPad$[ebp], eax
  00010	89 4d dc	 mov	 DWORD PTR _this$[ebp], ecx

; 35   :     SDL_Color color = { t_color.r, t_color.g, t_color.b };

  00013	8a 45 1c	 mov	 al, BYTE PTR _t_color$[ebp]
  00016	88 45 e4	 mov	 BYTE PTR _color$[ebp], al
  00019	8a 4d 1d	 mov	 cl, BYTE PTR _t_color$[ebp+1]
  0001c	88 4d e5	 mov	 BYTE PTR _color$[ebp+1], cl
  0001f	8a 55 1e	 mov	 dl, BYTE PTR _t_color$[ebp+2]
  00022	88 55 e6	 mov	 BYTE PTR _color$[ebp+2], dl
  00025	33 c0		 xor	 eax, eax
  00027	88 45 e7	 mov	 BYTE PTR _color$[ebp+3], al

; 36   :     SDL_Surface *textSurface = TTF_RenderText_Blended(t_font, t_text, color);

  0002a	8b 4d e4	 mov	 ecx, DWORD PTR _color$[ebp]
  0002d	51		 push	 ecx
  0002e	8b 55 0c	 mov	 edx, DWORD PTR _t_text$[ebp]
  00031	52		 push	 edx
  00032	8b 45 08	 mov	 eax, DWORD PTR _t_font$[ebp]
  00035	50		 push	 eax
  00036	e8 00 00 00 00	 call	 _TTF_RenderText_Blended
  0003b	83 c4 0c	 add	 esp, 12			; 0000000cH
  0003e	89 45 e8	 mov	 DWORD PTR _textSurface$[ebp], eax

; 37   :     SDL_Texture *textTexture = SDL_CreateTextureFromSurface(m_renderer, textSurface);

  00041	8b 4d e8	 mov	 ecx, DWORD PTR _textSurface$[ebp]
  00044	51		 push	 ecx
  00045	8b 55 dc	 mov	 edx, DWORD PTR _this$[ebp]
  00048	8b 02		 mov	 eax, DWORD PTR [edx]
  0004a	50		 push	 eax
  0004b	e8 00 00 00 00	 call	 _SDL_CreateTextureFromSurface
  00050	83 c4 08	 add	 esp, 8
  00053	89 45 d8	 mov	 DWORD PTR _textTexture$[ebp], eax

; 38   :     
; 39   :     SDL_Rect destRect = { t_x, t_y, textSurface->w, textSurface->h };

  00056	8b 4d 10	 mov	 ecx, DWORD PTR _t_x$[ebp]
  00059	89 4d ec	 mov	 DWORD PTR _destRect$[ebp], ecx
  0005c	8b 55 14	 mov	 edx, DWORD PTR _t_y$[ebp]
  0005f	89 55 f0	 mov	 DWORD PTR _destRect$[ebp+4], edx
  00062	8b 45 e8	 mov	 eax, DWORD PTR _textSurface$[ebp]
  00065	8b 48 08	 mov	 ecx, DWORD PTR [eax+8]
  00068	89 4d f4	 mov	 DWORD PTR _destRect$[ebp+8], ecx
  0006b	8b 55 e8	 mov	 edx, DWORD PTR _textSurface$[ebp]
  0006e	8b 42 0c	 mov	 eax, DWORD PTR [edx+12]
  00071	89 45 f8	 mov	 DWORD PTR _destRect$[ebp+12], eax

; 40   :     
; 41   :     switch (t_alignment)

  00074	8b 4d 18	 mov	 ecx, DWORD PTR _t_alignment$[ebp]
  00077	89 4d e0	 mov	 DWORD PTR tv77[ebp], ecx
  0007a	83 7d e0 00	 cmp	 DWORD PTR tv77[ebp], 0
  0007e	74 0e		 je	 SHORT $LN4@DrawText
  00080	83 7d e0 01	 cmp	 DWORD PTR tv77[ebp], 1
  00084	74 10		 je	 SHORT $LN5@DrawText
  00086	83 7d e0 02	 cmp	 DWORD PTR tv77[ebp], 2
  0008a	74 1f		 je	 SHORT $LN6@DrawText
  0008c	eb 29		 jmp	 SHORT $LN2@DrawText
$LN4@DrawText:

; 42   :     {
; 43   :         case TEXT_ALIGN_LEFT:
; 44   :         {
; 45   :             destRect.x = t_x;

  0008e	8b 55 10	 mov	 edx, DWORD PTR _t_x$[ebp]
  00091	89 55 ec	 mov	 DWORD PTR _destRect$[ebp], edx

; 46   :         } break;

  00094	eb 21		 jmp	 SHORT $LN2@DrawText
$LN5@DrawText:

; 47   :         
; 48   :         case TEXT_ALIGN_CENTER:
; 49   :         {
; 50   :             destRect.x = t_x - textSurface->w / 2;

  00096	8b 45 e8	 mov	 eax, DWORD PTR _textSurface$[ebp]
  00099	8b 40 08	 mov	 eax, DWORD PTR [eax+8]
  0009c	99		 cdq
  0009d	2b c2		 sub	 eax, edx
  0009f	d1 f8		 sar	 eax, 1
  000a1	8b 4d 10	 mov	 ecx, DWORD PTR _t_x$[ebp]
  000a4	2b c8		 sub	 ecx, eax
  000a6	89 4d ec	 mov	 DWORD PTR _destRect$[ebp], ecx

; 51   :         } break;

  000a9	eb 0c		 jmp	 SHORT $LN2@DrawText
$LN6@DrawText:

; 52   :         
; 53   :         case TEXT_ALIGN_RIGHT:
; 54   :         {
; 55   :             destRect.x = t_x - textSurface->w;

  000ab	8b 55 e8	 mov	 edx, DWORD PTR _textSurface$[ebp]
  000ae	8b 45 10	 mov	 eax, DWORD PTR _t_x$[ebp]
  000b1	2b 42 08	 sub	 eax, DWORD PTR [edx+8]
  000b4	89 45 ec	 mov	 DWORD PTR _destRect$[ebp], eax
$LN2@DrawText:

; 56   :         } break;
; 57   :     }
; 58   :     
; 59   :     SDL_RenderCopy(m_renderer, textTexture, 0, &destRect);

  000b7	8d 4d ec	 lea	 ecx, DWORD PTR _destRect$[ebp]
  000ba	51		 push	 ecx
  000bb	6a 00		 push	 0
  000bd	8b 55 d8	 mov	 edx, DWORD PTR _textTexture$[ebp]
  000c0	52		 push	 edx
  000c1	8b 45 dc	 mov	 eax, DWORD PTR _this$[ebp]
  000c4	8b 08		 mov	 ecx, DWORD PTR [eax]
  000c6	51		 push	 ecx
  000c7	e8 00 00 00 00	 call	 _SDL_RenderCopy
  000cc	83 c4 10	 add	 esp, 16			; 00000010H

; 60   :     
; 61   :     SDL_FreeSurface(textSurface);

  000cf	8b 55 e8	 mov	 edx, DWORD PTR _textSurface$[ebp]
  000d2	52		 push	 edx
  000d3	e8 00 00 00 00	 call	 _SDL_FreeSurface
  000d8	83 c4 04	 add	 esp, 4

; 62   :     SDL_DestroyTexture(textTexture);

  000db	8b 45 d8	 mov	 eax, DWORD PTR _textTexture$[ebp]
  000de	50		 push	 eax
  000df	e8 00 00 00 00	 call	 _SDL_DestroyTexture
  000e4	83 c4 04	 add	 esp, 4

; 63   : }

  000e7	8b 4d fc	 mov	 ecx, DWORD PTR __$ArrayPad$[ebp]
  000ea	33 cd		 xor	 ecx, ebp
  000ec	e8 00 00 00 00	 call	 @__security_check_cookie@4
  000f1	8b e5		 mov	 esp, ebp
  000f3	5d		 pop	 ebp
  000f4	c2 18 00	 ret	 24			; 00000018H
?DrawText@Graphics@graphics@core@@QAEXPAU_TTF_Font@@PBDHHW4TextAlign@23@VColor@3@@Z ENDP ; core::graphics::Graphics::DrawText
_TEXT	ENDS
; Function compile flags: /Odtp
; File c:\dev\tetris\src\graphics\graphics.cpp
_TEXT	SEGMENT
_this$ = -24						; size = 4
_rect$ = -20						; size = 16
__$ArrayPad$ = -4					; size = 4
_t_x$ = 8						; size = 4
_t_y$ = 12						; size = 4
_t_width$ = 16						; size = 4
_t_height$ = 20						; size = 4
_t_color$ = 24						; size = 4
?DrawRect@Graphics@graphics@core@@QAEXHHHHVColor@3@@Z PROC ; core::graphics::Graphics::DrawRect
; _this$ = ecx

; 26   : {

  00000	55		 push	 ebp
  00001	8b ec		 mov	 ebp, esp
  00003	83 ec 18	 sub	 esp, 24			; 00000018H
  00006	a1 00 00 00 00	 mov	 eax, DWORD PTR ___security_cookie
  0000b	33 c5		 xor	 eax, ebp
  0000d	89 45 fc	 mov	 DWORD PTR __$ArrayPad$[ebp], eax
  00010	89 4d e8	 mov	 DWORD PTR _this$[ebp], ecx

; 27   :     SDL_Rect rect = { t_x, t_y, t_width, t_height };

  00013	8b 45 08	 mov	 eax, DWORD PTR _t_x$[ebp]
  00016	89 45 ec	 mov	 DWORD PTR _rect$[ebp], eax
  00019	8b 4d 0c	 mov	 ecx, DWORD PTR _t_y$[ebp]
  0001c	89 4d f0	 mov	 DWORD PTR _rect$[ebp+4], ecx
  0001f	8b 55 10	 mov	 edx, DWORD PTR _t_width$[ebp]
  00022	89 55 f4	 mov	 DWORD PTR _rect$[ebp+8], edx
  00025	8b 45 14	 mov	 eax, DWORD PTR _t_height$[ebp]
  00028	89 45 f8	 mov	 DWORD PTR _rect$[ebp+12], eax

; 28   :     SDL_SetRenderDrawColor(m_renderer, t_color.r, t_color.g, t_color.b, t_color.a);

  0002b	0f b6 4d 1b	 movzx	 ecx, BYTE PTR _t_color$[ebp+3]
  0002f	51		 push	 ecx
  00030	0f b6 55 1a	 movzx	 edx, BYTE PTR _t_color$[ebp+2]
  00034	52		 push	 edx
  00035	0f b6 45 19	 movzx	 eax, BYTE PTR _t_color$[ebp+1]
  00039	50		 push	 eax
  0003a	0f b6 4d 18	 movzx	 ecx, BYTE PTR _t_color$[ebp]
  0003e	51		 push	 ecx
  0003f	8b 55 e8	 mov	 edx, DWORD PTR _this$[ebp]
  00042	8b 02		 mov	 eax, DWORD PTR [edx]
  00044	50		 push	 eax
  00045	e8 00 00 00 00	 call	 _SDL_SetRenderDrawColor
  0004a	83 c4 14	 add	 esp, 20			; 00000014H

; 29   :     SDL_RenderDrawRect(m_renderer, &rect);

  0004d	8d 4d ec	 lea	 ecx, DWORD PTR _rect$[ebp]
  00050	51		 push	 ecx
  00051	8b 55 e8	 mov	 edx, DWORD PTR _this$[ebp]
  00054	8b 02		 mov	 eax, DWORD PTR [edx]
  00056	50		 push	 eax
  00057	e8 00 00 00 00	 call	 _SDL_RenderDrawRect
  0005c	83 c4 08	 add	 esp, 8

; 30   : }

  0005f	8b 4d fc	 mov	 ecx, DWORD PTR __$ArrayPad$[ebp]
  00062	33 cd		 xor	 ecx, ebp
  00064	e8 00 00 00 00	 call	 @__security_check_cookie@4
  00069	8b e5		 mov	 esp, ebp
  0006b	5d		 pop	 ebp
  0006c	c2 14 00	 ret	 20			; 00000014H
?DrawRect@Graphics@graphics@core@@QAEXHHHHVColor@3@@Z ENDP ; core::graphics::Graphics::DrawRect
_TEXT	ENDS
; Function compile flags: /Odtp
; File c:\dev\tetris\src\graphics\graphics.cpp
_TEXT	SEGMENT
_this$ = -24						; size = 4
_rect$ = -20						; size = 16
__$ArrayPad$ = -4					; size = 4
_t_x$ = 8						; size = 4
_t_y$ = 12						; size = 4
_t_width$ = 16						; size = 4
_t_height$ = 20						; size = 4
_t_color$ = 24						; size = 4
?DrawFillRect@Graphics@graphics@core@@QAEXHHHHVColor@3@@Z PROC ; core::graphics::Graphics::DrawFillRect
; _this$ = ecx

; 19   : {

  00000	55		 push	 ebp
  00001	8b ec		 mov	 ebp, esp
  00003	83 ec 18	 sub	 esp, 24			; 00000018H
  00006	a1 00 00 00 00	 mov	 eax, DWORD PTR ___security_cookie
  0000b	33 c5		 xor	 eax, ebp
  0000d	89 45 fc	 mov	 DWORD PTR __$ArrayPad$[ebp], eax
  00010	89 4d e8	 mov	 DWORD PTR _this$[ebp], ecx

; 20   :     SDL_Rect rect = { t_x, t_y, t_width, t_height };

  00013	8b 45 08	 mov	 eax, DWORD PTR _t_x$[ebp]
  00016	89 45 ec	 mov	 DWORD PTR _rect$[ebp], eax
  00019	8b 4d 0c	 mov	 ecx, DWORD PTR _t_y$[ebp]
  0001c	89 4d f0	 mov	 DWORD PTR _rect$[ebp+4], ecx
  0001f	8b 55 10	 mov	 edx, DWORD PTR _t_width$[ebp]
  00022	89 55 f4	 mov	 DWORD PTR _rect$[ebp+8], edx
  00025	8b 45 14	 mov	 eax, DWORD PTR _t_height$[ebp]
  00028	89 45 f8	 mov	 DWORD PTR _rect$[ebp+12], eax

; 21   :     SDL_SetRenderDrawColor(m_renderer, t_color.r, t_color.g, t_color.b, t_color.a);

  0002b	0f b6 4d 1b	 movzx	 ecx, BYTE PTR _t_color$[ebp+3]
  0002f	51		 push	 ecx
  00030	0f b6 55 1a	 movzx	 edx, BYTE PTR _t_color$[ebp+2]
  00034	52		 push	 edx
  00035	0f b6 45 19	 movzx	 eax, BYTE PTR _t_color$[ebp+1]
  00039	50		 push	 eax
  0003a	0f b6 4d 18	 movzx	 ecx, BYTE PTR _t_color$[ebp]
  0003e	51		 push	 ecx
  0003f	8b 55 e8	 mov	 edx, DWORD PTR _this$[ebp]
  00042	8b 02		 mov	 eax, DWORD PTR [edx]
  00044	50		 push	 eax
  00045	e8 00 00 00 00	 call	 _SDL_SetRenderDrawColor
  0004a	83 c4 14	 add	 esp, 20			; 00000014H

; 22   :     SDL_RenderFillRect(m_renderer, &rect);

  0004d	8d 4d ec	 lea	 ecx, DWORD PTR _rect$[ebp]
  00050	51		 push	 ecx
  00051	8b 55 e8	 mov	 edx, DWORD PTR _this$[ebp]
  00054	8b 02		 mov	 eax, DWORD PTR [edx]
  00056	50		 push	 eax
  00057	e8 00 00 00 00	 call	 _SDL_RenderFillRect
  0005c	83 c4 08	 add	 esp, 8

; 23   : }

  0005f	8b 4d fc	 mov	 ecx, DWORD PTR __$ArrayPad$[ebp]
  00062	33 cd		 xor	 ecx, ebp
  00064	e8 00 00 00 00	 call	 @__security_check_cookie@4
  00069	8b e5		 mov	 esp, ebp
  0006b	5d		 pop	 ebp
  0006c	c2 14 00	 ret	 20			; 00000014H
?DrawFillRect@Graphics@graphics@core@@QAEXHHHHVColor@3@@Z ENDP ; core::graphics::Graphics::DrawFillRect
_TEXT	ENDS
; Function compile flags: /Odtp
; File c:\dev\tetris\src\graphics\graphics.cpp
_TEXT	SEGMENT
$T2 = -24						; size = 4
tv76 = -20						; size = 4
$T3 = -16						; size = 4
__$EHRec$ = -12						; size = 12
?Instance@Graphics@graphics@core@@SAPAV123@XZ PROC	; core::graphics::Graphics::Instance

; 9    : {

  00000	55		 push	 ebp
  00001	8b ec		 mov	 ebp, esp
  00003	6a ff		 push	 -1
  00005	68 00 00 00 00	 push	 __ehhandler$?Instance@Graphics@graphics@core@@SAPAV123@XZ
  0000a	64 a1 00 00 00
	00		 mov	 eax, DWORD PTR fs:0
  00010	50		 push	 eax
  00011	83 ec 0c	 sub	 esp, 12			; 0000000cH
  00014	a1 00 00 00 00	 mov	 eax, DWORD PTR ___security_cookie
  00019	33 c5		 xor	 eax, ebp
  0001b	50		 push	 eax
  0001c	8d 45 f4	 lea	 eax, DWORD PTR __$EHRec$[ebp]
  0001f	64 a3 00 00 00
	00		 mov	 DWORD PTR fs:0, eax

; 10   :     if (!s_instance)

  00025	83 3d 00 00 00
	00 00		 cmp	 DWORD PTR ?s_instance@Graphics@graphics@core@@0PAV123@A, 0 ; core::graphics::Graphics::s_instance
  0002c	75 44		 jne	 SHORT $LN2@Instance

; 11   :     {
; 12   :         s_instance = new Graphics();

  0002e	6a 0c		 push	 12			; 0000000cH
  00030	e8 00 00 00 00	 call	 ??2@YAPAXI@Z		; operator new
  00035	83 c4 04	 add	 esp, 4
  00038	89 45 f0	 mov	 DWORD PTR $T3[ebp], eax
  0003b	c7 45 fc 00 00
	00 00		 mov	 DWORD PTR __$EHRec$[ebp+8], 0
  00042	83 7d f0 00	 cmp	 DWORD PTR $T3[ebp], 0
  00046	74 0d		 je	 SHORT $LN4@Instance
  00048	8b 4d f0	 mov	 ecx, DWORD PTR $T3[ebp]
  0004b	e8 00 00 00 00	 call	 ??0Graphics@graphics@core@@AAE@XZ ; core::graphics::Graphics::Graphics
  00050	89 45 ec	 mov	 DWORD PTR tv76[ebp], eax
  00053	eb 07		 jmp	 SHORT $LN5@Instance
$LN4@Instance:
  00055	c7 45 ec 00 00
	00 00		 mov	 DWORD PTR tv76[ebp], 0
$LN5@Instance:
  0005c	8b 45 ec	 mov	 eax, DWORD PTR tv76[ebp]
  0005f	89 45 e8	 mov	 DWORD PTR $T2[ebp], eax
  00062	c7 45 fc ff ff
	ff ff		 mov	 DWORD PTR __$EHRec$[ebp+8], -1
  00069	8b 4d e8	 mov	 ecx, DWORD PTR $T2[ebp]
  0006c	89 0d 00 00 00
	00		 mov	 DWORD PTR ?s_instance@Graphics@graphics@core@@0PAV123@A, ecx ; core::graphics::Graphics::s_instance
$LN2@Instance:

; 13   :     }
; 14   :     
; 15   :     return s_instance;

  00072	a1 00 00 00 00	 mov	 eax, DWORD PTR ?s_instance@Graphics@graphics@core@@0PAV123@A ; core::graphics::Graphics::s_instance

; 16   : }

  00077	8b 4d f4	 mov	 ecx, DWORD PTR __$EHRec$[ebp]
  0007a	64 89 0d 00 00
	00 00		 mov	 DWORD PTR fs:0, ecx
  00081	59		 pop	 ecx
  00082	8b e5		 mov	 esp, ebp
  00084	5d		 pop	 ebp
  00085	c3		 ret	 0
_TEXT	ENDS
text$x	SEGMENT
__unwindfunclet$?Instance@Graphics@graphics@core@@SAPAV123@XZ$0:
  00000	6a 0c		 push	 12			; 0000000cH
  00002	8b 45 f0	 mov	 eax, DWORD PTR $T3[ebp]
  00005	50		 push	 eax
  00006	e8 00 00 00 00	 call	 ??3@YAXPAXI@Z		; operator delete
  0000b	83 c4 08	 add	 esp, 8
  0000e	c3		 ret	 0
__ehhandler$?Instance@Graphics@graphics@core@@SAPAV123@XZ:
  0000f	8b 54 24 08	 mov	 edx, DWORD PTR [esp+8]
  00013	8d 42 0c	 lea	 eax, DWORD PTR [edx+12]
  00016	8b 4a f0	 mov	 ecx, DWORD PTR [edx-16]
  00019	33 c8		 xor	 ecx, eax
  0001b	e8 00 00 00 00	 call	 @__security_check_cookie@4
  00020	b8 00 00 00 00	 mov	 eax, OFFSET __ehfuncinfo$?Instance@Graphics@graphics@core@@SAPAV123@XZ
  00025	e9 00 00 00 00	 jmp	 ___CxxFrameHandler3
text$x	ENDS
?Instance@Graphics@graphics@core@@SAPAV123@XZ ENDP	; core::graphics::Graphics::Instance
; Function compile flags: /Odtp
; File c:\dev\tetris\src\graphics\graphics.hpp
;	COMDAT ??0Graphics@graphics@core@@AAE@XZ
_TEXT	SEGMENT
_this$ = -4						; size = 4
??0Graphics@graphics@core@@AAE@XZ PROC			; core::graphics::Graphics::Graphics, COMDAT
; _this$ = ecx

; 27   :             Graphics() {}

  00000	55		 push	 ebp
  00001	8b ec		 mov	 ebp, esp
  00003	51		 push	 ecx
  00004	89 4d fc	 mov	 DWORD PTR _this$[ebp], ecx
  00007	8b 45 fc	 mov	 eax, DWORD PTR _this$[ebp]
  0000a	8b e5		 mov	 esp, ebp
  0000c	5d		 pop	 ebp
  0000d	c3		 ret	 0
??0Graphics@graphics@core@@AAE@XZ ENDP			; core::graphics::Graphics::Graphics
_TEXT	ENDS
END
