; Listing generated by Microsoft (R) Optimizing Compiler Version 19.16.27030.1 

	TITLE	C:\Dev\Tetris\src\main.cpp
	.686P
	.XMM
	include listing.inc
	.model	flat

INCLUDELIB LIBCMT
INCLUDELIB OLDNAMES

CONST	SEGMENT
$SG51633 DB	'novem.ttf', 00H
	ORG $+2
$SG51634 DB	'Tetris', 00H
	ORG $+1
$SG51635 DB	'Game has been initialized successfully', 0aH, 00H
$SG51636 DB	'Game failed to intialize. Closing...', 0aH, 00H
CONST	ENDS
PUBLIC	??2@YAPAXIPAX@Z					; operator new
PUBLIC	??0exception@std@@QAE@QBD@Z			; std::exception::exception
PUBLIC	??0exception@std@@QAE@ABV01@@Z			; std::exception::exception
PUBLIC	??1exception@std@@UAE@XZ			; std::exception::~exception
PUBLIC	?what@exception@std@@UBEPBDXZ			; std::exception::what
PUBLIC	??_Gexception@std@@UAEPAXI@Z			; std::exception::`scalar deleting destructor'
PUBLIC	?max@?$numeric_limits@H@std@@SAHXZ		; std::numeric_limits<int>::max
PUBLIC	?length@?$char_traits@D@std@@SAIQBD@Z		; std::char_traits<char>::length
PUBLIC	?copy@?$char_traits@D@std@@SAPADQADQBDI@Z	; std::char_traits<char>::copy
PUBLIC	?move@?$char_traits@D@std@@SAPADQADQBDI@Z	; std::char_traits<char>::move
PUBLIC	?assign@?$char_traits@D@std@@SAXAADABD@Z	; std::char_traits<char>::assign
PUBLIC	?to_int_type@?$char_traits@D@std@@SAHABD@Z	; std::char_traits<char>::to_int_type
PUBLIC	?eq_int_type@?$char_traits@D@std@@SA_NABH0@Z	; std::char_traits<char>::eq_int_type
PUBLIC	?eof@?$char_traits@D@std@@SAHXZ			; std::char_traits<char>::eof
PUBLIC	?_Orphan_all@_Container_base0@std@@QAEXXZ	; std::_Container_base0::_Orphan_all
PUBLIC	??$_Get_size_of_n@$00@std@@YAII@Z		; std::_Get_size_of_n<1>
PUBLIC	?_Allocate@_Default_allocate_traits@std@@SAPAXI@Z ; std::_Default_allocate_traits::_Allocate
PUBLIC	?_Adjust_manually_vector_aligned@std@@YAXAAPAXAAI@Z ; std::_Adjust_manually_vector_aligned
PUBLIC	??$_Convert_size@I@std@@YAII@Z			; std::_Convert_size<unsigned int>
PUBLIC	??0?$allocator@D@std@@QAE@XZ			; std::allocator<char>::allocator<char>
PUBLIC	?deallocate@?$allocator@D@std@@QAEXQADI@Z	; std::allocator<char>::deallocate
PUBLIC	?allocate@?$allocator@D@std@@QAEPADI@Z		; std::allocator<char>::allocate
PUBLIC	?max_size@?$_Default_allocator_traits@V?$allocator@D@std@@@std@@SAIABV?$allocator@D@2@@Z ; std::_Default_allocator_traits<std::allocator<char> >::max_size
PUBLIC	?select_on_container_copy_construction@?$_Default_allocator_traits@V?$allocator@D@std@@@std@@SA?AV?$allocator@D@2@ABV32@@Z ; std::_Default_allocator_traits<std::allocator<char> >::select_on_container_copy_construction
PUBLIC	??0?$_String_val@U?$_Simple_types@D@std@@@std@@QAE@XZ ; std::_String_val<std::_Simple_types<char> >::_String_val<std::_Simple_types<char> >
PUBLIC	?_Myptr@?$_String_val@U?$_Simple_types@D@std@@@std@@QAEPADXZ ; std::_String_val<std::_Simple_types<char> >::_Myptr
PUBLIC	?_Myptr@?$_String_val@U?$_Simple_types@D@std@@@std@@QBEPBDXZ ; std::_String_val<std::_Simple_types<char> >::_Myptr
PUBLIC	?_Large_string_engaged@?$_String_val@U?$_Simple_types@D@std@@@std@@QBE_NXZ ; std::_String_val<std::_Simple_types<char> >::_Large_string_engaged
PUBLIC	??0_Bxty@?$_String_val@U?$_Simple_types@D@std@@@std@@QAE@XZ ; std::_String_val<std::_Simple_types<char> >::_Bxty::_Bxty
PUBLIC	??1_Bxty@?$_String_val@U?$_Simple_types@D@std@@@std@@QAE@XZ ; std::_String_val<std::_Simple_types<char> >::_Bxty::~_Bxty
PUBLIC	??1?$_String_val@U?$_Simple_types@D@std@@@std@@QAE@XZ ; std::_String_val<std::_Simple_types<char> >::~_String_val<std::_Simple_types<char> >
PUBLIC	??0?$_String_alloc@U?$_String_base_types@DV?$allocator@D@std@@@std@@@std@@QAE@XZ ; std::_String_alloc<std::_String_base_types<char,std::allocator<char> > >::_String_alloc<std::_String_base_types<char,std::allocator<char> > >
PUBLIC	?_Orphan_all@?$_String_alloc@U?$_String_base_types@DV?$allocator@D@std@@@std@@@std@@QAEXXZ ; std::_String_alloc<std::_String_base_types<char,std::allocator<char> > >::_Orphan_all
PUBLIC	?_Getal@?$_String_alloc@U?$_String_base_types@DV?$allocator@D@std@@@std@@@std@@QAEAAV?$allocator@D@2@XZ ; std::_String_alloc<std::_String_base_types<char,std::allocator<char> > >::_Getal
PUBLIC	?_Getal@?$_String_alloc@U?$_String_base_types@DV?$allocator@D@std@@@std@@@std@@QBEABV?$allocator@D@2@XZ ; std::_String_alloc<std::_String_base_types<char,std::allocator<char> > >::_Getal
PUBLIC	?_Get_data@?$_String_alloc@U?$_String_base_types@DV?$allocator@D@std@@@std@@@std@@QAEAAV?$_String_val@U?$_Simple_types@D@std@@@2@XZ ; std::_String_alloc<std::_String_base_types<char,std::allocator<char> > >::_Get_data
PUBLIC	?_Get_data@?$_String_alloc@U?$_String_base_types@DV?$allocator@D@std@@@std@@@std@@QBEABV?$_String_val@U?$_Simple_types@D@std@@@2@XZ ; std::_String_alloc<std::_String_base_types<char,std::allocator<char> > >::_Get_data
PUBLIC	?_Get_first@?$_Compressed_pair@V?$allocator@D@std@@V?$_String_val@U?$_Simple_types@D@std@@@2@$00@std@@QAEAAV?$allocator@D@2@XZ ; std::_Compressed_pair<std::allocator<char>,std::_String_val<std::_Simple_types<char> >,1>::_Get_first
PUBLIC	?_Get_first@?$_Compressed_pair@V?$allocator@D@std@@V?$_String_val@U?$_Simple_types@D@std@@@2@$00@std@@QBEABV?$allocator@D@2@XZ ; std::_Compressed_pair<std::allocator<char>,std::_String_val<std::_Simple_types<char> >,1>::_Get_first
PUBLIC	?_Get_second@?$_Compressed_pair@V?$allocator@D@std@@V?$_String_val@U?$_Simple_types@D@std@@@2@$00@std@@QAEAAV?$_String_val@U?$_Simple_types@D@std@@@2@XZ ; std::_Compressed_pair<std::allocator<char>,std::_String_val<std::_Simple_types<char> >,1>::_Get_second
PUBLIC	?_Get_second@?$_Compressed_pair@V?$allocator@D@std@@V?$_String_val@U?$_Simple_types@D@std@@@2@$00@std@@QBEABV?$_String_val@U?$_Simple_types@D@std@@@2@XZ ; std::_Compressed_pair<std::allocator<char>,std::_String_val<std::_Simple_types<char> >,1>::_Get_second
PUBLIC	??1?$_Compressed_pair@V?$allocator@D@std@@V?$_String_val@U?$_Simple_types@D@std@@@2@$00@std@@QAE@XZ ; std::_Compressed_pair<std::allocator<char>,std::_String_val<std::_Simple_types<char> >,1>::~_Compressed_pair<std::allocator<char>,std::_String_val<std::_Simple_types<char> >,1>
PUBLIC	??1?$_String_alloc@U?$_String_base_types@DV?$allocator@D@std@@@std@@@std@@QAE@XZ ; std::_String_alloc<std::_String_base_types<char,std::allocator<char> > >::~_String_alloc<std::_String_base_types<char,std::allocator<char> > >
PUBLIC	??0?$basic_string@DU?$char_traits@D@std@@V?$allocator@D@2@@std@@QAE@ABV01@@Z ; std::basic_string<char,std::char_traits<char>,std::allocator<char> >::basic_string<char,std::char_traits<char>,std::allocator<char> >
PUBLIC	??0?$basic_string@DU?$char_traits@D@std@@V?$allocator@D@2@@std@@QAE@QBD@Z ; std::basic_string<char,std::char_traits<char>,std::allocator<char> >::basic_string<char,std::char_traits<char>,std::allocator<char> >
PUBLIC	??0?$basic_string@DU?$char_traits@D@std@@V?$allocator@D@2@@std@@QAE@$$QAV01@@Z ; std::basic_string<char,std::char_traits<char>,std::allocator<char> >::basic_string<char,std::char_traits<char>,std::allocator<char> >
PUBLIC	?_Assign_rv_contents_with_alloc_always_equal@?$basic_string@DU?$char_traits@D@std@@V?$allocator@D@2@@std@@QAEX$$QAV12@U?$integral_constant@_N$00@2@@Z ; std::basic_string<char,std::char_traits<char>,std::allocator<char> >::_Assign_rv_contents_with_alloc_always_equal
PUBLIC	?_Construct_lv_contents@?$basic_string@DU?$char_traits@D@std@@V?$allocator@D@2@@std@@QAEXABV12@@Z ; std::basic_string<char,std::char_traits<char>,std::allocator<char> >::_Construct_lv_contents
PUBLIC	??1?$basic_string@DU?$char_traits@D@std@@V?$allocator@D@2@@std@@QAE@XZ ; std::basic_string<char,std::char_traits<char>,std::allocator<char> >::~basic_string<char,std::char_traits<char>,std::allocator<char> >
PUBLIC	?append@?$basic_string@DU?$char_traits@D@std@@V?$allocator@D@2@@std@@QAEAAV12@ABV12@@Z ; std::basic_string<char,std::char_traits<char>,std::allocator<char> >::append
PUBLIC	?append@?$basic_string@DU?$char_traits@D@std@@V?$allocator@D@2@@std@@QAEAAV12@QBDI@Z ; std::basic_string<char,std::char_traits<char>,std::allocator<char> >::append
PUBLIC	?append@?$basic_string@DU?$char_traits@D@std@@V?$allocator@D@2@@std@@QAEAAV12@QBD@Z ; std::basic_string<char,std::char_traits<char>,std::allocator<char> >::append
PUBLIC	?assign@?$basic_string@DU?$char_traits@D@std@@V?$allocator@D@2@@std@@QAEAAV12@QBDI@Z ; std::basic_string<char,std::char_traits<char>,std::allocator<char> >::assign
PUBLIC	?assign@?$basic_string@DU?$char_traits@D@std@@V?$allocator@D@2@@std@@QAEAAV12@QBD@Z ; std::basic_string<char,std::char_traits<char>,std::allocator<char> >::assign
PUBLIC	?c_str@?$basic_string@DU?$char_traits@D@std@@V?$allocator@D@2@@std@@QBEPBDXZ ; std::basic_string<char,std::char_traits<char>,std::allocator<char> >::c_str
PUBLIC	?size@?$basic_string@DU?$char_traits@D@std@@V?$allocator@D@2@@std@@QBEIXZ ; std::basic_string<char,std::char_traits<char>,std::allocator<char> >::size
PUBLIC	?max_size@?$basic_string@DU?$char_traits@D@std@@V?$allocator@D@2@@std@@QBEIXZ ; std::basic_string<char,std::char_traits<char>,std::allocator<char> >::max_size
PUBLIC	?empty@?$basic_string@DU?$char_traits@D@std@@V?$allocator@D@2@@std@@QBE_NXZ ; std::basic_string<char,std::char_traits<char>,std::allocator<char> >::empty
PUBLIC	?_Calculate_growth@?$basic_string@DU?$char_traits@D@std@@V?$allocator@D@2@@std@@QBEII@Z ; std::basic_string<char,std::char_traits<char>,std::allocator<char> >::_Calculate_growth
PUBLIC	?_Tidy_init@?$basic_string@DU?$char_traits@D@std@@V?$allocator@D@2@@std@@QAEXXZ ; std::basic_string<char,std::char_traits<char>,std::allocator<char> >::_Tidy_init
PUBLIC	?_Tidy_deallocate@?$basic_string@DU?$char_traits@D@std@@V?$allocator@D@2@@std@@QAEXXZ ; std::basic_string<char,std::char_traits<char>,std::allocator<char> >::_Tidy_deallocate
PUBLIC	?_Xlen@?$basic_string@DU?$char_traits@D@std@@V?$allocator@D@2@@std@@SAXXZ ; std::basic_string<char,std::char_traits<char>,std::allocator<char> >::_Xlen
PUBLIC	??0runtime_error@std@@QAE@ABV?$basic_string@DU?$char_traits@D@std@@V?$allocator@D@2@@1@@Z ; std::runtime_error::runtime_error
PUBLIC	??1runtime_error@std@@UAE@XZ			; std::runtime_error::~runtime_error
PUBLIC	??0runtime_error@std@@QAE@ABV01@@Z		; std::runtime_error::runtime_error
PUBLIC	??_Gruntime_error@std@@UAEPAXI@Z		; std::runtime_error::`scalar deleting destructor'
PUBLIC	??$_Min_value@I@std@@YAABIABI0@Z		; std::_Min_value<unsigned int>
PUBLIC	?make_error_code@std@@YA?AVerror_code@1@W4io_errc@1@@Z ; std::make_error_code
PUBLIC	?iostream_category@std@@YAABVerror_category@1@XZ ; std::iostream_category
PUBLIC	??0error_category@std@@QAE@XZ			; std::error_category::error_category
PUBLIC	??1error_category@std@@UAE@XZ			; std::error_category::~error_category
PUBLIC	?default_error_condition@error_category@std@@UBE?AVerror_condition@2@H@Z ; std::error_category::default_error_condition
PUBLIC	?equivalent@error_category@std@@UBE_NHABVerror_condition@2@@Z ; std::error_category::equivalent
PUBLIC	?equivalent@error_category@std@@UBE_NABVerror_code@2@H@Z ; std::error_category::equivalent
PUBLIC	??8error_category@std@@QBE_NABV01@@Z		; std::error_category::operator==
PUBLIC	??0error_code@std@@QAE@HABVerror_category@1@@Z	; std::error_code::error_code
PUBLIC	?value@error_code@std@@QBEHXZ			; std::error_code::value
PUBLIC	?category@error_code@std@@QBEABVerror_category@2@XZ ; std::error_code::category
PUBLIC	?message@error_code@std@@QBE?AV?$basic_string@DU?$char_traits@D@std@@V?$allocator@D@2@@2@XZ ; std::error_code::message
PUBLIC	??0error_condition@std@@QAE@HABVerror_category@1@@Z ; std::error_condition::error_condition
PUBLIC	?value@error_condition@std@@QBEHXZ		; std::error_condition::value
PUBLIC	?category@error_condition@std@@QBEABVerror_category@2@XZ ; std::error_condition::category
PUBLIC	??8std@@YA_NABVerror_condition@0@0@Z		; std::operator==
PUBLIC	?_Makestr@_System_error@std@@CA?AV?$basic_string@DU?$char_traits@D@std@@V?$allocator@D@2@@2@Verror_code@2@V32@@Z ; std::_System_error::_Makestr
PUBLIC	??0_System_error@std@@IAE@Verror_code@1@ABV?$basic_string@DU?$char_traits@D@std@@V?$allocator@D@2@@1@@Z ; std::_System_error::_System_error
PUBLIC	??1_System_error@std@@UAE@XZ			; std::_System_error::~_System_error
PUBLIC	??0_System_error@std@@QAE@ABV01@@Z		; std::_System_error::_System_error
PUBLIC	??_G_System_error@std@@UAEPAXI@Z		; std::_System_error::`scalar deleting destructor'
PUBLIC	??0system_error@std@@QAE@Verror_code@1@PBD@Z	; std::system_error::system_error
PUBLIC	??1system_error@std@@UAE@XZ			; std::system_error::~system_error
PUBLIC	??0system_error@std@@QAE@ABV01@@Z		; std::system_error::system_error
PUBLIC	??_Gsystem_error@std@@UAEPAXI@Z			; std::system_error::`scalar deleting destructor'
PUBLIC	??0_Generic_error_category@std@@QAE@XZ		; std::_Generic_error_category::_Generic_error_category
PUBLIC	?name@_Generic_error_category@std@@UBEPBDXZ	; std::_Generic_error_category::name
PUBLIC	?message@_Generic_error_category@std@@UBE?AV?$basic_string@DU?$char_traits@D@std@@V?$allocator@D@2@@2@H@Z ; std::_Generic_error_category::message
PUBLIC	??1_Generic_error_category@std@@UAE@XZ		; std::_Generic_error_category::~_Generic_error_category
PUBLIC	??_G_Generic_error_category@std@@UAEPAXI@Z	; std::_Generic_error_category::`scalar deleting destructor'
PUBLIC	??0_Iostream_error_category@std@@QAE@XZ		; std::_Iostream_error_category::_Iostream_error_category
PUBLIC	?name@_Iostream_error_category@std@@UBEPBDXZ	; std::_Iostream_error_category::name
PUBLIC	?message@_Iostream_error_category@std@@UBE?AV?$basic_string@DU?$char_traits@D@std@@V?$allocator@D@2@@2@H@Z ; std::_Iostream_error_category::message
PUBLIC	??1_Iostream_error_category@std@@UAE@XZ		; std::_Iostream_error_category::~_Iostream_error_category
PUBLIC	??_G_Iostream_error_category@std@@UAEPAXI@Z	; std::_Iostream_error_category::`scalar deleting destructor'
PUBLIC	??$_Immortalize@V_Iostream_error_category@std@@@std@@YAAAV_Iostream_error_category@0@XZ ; std::_Immortalize<std::_Iostream_error_category>
PUBLIC	??0failure@ios_base@std@@QAE@PBDABVerror_code@2@@Z ; std::ios_base::failure::failure
PUBLIC	??1failure@ios_base@std@@UAE@XZ			; std::ios_base::failure::~failure
PUBLIC	??0failure@ios_base@std@@QAE@ABV012@@Z		; std::ios_base::failure::failure
PUBLIC	??_Gfailure@ios_base@std@@UAEPAXI@Z		; std::ios_base::failure::`scalar deleting destructor'
PUBLIC	?clear@ios_base@std@@QAEXH_N@Z			; std::ios_base::clear
PUBLIC	?rdstate@ios_base@std@@QBEHXZ			; std::ios_base::rdstate
PUBLIC	?good@ios_base@std@@QBE_NXZ			; std::ios_base::good
PUBLIC	?flags@ios_base@std@@QBEHXZ			; std::ios_base::flags
PUBLIC	?width@ios_base@std@@QBE_JXZ			; std::ios_base::width
PUBLIC	?width@ios_base@std@@QAE_J_J@Z			; std::ios_base::width
PUBLIC	_wmain
PUBLIC	?clear@?$basic_ios@DU?$char_traits@D@std@@@std@@QAEXH_N@Z ; std::basic_ios<char,std::char_traits<char> >::clear
PUBLIC	?setstate@?$basic_ios@DU?$char_traits@D@std@@@std@@QAEXH_N@Z ; std::basic_ios<char,std::char_traits<char> >::setstate
PUBLIC	?tie@?$basic_ios@DU?$char_traits@D@std@@@std@@QBEPAV?$basic_ostream@DU?$char_traits@D@std@@@2@XZ ; std::basic_ios<char,std::char_traits<char> >::tie
PUBLIC	?rdbuf@?$basic_ios@DU?$char_traits@D@std@@@std@@QBEPAV?$basic_streambuf@DU?$char_traits@D@std@@@2@XZ ; std::basic_ios<char,std::char_traits<char> >::rdbuf
PUBLIC	?fill@?$basic_ios@DU?$char_traits@D@std@@@std@@QBEDXZ ; std::basic_ios<char,std::char_traits<char> >::fill
PUBLIC	?_Osfx@?$basic_ostream@DU?$char_traits@D@std@@@std@@QAEXXZ ; std::basic_ostream<char,std::char_traits<char> >::_Osfx
PUBLIC	?flush@?$basic_ostream@DU?$char_traits@D@std@@@std@@QAEAAV12@XZ ; std::basic_ostream<char,std::char_traits<char> >::flush
PUBLIC	??$?6U?$char_traits@D@std@@@std@@YAAAV?$basic_ostream@DU?$char_traits@D@std@@@0@AAV10@PBD@Z ; std::operator<<<std::char_traits<char> >
PUBLIC	??$_Unfancy@D@std@@YAPADPAD@Z			; std::_Unfancy<char>
PUBLIC	??$move@AAV?$allocator@D@std@@@std@@YA$$QAV?$allocator@D@0@AAV10@@Z ; std::move<std::allocator<char> &>
PUBLIC	??$?0V?$allocator@D@std@@X@?$_String_alloc@U?$_String_base_types@DV?$allocator@D@std@@@std@@@std@@QAE@$$QAV?$allocator@D@1@@Z ; std::_String_alloc<std::_String_base_types<char,std::allocator<char> > >::_String_alloc<std::_String_base_types<char,std::allocator<char> > ><std::allocator<char>,void>
PUBLIC	??$move@AAV?$basic_string@DU?$char_traits@D@std@@V?$allocator@D@2@@std@@@std@@YA$$QAV?$basic_string@DU?$char_traits@D@std@@V?$allocator@D@2@@0@AAV10@@Z ; std::move<std::basic_string<char,std::char_traits<char>,std::allocator<char> > &>
PUBLIC	??$?0$$V@?$_Compressed_pair@V?$allocator@D@std@@V?$_String_val@U?$_Simple_types@D@std@@@2@$00@std@@QAE@U_Zero_then_variadic_args_t@1@@Z ; std::_Compressed_pair<std::allocator<char>,std::_String_val<std::_Simple_types<char> >,1>::_Compressed_pair<std::allocator<char>,std::_String_val<std::_Simple_types<char> >,1><>
PUBLIC	??$addressof@PAD@std@@YAPAPADAAPAD@Z		; std::addressof<char *>
PUBLIC	??$destroy@PAD@?$_Default_allocator_traits@V?$allocator@D@std@@@std@@SAXAAV?$allocator@D@1@QAPAD@Z ; std::_Default_allocator_traits<std::allocator<char> >::destroy<char *>
PUBLIC	??$_Max_value@I@std@@YAABIABI0@Z		; std::_Max_value<unsigned int>
PUBLIC	??R<lambda_ab246b20b9526e2ef7792587e4298a77>@@QBEXQADQBDI1I@Z ; <lambda_ab246b20b9526e2ef7792587e4298a77>::operator()
PUBLIC	??$_Reallocate_grow_by@V<lambda_ab246b20b9526e2ef7792587e4298a77>@@PBDI@?$basic_string@DU?$char_traits@D@std@@V?$allocator@D@2@@std@@QAEAAV01@IV<lambda_ab246b20b9526e2ef7792587e4298a77>@@PBDI@Z ; std::basic_string<char,std::char_traits<char>,std::allocator<char> >::_Reallocate_grow_by<<lambda_ab246b20b9526e2ef7792587e4298a77>,char const *,unsigned int>
PUBLIC	??$construct@PADABQAD@?$_Default_allocator_traits@V?$allocator@D@std@@@std@@SAXAAV?$allocator@D@1@QAPADABQAD@Z ; std::_Default_allocator_traits<std::allocator<char> >::construct<char *,char * const &>
PUBLIC	??$addressof@V?$_String_val@U?$_Simple_types@D@std@@@std@@@std@@YAPAV?$_String_val@U?$_Simple_types@D@std@@@0@AAV10@@Z ; std::addressof<std::_String_val<std::_Simple_types<char> > >
PUBLIC	??$_Allocate@$07U_Default_allocate_traits@std@@$0A@@std@@YAPAXI@Z ; std::_Allocate<8,std::_Default_allocate_traits,0>
PUBLIC	??$_Deallocate@$07$0A@@std@@YAXPAXI@Z		; std::_Deallocate<8,0>
PUBLIC	??R<lambda_9366063389c5f42a00a5088cf24e69de>@@QBEXQADIQBD@Z ; <lambda_9366063389c5f42a00a5088cf24e69de>::operator()
PUBLIC	??$_Reallocate_for@V<lambda_9366063389c5f42a00a5088cf24e69de>@@PBD@?$basic_string@DU?$char_traits@D@std@@V?$allocator@D@2@@std@@QAEAAV01@IV<lambda_9366063389c5f42a00a5088cf24e69de>@@PBD@Z ; std::basic_string<char,std::char_traits<char>,std::allocator<char> >::_Reallocate_for<<lambda_9366063389c5f42a00a5088cf24e69de>,char const *>
PUBLIC	??$_Immortalize_impl@V_Iostream_error_category@std@@@std@@YGHPAX0PAPAX@Z ; std::_Immortalize_impl<std::_Iostream_error_category>
PUBLIC	??0_Sentry_base@?$basic_ostream@DU?$char_traits@D@std@@@std@@QAE@AAV12@@Z ; std::basic_ostream<char,std::char_traits<char> >::_Sentry_base::_Sentry_base
PUBLIC	??1_Sentry_base@?$basic_ostream@DU?$char_traits@D@std@@@std@@QAE@XZ ; std::basic_ostream<char,std::char_traits<char> >::_Sentry_base::~_Sentry_base
PUBLIC	??0sentry@?$basic_ostream@DU?$char_traits@D@std@@@std@@QAE@AAV12@@Z ; std::basic_ostream<char,std::char_traits<char> >::sentry::sentry
PUBLIC	??1sentry@?$basic_ostream@DU?$char_traits@D@std@@@std@@QAE@XZ ; std::basic_ostream<char,std::char_traits<char> >::sentry::~sentry
PUBLIC	??Bsentry@?$basic_ostream@DU?$char_traits@D@std@@@std@@QBE_NXZ ; std::basic_ostream<char,std::char_traits<char> >::sentry::operator bool
PUBLIC	?pubsync@?$basic_streambuf@DU?$char_traits@D@std@@@std@@QAEHXZ ; std::basic_streambuf<char,std::char_traits<char> >::pubsync
PUBLIC	?sputc@?$basic_streambuf@DU?$char_traits@D@std@@@std@@QAEHD@Z ; std::basic_streambuf<char,std::char_traits<char> >::sputc
PUBLIC	?sputn@?$basic_streambuf@DU?$char_traits@D@std@@@std@@QAE_JPBD_J@Z ; std::basic_streambuf<char,std::char_traits<char> >::sputn
PUBLIC	?_Pninc@?$basic_streambuf@DU?$char_traits@D@std@@@std@@IAEPADXZ ; std::basic_streambuf<char,std::char_traits<char> >::_Pninc
PUBLIC	?_Pnavail@?$basic_streambuf@DU?$char_traits@D@std@@@std@@IBE_JXZ ; std::basic_streambuf<char,std::char_traits<char> >::_Pnavail
PUBLIC	??$forward@V?$allocator@D@std@@@std@@YA$$QAV?$allocator@D@0@AAV10@@Z ; std::forward<std::allocator<char> >
PUBLIC	??$?0V?$allocator@D@std@@$$V@?$_Compressed_pair@V?$allocator@D@std@@V?$_String_val@U?$_Simple_types@D@std@@@2@$00@std@@QAE@U_One_then_variadic_args_t@1@$$QAV?$allocator@D@1@@Z ; std::_Compressed_pair<std::allocator<char>,std::_String_val<std::_Simple_types<char> >,1>::_Compressed_pair<std::allocator<char>,std::_String_val<std::_Simple_types<char> >,1><std::allocator<char> >
PUBLIC	??$forward@ABQAD@std@@YAABQADABQAD@Z		; std::forward<char * const &>
PUBLIC	??$_Allocate_manually_vector_aligned@U_Default_allocate_traits@std@@@std@@YAPAXI@Z ; std::_Allocate_manually_vector_aligned<std::_Default_allocate_traits>
PUBLIC	??_7exception@std@@6B@				; std::exception::`vftable'
PUBLIC	??_C@_0BC@EOODALEL@Unknown?5exception@		; `string'
PUBLIC	??_7runtime_error@std@@6B@			; std::runtime_error::`vftable'
PUBLIC	??_R0?AVruntime_error@std@@@8			; std::runtime_error `RTTI Type Descriptor'
PUBLIC	__CT??_R0?AVruntime_error@std@@@8??0runtime_error@std@@QAE@ABV01@@Z12
PUBLIC	??_R0?AVexception@std@@@8			; std::exception `RTTI Type Descriptor'
PUBLIC	__CT??_R0?AVexception@std@@@8??0exception@std@@QAE@ABV01@@Z12
PUBLIC	??_7_System_error@std@@6B@			; std::_System_error::`vftable'
PUBLIC	??_C@_02LMMGGCAJ@?3?5@				; `string'
PUBLIC	??_7system_error@std@@6B@			; std::system_error::`vftable'
PUBLIC	??_7_Generic_error_category@std@@6B@		; std::_Generic_error_category::`vftable'
PUBLIC	??_C@_07DCLBNMLN@generic@			; `string'
PUBLIC	??_7_Iostream_error_category@std@@6B@		; std::_Iostream_error_category::`vftable'
PUBLIC	??_C@_08LLGCOLLL@iostream@			; `string'
PUBLIC	??_C@_0BG@PADBLCHM@iostream?5stream?5error@	; `string'
PUBLIC	??_7failure@ios_base@std@@6B@			; std::ios_base::failure::`vftable'
PUBLIC	??_C@_0BF@PHHKMMFD@ios_base?3?3badbit?5set@	; `string'
PUBLIC	??_C@_0BG@FMKFHCIL@ios_base?3?3failbit?5set@	; `string'
PUBLIC	??_C@_0BF@OOHOMBOF@ios_base?3?3eofbit?5set@	; `string'
PUBLIC	__TI5?AVfailure@ios_base@std@@
PUBLIC	__CTA5?AVfailure@ios_base@std@@
PUBLIC	??_R0?AVfailure@ios_base@std@@@8		; std::ios_base::failure `RTTI Type Descriptor'
PUBLIC	__CT??_R0?AVfailure@ios_base@std@@@8??0failure@ios_base@std@@QAE@ABV012@@Z20
PUBLIC	??_R0?AVsystem_error@std@@@8			; std::system_error `RTTI Type Descriptor'
PUBLIC	__CT??_R0?AVsystem_error@std@@@8??0system_error@std@@QAE@ABV01@@Z20
PUBLIC	??_R0?AV_System_error@std@@@8			; std::_System_error `RTTI Type Descriptor'
PUBLIC	__CT??_R0?AV_System_error@std@@@8??0_System_error@std@@QAE@ABV01@@Z20
PUBLIC	?_Flag@?1???$_Immortalize@V_Iostream_error_category@std@@@std@@YAAAV_Iostream_error_category@1@XZ@4PAXA ; `std::_Immortalize<std::_Iostream_error_category>'::`2'::_Flag
PUBLIC	?_Storage@?1???$_Immortalize@V_Iostream_error_category@std@@@std@@YAAAV_Iostream_error_category@1@XZ@4T?$_Align_type@H$07@1@A ; `std::_Immortalize<std::_Iostream_error_category>'::`2'::_Storage
PUBLIC	??_C@_0BA@JFNIOLAK@string?5too?5long@		; `string'
PUBLIC	??_R4exception@std@@6B@				; std::exception::`RTTI Complete Object Locator'
PUBLIC	??_R3exception@std@@8				; std::exception::`RTTI Class Hierarchy Descriptor'
PUBLIC	??_R2exception@std@@8				; std::exception::`RTTI Base Class Array'
PUBLIC	??_R1A@?0A@EA@exception@std@@8			; std::exception::`RTTI Base Class Descriptor at (0,-1,0,64)'
PUBLIC	??_R4runtime_error@std@@6B@			; std::runtime_error::`RTTI Complete Object Locator'
PUBLIC	??_R3runtime_error@std@@8			; std::runtime_error::`RTTI Class Hierarchy Descriptor'
PUBLIC	??_R2runtime_error@std@@8			; std::runtime_error::`RTTI Base Class Array'
PUBLIC	??_R1A@?0A@EA@runtime_error@std@@8		; std::runtime_error::`RTTI Base Class Descriptor at (0,-1,0,64)'
PUBLIC	??_R0?AVerror_category@std@@@8			; std::error_category `RTTI Type Descriptor'
PUBLIC	??_R3error_category@std@@8			; std::error_category::`RTTI Class Hierarchy Descriptor'
PUBLIC	??_R2error_category@std@@8			; std::error_category::`RTTI Base Class Array'
PUBLIC	??_R1A@?0A@EA@error_category@std@@8		; std::error_category::`RTTI Base Class Descriptor at (0,-1,0,64)'
PUBLIC	??_R4_System_error@std@@6B@			; std::_System_error::`RTTI Complete Object Locator'
PUBLIC	??_R3_System_error@std@@8			; std::_System_error::`RTTI Class Hierarchy Descriptor'
PUBLIC	??_R2_System_error@std@@8			; std::_System_error::`RTTI Base Class Array'
PUBLIC	??_R1A@?0A@EA@_System_error@std@@8		; std::_System_error::`RTTI Base Class Descriptor at (0,-1,0,64)'
PUBLIC	??_R4system_error@std@@6B@			; std::system_error::`RTTI Complete Object Locator'
PUBLIC	??_R3system_error@std@@8			; std::system_error::`RTTI Class Hierarchy Descriptor'
PUBLIC	??_R2system_error@std@@8			; std::system_error::`RTTI Base Class Array'
PUBLIC	??_R1A@?0A@EA@system_error@std@@8		; std::system_error::`RTTI Base Class Descriptor at (0,-1,0,64)'
PUBLIC	??_R4_Generic_error_category@std@@6B@		; std::_Generic_error_category::`RTTI Complete Object Locator'
PUBLIC	??_R0?AV_Generic_error_category@std@@@8		; std::_Generic_error_category `RTTI Type Descriptor'
PUBLIC	??_R3_Generic_error_category@std@@8		; std::_Generic_error_category::`RTTI Class Hierarchy Descriptor'
PUBLIC	??_R2_Generic_error_category@std@@8		; std::_Generic_error_category::`RTTI Base Class Array'
PUBLIC	??_R1A@?0A@EA@_Generic_error_category@std@@8	; std::_Generic_error_category::`RTTI Base Class Descriptor at (0,-1,0,64)'
PUBLIC	??_R4_Iostream_error_category@std@@6B@		; std::_Iostream_error_category::`RTTI Complete Object Locator'
PUBLIC	??_R0?AV_Iostream_error_category@std@@@8	; std::_Iostream_error_category `RTTI Type Descriptor'
PUBLIC	??_R3_Iostream_error_category@std@@8		; std::_Iostream_error_category::`RTTI Class Hierarchy Descriptor'
PUBLIC	??_R2_Iostream_error_category@std@@8		; std::_Iostream_error_category::`RTTI Base Class Array'
PUBLIC	??_R1A@?0A@EA@_Iostream_error_category@std@@8	; std::_Iostream_error_category::`RTTI Base Class Descriptor at (0,-1,0,64)'
PUBLIC	??_R4failure@ios_base@std@@6B@			; std::ios_base::failure::`RTTI Complete Object Locator'
PUBLIC	??_R3failure@ios_base@std@@8			; std::ios_base::failure::`RTTI Class Hierarchy Descriptor'
PUBLIC	??_R2failure@ios_base@std@@8			; std::ios_base::failure::`RTTI Base Class Array'
PUBLIC	??_R1A@?0A@EA@failure@ios_base@std@@8		; std::ios_base::failure::`RTTI Base Class Descriptor at (0,-1,0,64)'
EXTRN	??2@YAPAXI@Z:PROC				; operator new
EXTRN	??3@YAXPAXI@Z:PROC				; operator delete
EXTRN	__invalid_parameter_noinfo_noreturn:PROC
EXTRN	?uncaught_exception@std@@YA_NXZ:PROC		; std::uncaught_exception
EXTRN	_terminate:PROC
EXTRN	___std_exception_copy:PROC
EXTRN	___std_exception_destroy:PROC
EXTRN	??_Eexception@std@@UAEPAXI@Z:PROC		; std::exception::`vector deleting destructor'
EXTRN	?_Xlength_error@std@@YAXPBD@Z:PROC		; std::_Xlength_error
EXTRN	??_Eruntime_error@std@@UAEPAXI@Z:PROC		; std::runtime_error::`vector deleting destructor'
EXTRN	?_Execute_once@std@@YAHAAUonce_flag@1@P6GHPAX1PAPAX@Z1@Z:PROC ; std::_Execute_once
EXTRN	??_E_System_error@std@@UAEPAXI@Z:PROC		; std::_System_error::`vector deleting destructor'
EXTRN	??_Esystem_error@std@@UAEPAXI@Z:PROC		; std::system_error::`vector deleting destructor'
EXTRN	?_Syserror_map@std@@YAPBDH@Z:PROC		; std::_Syserror_map
EXTRN	??_E_Generic_error_category@std@@UAEPAXI@Z:PROC	; std::_Generic_error_category::`vector deleting destructor'
EXTRN	??_E_Iostream_error_category@std@@UAEPAXI@Z:PROC ; std::_Iostream_error_category::`vector deleting destructor'
EXTRN	??_Efailure@ios_base@std@@UAEPAXI@Z:PROC	; std::ios_base::failure::`vector deleting destructor'
EXTRN	?Instance@Game@@SAPAV1@XZ:PROC			; Game::Instance
EXTRN	?Init@Game@@QAE_NPBDHH0H@Z:PROC			; Game::Init
EXTRN	?MainLoop@Game@@QAEXXZ:PROC			; Game::MainLoop
EXTRN	?Clean@Game@@QAEXXZ:PROC			; Game::Clean
EXTRN	@__security_check_cookie@4:PROC
EXTRN	__CxxThrowException@8:PROC
EXTRN	___CxxFrameHandler3:PROC
EXTRN	_memcpy:PROC
EXTRN	_memmove:PROC
EXTRN	??_7type_info@@6B@:QWORD			; type_info::`vftable'
EXTRN	?cout@std@@3V?$basic_ostream@DU?$char_traits@D@std@@@1@A:BYTE ; std::cout
EXTRN	?cerr@std@@3V?$basic_ostream@DU?$char_traits@D@std@@@1@A:BYTE ; std::cerr
EXTRN	___security_cookie:DWORD
;	COMDAT ?_Flag@?1???$_Immortalize@V_Iostream_error_category@std@@@std@@YAAAV_Iostream_error_category@1@XZ@4PAXA
_BSS	SEGMENT
?_Flag@?1???$_Immortalize@V_Iostream_error_category@std@@@std@@YAAAV_Iostream_error_category@1@XZ@4PAXA DD 01H DUP (?) ; `std::_Immortalize<std::_Iostream_error_category>'::`2'::_Flag
_BSS	ENDS
;	COMDAT ?_Storage@?1???$_Immortalize@V_Iostream_error_category@std@@@std@@YAAAV_Iostream_error_category@1@XZ@4T?$_Align_type@H$07@1@A
_BSS	SEGMENT
?_Storage@?1???$_Immortalize@V_Iostream_error_category@std@@@std@@YAAAV_Iostream_error_category@1@XZ@4T?$_Align_type@H$07@1@A DQ 01H DUP (?) ; `std::_Immortalize<std::_Iostream_error_category>'::`2'::_Storage
_BSS	ENDS
;	COMDAT ??_R1A@?0A@EA@failure@ios_base@std@@8
rdata$r	SEGMENT
??_R1A@?0A@EA@failure@ios_base@std@@8 DD FLAT:??_R0?AVfailure@ios_base@std@@@8 ; std::ios_base::failure::`RTTI Base Class Descriptor at (0,-1,0,64)'
	DD	04H
	DD	00H
	DD	0ffffffffH
	DD	00H
	DD	040H
	DD	FLAT:??_R3failure@ios_base@std@@8
rdata$r	ENDS
;	COMDAT ??_R2failure@ios_base@std@@8
rdata$r	SEGMENT
??_R2failure@ios_base@std@@8 DD FLAT:??_R1A@?0A@EA@failure@ios_base@std@@8 ; std::ios_base::failure::`RTTI Base Class Array'
	DD	FLAT:??_R1A@?0A@EA@system_error@std@@8
	DD	FLAT:??_R1A@?0A@EA@_System_error@std@@8
	DD	FLAT:??_R1A@?0A@EA@runtime_error@std@@8
	DD	FLAT:??_R1A@?0A@EA@exception@std@@8
rdata$r	ENDS
;	COMDAT ??_R3failure@ios_base@std@@8
rdata$r	SEGMENT
??_R3failure@ios_base@std@@8 DD 00H			; std::ios_base::failure::`RTTI Class Hierarchy Descriptor'
	DD	00H
	DD	05H
	DD	FLAT:??_R2failure@ios_base@std@@8
rdata$r	ENDS
;	COMDAT ??_R4failure@ios_base@std@@6B@
rdata$r	SEGMENT
??_R4failure@ios_base@std@@6B@ DD 00H			; std::ios_base::failure::`RTTI Complete Object Locator'
	DD	00H
	DD	00H
	DD	FLAT:??_R0?AVfailure@ios_base@std@@@8
	DD	FLAT:??_R3failure@ios_base@std@@8
rdata$r	ENDS
;	COMDAT ??_R1A@?0A@EA@_Iostream_error_category@std@@8
rdata$r	SEGMENT
??_R1A@?0A@EA@_Iostream_error_category@std@@8 DD FLAT:??_R0?AV_Iostream_error_category@std@@@8 ; std::_Iostream_error_category::`RTTI Base Class Descriptor at (0,-1,0,64)'
	DD	02H
	DD	00H
	DD	0ffffffffH
	DD	00H
	DD	040H
	DD	FLAT:??_R3_Iostream_error_category@std@@8
rdata$r	ENDS
;	COMDAT ??_R2_Iostream_error_category@std@@8
rdata$r	SEGMENT
??_R2_Iostream_error_category@std@@8 DD FLAT:??_R1A@?0A@EA@_Iostream_error_category@std@@8 ; std::_Iostream_error_category::`RTTI Base Class Array'
	DD	FLAT:??_R1A@?0A@EA@_Generic_error_category@std@@8
	DD	FLAT:??_R1A@?0A@EA@error_category@std@@8
rdata$r	ENDS
;	COMDAT ??_R3_Iostream_error_category@std@@8
rdata$r	SEGMENT
??_R3_Iostream_error_category@std@@8 DD 00H		; std::_Iostream_error_category::`RTTI Class Hierarchy Descriptor'
	DD	00H
	DD	03H
	DD	FLAT:??_R2_Iostream_error_category@std@@8
rdata$r	ENDS
;	COMDAT ??_R0?AV_Iostream_error_category@std@@@8
data$r	SEGMENT
??_R0?AV_Iostream_error_category@std@@@8 DD FLAT:??_7type_info@@6B@ ; std::_Iostream_error_category `RTTI Type Descriptor'
	DD	00H
	DB	'.?AV_Iostream_error_category@std@@', 00H
data$r	ENDS
;	COMDAT ??_R4_Iostream_error_category@std@@6B@
rdata$r	SEGMENT
??_R4_Iostream_error_category@std@@6B@ DD 00H		; std::_Iostream_error_category::`RTTI Complete Object Locator'
	DD	00H
	DD	00H
	DD	FLAT:??_R0?AV_Iostream_error_category@std@@@8
	DD	FLAT:??_R3_Iostream_error_category@std@@8
rdata$r	ENDS
;	COMDAT ??_R1A@?0A@EA@_Generic_error_category@std@@8
rdata$r	SEGMENT
??_R1A@?0A@EA@_Generic_error_category@std@@8 DD FLAT:??_R0?AV_Generic_error_category@std@@@8 ; std::_Generic_error_category::`RTTI Base Class Descriptor at (0,-1,0,64)'
	DD	01H
	DD	00H
	DD	0ffffffffH
	DD	00H
	DD	040H
	DD	FLAT:??_R3_Generic_error_category@std@@8
rdata$r	ENDS
;	COMDAT ??_R2_Generic_error_category@std@@8
rdata$r	SEGMENT
??_R2_Generic_error_category@std@@8 DD FLAT:??_R1A@?0A@EA@_Generic_error_category@std@@8 ; std::_Generic_error_category::`RTTI Base Class Array'
	DD	FLAT:??_R1A@?0A@EA@error_category@std@@8
rdata$r	ENDS
;	COMDAT ??_R3_Generic_error_category@std@@8
rdata$r	SEGMENT
??_R3_Generic_error_category@std@@8 DD 00H		; std::_Generic_error_category::`RTTI Class Hierarchy Descriptor'
	DD	00H
	DD	02H
	DD	FLAT:??_R2_Generic_error_category@std@@8
rdata$r	ENDS
;	COMDAT ??_R0?AV_Generic_error_category@std@@@8
data$r	SEGMENT
??_R0?AV_Generic_error_category@std@@@8 DD FLAT:??_7type_info@@6B@ ; std::_Generic_error_category `RTTI Type Descriptor'
	DD	00H
	DB	'.?AV_Generic_error_category@std@@', 00H
data$r	ENDS
;	COMDAT ??_R4_Generic_error_category@std@@6B@
rdata$r	SEGMENT
??_R4_Generic_error_category@std@@6B@ DD 00H		; std::_Generic_error_category::`RTTI Complete Object Locator'
	DD	00H
	DD	00H
	DD	FLAT:??_R0?AV_Generic_error_category@std@@@8
	DD	FLAT:??_R3_Generic_error_category@std@@8
rdata$r	ENDS
;	COMDAT ??_R1A@?0A@EA@system_error@std@@8
rdata$r	SEGMENT
??_R1A@?0A@EA@system_error@std@@8 DD FLAT:??_R0?AVsystem_error@std@@@8 ; std::system_error::`RTTI Base Class Descriptor at (0,-1,0,64)'
	DD	03H
	DD	00H
	DD	0ffffffffH
	DD	00H
	DD	040H
	DD	FLAT:??_R3system_error@std@@8
rdata$r	ENDS
;	COMDAT ??_R2system_error@std@@8
rdata$r	SEGMENT
??_R2system_error@std@@8 DD FLAT:??_R1A@?0A@EA@system_error@std@@8 ; std::system_error::`RTTI Base Class Array'
	DD	FLAT:??_R1A@?0A@EA@_System_error@std@@8
	DD	FLAT:??_R1A@?0A@EA@runtime_error@std@@8
	DD	FLAT:??_R1A@?0A@EA@exception@std@@8
rdata$r	ENDS
;	COMDAT ??_R3system_error@std@@8
rdata$r	SEGMENT
??_R3system_error@std@@8 DD 00H				; std::system_error::`RTTI Class Hierarchy Descriptor'
	DD	00H
	DD	04H
	DD	FLAT:??_R2system_error@std@@8
rdata$r	ENDS
;	COMDAT ??_R4system_error@std@@6B@
rdata$r	SEGMENT
??_R4system_error@std@@6B@ DD 00H			; std::system_error::`RTTI Complete Object Locator'
	DD	00H
	DD	00H
	DD	FLAT:??_R0?AVsystem_error@std@@@8
	DD	FLAT:??_R3system_error@std@@8
rdata$r	ENDS
;	COMDAT ??_R1A@?0A@EA@_System_error@std@@8
rdata$r	SEGMENT
??_R1A@?0A@EA@_System_error@std@@8 DD FLAT:??_R0?AV_System_error@std@@@8 ; std::_System_error::`RTTI Base Class Descriptor at (0,-1,0,64)'
	DD	02H
	DD	00H
	DD	0ffffffffH
	DD	00H
	DD	040H
	DD	FLAT:??_R3_System_error@std@@8
rdata$r	ENDS
;	COMDAT ??_R2_System_error@std@@8
rdata$r	SEGMENT
??_R2_System_error@std@@8 DD FLAT:??_R1A@?0A@EA@_System_error@std@@8 ; std::_System_error::`RTTI Base Class Array'
	DD	FLAT:??_R1A@?0A@EA@runtime_error@std@@8
	DD	FLAT:??_R1A@?0A@EA@exception@std@@8
rdata$r	ENDS
;	COMDAT ??_R3_System_error@std@@8
rdata$r	SEGMENT
??_R3_System_error@std@@8 DD 00H			; std::_System_error::`RTTI Class Hierarchy Descriptor'
	DD	00H
	DD	03H
	DD	FLAT:??_R2_System_error@std@@8
rdata$r	ENDS
;	COMDAT ??_R4_System_error@std@@6B@
rdata$r	SEGMENT
??_R4_System_error@std@@6B@ DD 00H			; std::_System_error::`RTTI Complete Object Locator'
	DD	00H
	DD	00H
	DD	FLAT:??_R0?AV_System_error@std@@@8
	DD	FLAT:??_R3_System_error@std@@8
rdata$r	ENDS
;	COMDAT ??_R1A@?0A@EA@error_category@std@@8
rdata$r	SEGMENT
??_R1A@?0A@EA@error_category@std@@8 DD FLAT:??_R0?AVerror_category@std@@@8 ; std::error_category::`RTTI Base Class Descriptor at (0,-1,0,64)'
	DD	00H
	DD	00H
	DD	0ffffffffH
	DD	00H
	DD	040H
	DD	FLAT:??_R3error_category@std@@8
rdata$r	ENDS
;	COMDAT ??_R2error_category@std@@8
rdata$r	SEGMENT
??_R2error_category@std@@8 DD FLAT:??_R1A@?0A@EA@error_category@std@@8 ; std::error_category::`RTTI Base Class Array'
rdata$r	ENDS
;	COMDAT ??_R3error_category@std@@8
rdata$r	SEGMENT
??_R3error_category@std@@8 DD 00H			; std::error_category::`RTTI Class Hierarchy Descriptor'
	DD	00H
	DD	01H
	DD	FLAT:??_R2error_category@std@@8
rdata$r	ENDS
;	COMDAT ??_R0?AVerror_category@std@@@8
data$r	SEGMENT
??_R0?AVerror_category@std@@@8 DD FLAT:??_7type_info@@6B@ ; std::error_category `RTTI Type Descriptor'
	DD	00H
	DB	'.?AVerror_category@std@@', 00H
data$r	ENDS
;	COMDAT ??_R1A@?0A@EA@runtime_error@std@@8
rdata$r	SEGMENT
??_R1A@?0A@EA@runtime_error@std@@8 DD FLAT:??_R0?AVruntime_error@std@@@8 ; std::runtime_error::`RTTI Base Class Descriptor at (0,-1,0,64)'
	DD	01H
	DD	00H
	DD	0ffffffffH
	DD	00H
	DD	040H
	DD	FLAT:??_R3runtime_error@std@@8
rdata$r	ENDS
;	COMDAT ??_R2runtime_error@std@@8
rdata$r	SEGMENT
??_R2runtime_error@std@@8 DD FLAT:??_R1A@?0A@EA@runtime_error@std@@8 ; std::runtime_error::`RTTI Base Class Array'
	DD	FLAT:??_R1A@?0A@EA@exception@std@@8
rdata$r	ENDS
;	COMDAT ??_R3runtime_error@std@@8
rdata$r	SEGMENT
??_R3runtime_error@std@@8 DD 00H			; std::runtime_error::`RTTI Class Hierarchy Descriptor'
	DD	00H
	DD	02H
	DD	FLAT:??_R2runtime_error@std@@8
rdata$r	ENDS
;	COMDAT ??_R4runtime_error@std@@6B@
rdata$r	SEGMENT
??_R4runtime_error@std@@6B@ DD 00H			; std::runtime_error::`RTTI Complete Object Locator'
	DD	00H
	DD	00H
	DD	FLAT:??_R0?AVruntime_error@std@@@8
	DD	FLAT:??_R3runtime_error@std@@8
rdata$r	ENDS
;	COMDAT ??_R1A@?0A@EA@exception@std@@8
rdata$r	SEGMENT
??_R1A@?0A@EA@exception@std@@8 DD FLAT:??_R0?AVexception@std@@@8 ; std::exception::`RTTI Base Class Descriptor at (0,-1,0,64)'
	DD	00H
	DD	00H
	DD	0ffffffffH
	DD	00H
	DD	040H
	DD	FLAT:??_R3exception@std@@8
rdata$r	ENDS
;	COMDAT ??_R2exception@std@@8
rdata$r	SEGMENT
??_R2exception@std@@8 DD FLAT:??_R1A@?0A@EA@exception@std@@8 ; std::exception::`RTTI Base Class Array'
rdata$r	ENDS
;	COMDAT ??_R3exception@std@@8
rdata$r	SEGMENT
??_R3exception@std@@8 DD 00H				; std::exception::`RTTI Class Hierarchy Descriptor'
	DD	00H
	DD	01H
	DD	FLAT:??_R2exception@std@@8
rdata$r	ENDS
;	COMDAT ??_R4exception@std@@6B@
rdata$r	SEGMENT
??_R4exception@std@@6B@ DD 00H				; std::exception::`RTTI Complete Object Locator'
	DD	00H
	DD	00H
	DD	FLAT:??_R0?AVexception@std@@@8
	DD	FLAT:??_R3exception@std@@8
rdata$r	ENDS
;	COMDAT ??_C@_0BA@JFNIOLAK@string?5too?5long@
CONST	SEGMENT
??_C@_0BA@JFNIOLAK@string?5too?5long@ DB 'string too long', 00H ; `string'
CONST	ENDS
;	COMDAT __CT??_R0?AV_System_error@std@@@8??0_System_error@std@@QAE@ABV01@@Z20
xdata$x	SEGMENT
__CT??_R0?AV_System_error@std@@@8??0_System_error@std@@QAE@ABV01@@Z20 DD 00H
	DD	FLAT:??_R0?AV_System_error@std@@@8
	DD	00H
	DD	0ffffffffH
	ORG $+4
	DD	014H
	DD	FLAT:??0_System_error@std@@QAE@ABV01@@Z
xdata$x	ENDS
;	COMDAT ??_R0?AV_System_error@std@@@8
data$r	SEGMENT
??_R0?AV_System_error@std@@@8 DD FLAT:??_7type_info@@6B@ ; std::_System_error `RTTI Type Descriptor'
	DD	00H
	DB	'.?AV_System_error@std@@', 00H
data$r	ENDS
;	COMDAT __CT??_R0?AVsystem_error@std@@@8??0system_error@std@@QAE@ABV01@@Z20
xdata$x	SEGMENT
__CT??_R0?AVsystem_error@std@@@8??0system_error@std@@QAE@ABV01@@Z20 DD 00H
	DD	FLAT:??_R0?AVsystem_error@std@@@8
	DD	00H
	DD	0ffffffffH
	ORG $+4
	DD	014H
	DD	FLAT:??0system_error@std@@QAE@ABV01@@Z
xdata$x	ENDS
;	COMDAT ??_R0?AVsystem_error@std@@@8
data$r	SEGMENT
??_R0?AVsystem_error@std@@@8 DD FLAT:??_7type_info@@6B@	; std::system_error `RTTI Type Descriptor'
	DD	00H
	DB	'.?AVsystem_error@std@@', 00H
data$r	ENDS
;	COMDAT __CT??_R0?AVfailure@ios_base@std@@@8??0failure@ios_base@std@@QAE@ABV012@@Z20
xdata$x	SEGMENT
__CT??_R0?AVfailure@ios_base@std@@@8??0failure@ios_base@std@@QAE@ABV012@@Z20 DD 00H
	DD	FLAT:??_R0?AVfailure@ios_base@std@@@8
	DD	00H
	DD	0ffffffffH
	ORG $+4
	DD	014H
	DD	FLAT:??0failure@ios_base@std@@QAE@ABV012@@Z
xdata$x	ENDS
;	COMDAT ??_R0?AVfailure@ios_base@std@@@8
data$r	SEGMENT
??_R0?AVfailure@ios_base@std@@@8 DD FLAT:??_7type_info@@6B@ ; std::ios_base::failure `RTTI Type Descriptor'
	DD	00H
	DB	'.?AVfailure@ios_base@std@@', 00H
data$r	ENDS
;	COMDAT __CTA5?AVfailure@ios_base@std@@
xdata$x	SEGMENT
__CTA5?AVfailure@ios_base@std@@ DD 05H
	DD	FLAT:__CT??_R0?AVfailure@ios_base@std@@@8??0failure@ios_base@std@@QAE@ABV012@@Z20
	DD	FLAT:__CT??_R0?AVsystem_error@std@@@8??0system_error@std@@QAE@ABV01@@Z20
	DD	FLAT:__CT??_R0?AV_System_error@std@@@8??0_System_error@std@@QAE@ABV01@@Z20
	DD	FLAT:__CT??_R0?AVruntime_error@std@@@8??0runtime_error@std@@QAE@ABV01@@Z12
	DD	FLAT:__CT??_R0?AVexception@std@@@8??0exception@std@@QAE@ABV01@@Z12
xdata$x	ENDS
;	COMDAT __TI5?AVfailure@ios_base@std@@
xdata$x	SEGMENT
__TI5?AVfailure@ios_base@std@@ DD 00H
	DD	FLAT:??1failure@ios_base@std@@UAE@XZ
	DD	00H
	DD	FLAT:__CTA5?AVfailure@ios_base@std@@
xdata$x	ENDS
;	COMDAT ??_C@_0BF@OOHOMBOF@ios_base?3?3eofbit?5set@
CONST	SEGMENT
??_C@_0BF@OOHOMBOF@ios_base?3?3eofbit?5set@ DB 'ios_base::eofbit set', 00H ; `string'
CONST	ENDS
;	COMDAT ??_C@_0BG@FMKFHCIL@ios_base?3?3failbit?5set@
CONST	SEGMENT
??_C@_0BG@FMKFHCIL@ios_base?3?3failbit?5set@ DB 'ios_base::failbit set', 00H ; `string'
CONST	ENDS
;	COMDAT ??_C@_0BF@PHHKMMFD@ios_base?3?3badbit?5set@
CONST	SEGMENT
??_C@_0BF@PHHKMMFD@ios_base?3?3badbit?5set@ DB 'ios_base::badbit set', 00H ; `string'
CONST	ENDS
;	COMDAT ??_7failure@ios_base@std@@6B@
CONST	SEGMENT
??_7failure@ios_base@std@@6B@ DD FLAT:??_R4failure@ios_base@std@@6B@ ; std::ios_base::failure::`vftable'
	DD	FLAT:??_Efailure@ios_base@std@@UAEPAXI@Z
	DD	FLAT:?what@exception@std@@UBEPBDXZ
CONST	ENDS
;	COMDAT ??_C@_0BG@PADBLCHM@iostream?5stream?5error@
CONST	SEGMENT
??_C@_0BG@PADBLCHM@iostream?5stream?5error@ DB 'iostream stream error', 00H ; `string'
CONST	ENDS
;	COMDAT ??_C@_08LLGCOLLL@iostream@
CONST	SEGMENT
??_C@_08LLGCOLLL@iostream@ DB 'iostream', 00H		; `string'
CONST	ENDS
;	COMDAT ??_7_Iostream_error_category@std@@6B@
CONST	SEGMENT
??_7_Iostream_error_category@std@@6B@ DD FLAT:??_R4_Iostream_error_category@std@@6B@ ; std::_Iostream_error_category::`vftable'
	DD	FLAT:??_E_Iostream_error_category@std@@UAEPAXI@Z
	DD	FLAT:?name@_Iostream_error_category@std@@UBEPBDXZ
	DD	FLAT:?message@_Iostream_error_category@std@@UBE?AV?$basic_string@DU?$char_traits@D@std@@V?$allocator@D@2@@2@H@Z
	DD	FLAT:?default_error_condition@error_category@std@@UBE?AVerror_condition@2@H@Z
	DD	FLAT:?equivalent@error_category@std@@UBE_NABVerror_code@2@H@Z
	DD	FLAT:?equivalent@error_category@std@@UBE_NHABVerror_condition@2@@Z
CONST	ENDS
;	COMDAT ??_C@_07DCLBNMLN@generic@
CONST	SEGMENT
??_C@_07DCLBNMLN@generic@ DB 'generic', 00H		; `string'
CONST	ENDS
;	COMDAT ??_7_Generic_error_category@std@@6B@
CONST	SEGMENT
??_7_Generic_error_category@std@@6B@ DD FLAT:??_R4_Generic_error_category@std@@6B@ ; std::_Generic_error_category::`vftable'
	DD	FLAT:??_E_Generic_error_category@std@@UAEPAXI@Z
	DD	FLAT:?name@_Generic_error_category@std@@UBEPBDXZ
	DD	FLAT:?message@_Generic_error_category@std@@UBE?AV?$basic_string@DU?$char_traits@D@std@@V?$allocator@D@2@@2@H@Z
	DD	FLAT:?default_error_condition@error_category@std@@UBE?AVerror_condition@2@H@Z
	DD	FLAT:?equivalent@error_category@std@@UBE_NABVerror_code@2@H@Z
	DD	FLAT:?equivalent@error_category@std@@UBE_NHABVerror_condition@2@@Z
CONST	ENDS
;	COMDAT ??_7system_error@std@@6B@
CONST	SEGMENT
??_7system_error@std@@6B@ DD FLAT:??_R4system_error@std@@6B@ ; std::system_error::`vftable'
	DD	FLAT:??_Esystem_error@std@@UAEPAXI@Z
	DD	FLAT:?what@exception@std@@UBEPBDXZ
CONST	ENDS
;	COMDAT ??_C@_02LMMGGCAJ@?3?5@
CONST	SEGMENT
??_C@_02LMMGGCAJ@?3?5@ DB ': ', 00H			; `string'
CONST	ENDS
;	COMDAT ??_7_System_error@std@@6B@
CONST	SEGMENT
??_7_System_error@std@@6B@ DD FLAT:??_R4_System_error@std@@6B@ ; std::_System_error::`vftable'
	DD	FLAT:??_E_System_error@std@@UAEPAXI@Z
	DD	FLAT:?what@exception@std@@UBEPBDXZ
CONST	ENDS
;	COMDAT __CT??_R0?AVexception@std@@@8??0exception@std@@QAE@ABV01@@Z12
xdata$x	SEGMENT
__CT??_R0?AVexception@std@@@8??0exception@std@@QAE@ABV01@@Z12 DD 00H
	DD	FLAT:??_R0?AVexception@std@@@8
	DD	00H
	DD	0ffffffffH
	ORG $+4
	DD	0cH
	DD	FLAT:??0exception@std@@QAE@ABV01@@Z
xdata$x	ENDS
;	COMDAT ??_R0?AVexception@std@@@8
data$r	SEGMENT
??_R0?AVexception@std@@@8 DD FLAT:??_7type_info@@6B@	; std::exception `RTTI Type Descriptor'
	DD	00H
	DB	'.?AVexception@std@@', 00H
data$r	ENDS
;	COMDAT __CT??_R0?AVruntime_error@std@@@8??0runtime_error@std@@QAE@ABV01@@Z12
xdata$x	SEGMENT
__CT??_R0?AVruntime_error@std@@@8??0runtime_error@std@@QAE@ABV01@@Z12 DD 00H
	DD	FLAT:??_R0?AVruntime_error@std@@@8
	DD	00H
	DD	0ffffffffH
	ORG $+4
	DD	0cH
	DD	FLAT:??0runtime_error@std@@QAE@ABV01@@Z
xdata$x	ENDS
;	COMDAT ??_R0?AVruntime_error@std@@@8
data$r	SEGMENT
??_R0?AVruntime_error@std@@@8 DD FLAT:??_7type_info@@6B@ ; std::runtime_error `RTTI Type Descriptor'
	DD	00H
	DB	'.?AVruntime_error@std@@', 00H
data$r	ENDS
;	COMDAT ??_7runtime_error@std@@6B@
CONST	SEGMENT
??_7runtime_error@std@@6B@ DD FLAT:??_R4runtime_error@std@@6B@ ; std::runtime_error::`vftable'
	DD	FLAT:??_Eruntime_error@std@@UAEPAXI@Z
	DD	FLAT:?what@exception@std@@UBEPBDXZ
CONST	ENDS
;	COMDAT ??_C@_0BC@EOODALEL@Unknown?5exception@
CONST	SEGMENT
??_C@_0BC@EOODALEL@Unknown?5exception@ DB 'Unknown exception', 00H ; `string'
CONST	ENDS
;	COMDAT ??_7exception@std@@6B@
CONST	SEGMENT
??_7exception@std@@6B@ DD FLAT:??_R4exception@std@@6B@	; std::exception::`vftable'
	DD	FLAT:??_Eexception@std@@UAEPAXI@Z
	DD	FLAT:?what@exception@std@@UBEPBDXZ
CONST	ENDS
;	COMDAT xdata$x
xdata$x	SEGMENT
__ehfuncinfo$??1sentry@?$basic_ostream@DU?$char_traits@D@std@@@std@@QAE@XZ DD 019930522H
	DD	00H
	DD	00H
	DD	2 DUP(00H)
	DD	2 DUP(00H)
	DD	00H
	DD	05H
xdata$x	ENDS
;	COMDAT xdata$x
xdata$x	SEGMENT
__unwindtable$??0sentry@?$basic_ostream@DU?$char_traits@D@std@@@std@@QAE@AAV12@@Z DD 0ffffffffH
	DD	FLAT:__unwindfunclet$??0sentry@?$basic_ostream@DU?$char_traits@D@std@@@std@@QAE@AAV12@@Z$0
__ehfuncinfo$??0sentry@?$basic_ostream@DU?$char_traits@D@std@@@std@@QAE@AAV12@@Z DD 019930522H
	DD	01H
	DD	FLAT:__unwindtable$??0sentry@?$basic_ostream@DU?$char_traits@D@std@@@std@@QAE@AAV12@@Z
	DD	2 DUP(00H)
	DD	2 DUP(00H)
	DD	00H
	DD	01H
xdata$x	ENDS
;	COMDAT xdata$x
xdata$x	SEGMENT
__ehfuncinfo$??1_Sentry_base@?$basic_ostream@DU?$char_traits@D@std@@@std@@QAE@XZ DD 019930522H
	DD	00H
	DD	00H
	DD	2 DUP(00H)
	DD	2 DUP(00H)
	DD	00H
	DD	05H
xdata$x	ENDS
;	COMDAT xdata$x
xdata$x	SEGMENT
__catchsym$??$?6U?$char_traits@D@std@@@std@@YAAAV?$basic_ostream@DU?$char_traits@D@std@@@0@AAV10@PBD@Z$3 DD 040H
	DD	00H
	DD	00H
	DD	FLAT:__catch$??$?6U?$char_traits@D@std@@@std@@YAAAV?$basic_ostream@DU?$char_traits@D@std@@@0@AAV10@PBD@Z$0
__tryblocktable$??$?6U?$char_traits@D@std@@@std@@YAAAV?$basic_ostream@DU?$char_traits@D@std@@@0@AAV10@PBD@Z DD 01H
	DD	01H
	DD	02H
	DD	01H
	DD	FLAT:__catchsym$??$?6U?$char_traits@D@std@@@std@@YAAAV?$basic_ostream@DU?$char_traits@D@std@@@0@AAV10@PBD@Z$3
__unwindtable$??$?6U?$char_traits@D@std@@@std@@YAAAV?$basic_ostream@DU?$char_traits@D@std@@@0@AAV10@PBD@Z DD 0ffffffffH
	DD	FLAT:__unwindfunclet$??$?6U?$char_traits@D@std@@@std@@YAAAV?$basic_ostream@DU?$char_traits@D@std@@@0@AAV10@PBD@Z$2
	DD	00H
	DD	00H
	DD	00H
	DD	00H
__ehfuncinfo$??$?6U?$char_traits@D@std@@@std@@YAAAV?$basic_ostream@DU?$char_traits@D@std@@@0@AAV10@PBD@Z DD 019930522H
	DD	03H
	DD	FLAT:__unwindtable$??$?6U?$char_traits@D@std@@@std@@YAAAV?$basic_ostream@DU?$char_traits@D@std@@@0@AAV10@PBD@Z
	DD	01H
	DD	FLAT:__tryblocktable$??$?6U?$char_traits@D@std@@@std@@YAAAV?$basic_ostream@DU?$char_traits@D@std@@@0@AAV10@PBD@Z
	DD	2 DUP(00H)
	DD	00H
	DD	01H
xdata$x	ENDS
;	COMDAT xdata$x
xdata$x	SEGMENT
__unwindtable$?flush@?$basic_ostream@DU?$char_traits@D@std@@@std@@QAEAAV12@XZ DD 0ffffffffH
	DD	FLAT:__unwindfunclet$?flush@?$basic_ostream@DU?$char_traits@D@std@@@std@@QAEAAV12@XZ$0
__ehfuncinfo$?flush@?$basic_ostream@DU?$char_traits@D@std@@@std@@QAEAAV12@XZ DD 019930522H
	DD	01H
	DD	FLAT:__unwindtable$?flush@?$basic_ostream@DU?$char_traits@D@std@@@std@@QAEAAV12@XZ
	DD	2 DUP(00H)
	DD	2 DUP(00H)
	DD	00H
	DD	01H
xdata$x	ENDS
;	COMDAT xdata$x
xdata$x	SEGMENT
__catchsym$?_Osfx@?$basic_ostream@DU?$char_traits@D@std@@@std@@QAEXXZ$2 DD 040H
	DD	00H
	DD	00H
	DD	FLAT:__catch$?_Osfx@?$basic_ostream@DU?$char_traits@D@std@@@std@@QAEXXZ$0
__unwindtable$?_Osfx@?$basic_ostream@DU?$char_traits@D@std@@@std@@QAEXXZ DD 0ffffffffH
	DD	00H
	DD	0ffffffffH
	DD	00H
__tryblocktable$?_Osfx@?$basic_ostream@DU?$char_traits@D@std@@@std@@QAEXXZ DD 00H
	DD	00H
	DD	01H
	DD	01H
	DD	FLAT:__catchsym$?_Osfx@?$basic_ostream@DU?$char_traits@D@std@@@std@@QAEXXZ$2
__ehfuncinfo$?_Osfx@?$basic_ostream@DU?$char_traits@D@std@@@std@@QAEXXZ DD 019930522H
	DD	02H
	DD	FLAT:__unwindtable$?_Osfx@?$basic_ostream@DU?$char_traits@D@std@@@std@@QAEXXZ
	DD	01H
	DD	FLAT:__tryblocktable$?_Osfx@?$basic_ostream@DU?$char_traits@D@std@@@std@@QAEXXZ
	DD	2 DUP(00H)
	DD	00H
	DD	01H
xdata$x	ENDS
;	COMDAT xdata$x
xdata$x	SEGMENT
__unwindtable$??0system_error@std@@QAE@Verror_code@1@PBD@Z DD 0ffffffffH
	DD	FLAT:__unwindfunclet$??0system_error@std@@QAE@Verror_code@1@PBD@Z$0
__ehfuncinfo$??0system_error@std@@QAE@Verror_code@1@PBD@Z DD 019930522H
	DD	01H
	DD	FLAT:__unwindtable$??0system_error@std@@QAE@Verror_code@1@PBD@Z
	DD	2 DUP(00H)
	DD	2 DUP(00H)
	DD	00H
	DD	01H
xdata$x	ENDS
;	COMDAT xdata$x
xdata$x	SEGMENT
__unwindtable$??0_System_error@std@@IAE@Verror_code@1@ABV?$basic_string@DU?$char_traits@D@std@@V?$allocator@D@2@@1@@Z DD 0ffffffffH
	DD	FLAT:__unwindfunclet$??0_System_error@std@@IAE@Verror_code@1@ABV?$basic_string@DU?$char_traits@D@std@@V?$allocator@D@2@@1@@Z$1
__ehfuncinfo$??0_System_error@std@@IAE@Verror_code@1@ABV?$basic_string@DU?$char_traits@D@std@@V?$allocator@D@2@@1@@Z DD 019930522H
	DD	01H
	DD	FLAT:__unwindtable$??0_System_error@std@@IAE@Verror_code@1@ABV?$basic_string@DU?$char_traits@D@std@@V?$allocator@D@2@@1@@Z
	DD	2 DUP(00H)
	DD	2 DUP(00H)
	DD	00H
	DD	01H
xdata$x	ENDS
;	COMDAT xdata$x
xdata$x	SEGMENT
__unwindtable$?_Makestr@_System_error@std@@CA?AV?$basic_string@DU?$char_traits@D@std@@V?$allocator@D@2@@2@Verror_code@2@V32@@Z DD 0ffffffffH
	DD	FLAT:__unwindfunclet$?_Makestr@_System_error@std@@CA?AV?$basic_string@DU?$char_traits@D@std@@V?$allocator@D@2@@2@Verror_code@2@V32@@Z$0
	DD	00H
	DD	FLAT:__unwindfunclet$?_Makestr@_System_error@std@@CA?AV?$basic_string@DU?$char_traits@D@std@@V?$allocator@D@2@@2@Verror_code@2@V32@@Z$1
__ehfuncinfo$?_Makestr@_System_error@std@@CA?AV?$basic_string@DU?$char_traits@D@std@@V?$allocator@D@2@@2@Verror_code@2@V32@@Z DD 019930522H
	DD	02H
	DD	FLAT:__unwindtable$?_Makestr@_System_error@std@@CA?AV?$basic_string@DU?$char_traits@D@std@@V?$allocator@D@2@@2@Verror_code@2@V32@@Z
	DD	2 DUP(00H)
	DD	2 DUP(00H)
	DD	00H
	DD	01H
xdata$x	ENDS
;	COMDAT xdata$x
xdata$x	SEGMENT
__ehfuncinfo$?iostream_category@std@@YAABVerror_category@1@XZ DD 019930522H
	DD	00H
	DD	00H
	DD	2 DUP(00H)
	DD	2 DUP(00H)
	DD	00H
	DD	05H
xdata$x	ENDS
;	COMDAT xdata$x
xdata$x	SEGMENT
__ehfuncinfo$?c_str@?$basic_string@DU?$char_traits@D@std@@V?$allocator@D@2@@std@@QBEPBDXZ DD 019930522H
	DD	00H
	DD	00H
	DD	2 DUP(00H)
	DD	2 DUP(00H)
	DD	00H
	DD	05H
xdata$x	ENDS
;	COMDAT xdata$x
xdata$x	SEGMENT
__ehfuncinfo$??1?$basic_string@DU?$char_traits@D@std@@V?$allocator@D@2@@std@@QAE@XZ DD 019930522H
	DD	00H
	DD	00H
	DD	2 DUP(00H)
	DD	2 DUP(00H)
	DD	00H
	DD	05H
xdata$x	ENDS
;	COMDAT xdata$x
xdata$x	SEGMENT
__ehfuncinfo$?_Assign_rv_contents_with_alloc_always_equal@?$basic_string@DU?$char_traits@D@std@@V?$allocator@D@2@@std@@QAEX$$QAV12@U?$integral_constant@_N$00@2@@Z DD 019930522H
	DD	00H
	DD	00H
	DD	2 DUP(00H)
	DD	2 DUP(00H)
	DD	00H
	DD	05H
xdata$x	ENDS
;	COMDAT xdata$x
xdata$x	SEGMENT
__ehfuncinfo$??0?$basic_string@DU?$char_traits@D@std@@V?$allocator@D@2@@std@@QAE@$$QAV01@@Z DD 019930522H
	DD	00H
	DD	00H
	DD	2 DUP(00H)
	DD	2 DUP(00H)
	DD	00H
	DD	05H
xdata$x	ENDS
;	COMDAT xdata$x
xdata$x	SEGMENT
__unwindtable$??0?$basic_string@DU?$char_traits@D@std@@V?$allocator@D@2@@std@@QAE@QBD@Z DD 0ffffffffH
	DD	FLAT:__unwindfunclet$??0?$basic_string@DU?$char_traits@D@std@@V?$allocator@D@2@@std@@QAE@QBD@Z$0
__ehfuncinfo$??0?$basic_string@DU?$char_traits@D@std@@V?$allocator@D@2@@std@@QAE@QBD@Z DD 019930522H
	DD	01H
	DD	FLAT:__unwindtable$??0?$basic_string@DU?$char_traits@D@std@@V?$allocator@D@2@@std@@QAE@QBD@Z
	DD	2 DUP(00H)
	DD	2 DUP(00H)
	DD	00H
	DD	01H
xdata$x	ENDS
;	COMDAT xdata$x
xdata$x	SEGMENT
__unwindtable$??0?$basic_string@DU?$char_traits@D@std@@V?$allocator@D@2@@std@@QAE@ABV01@@Z DD 0ffffffffH
	DD	FLAT:__unwindfunclet$??0?$basic_string@DU?$char_traits@D@std@@V?$allocator@D@2@@std@@QAE@ABV01@@Z$0
__ehfuncinfo$??0?$basic_string@DU?$char_traits@D@std@@V?$allocator@D@2@@std@@QAE@ABV01@@Z DD 019930522H
	DD	01H
	DD	FLAT:__unwindtable$??0?$basic_string@DU?$char_traits@D@std@@V?$allocator@D@2@@std@@QAE@ABV01@@Z
	DD	2 DUP(00H)
	DD	2 DUP(00H)
	DD	00H
	DD	01H
xdata$x	ENDS
; Function compile flags: /Odtp
; File c:\program files (x86)\microsoft visual studio\2017\community\vc\tools\msvc\14.16.27023\include\xmemory0
;	COMDAT ??$_Allocate_manually_vector_aligned@U_Default_allocate_traits@std@@@std@@YAPAXI@Z
_TEXT	SEGMENT
__Ptr$ = -12						; size = 4
__Ptr_container$ = -8					; size = 4
__Block_size$ = -4					; size = 4
__Bytes$ = 8						; size = 4
??$_Allocate_manually_vector_aligned@U_Default_allocate_traits@std@@@std@@YAPAXI@Z PROC ; std::_Allocate_manually_vector_aligned<std::_Default_allocate_traits>, COMDAT

; 92   : 	{	// allocate _Bytes manually aligned to at least _Big_allocation_alignment

  00000	55		 push	 ebp
  00001	8b ec		 mov	 ebp, esp
  00003	83 ec 0c	 sub	 esp, 12			; 0000000cH

; 93   : 	size_t _Block_size = _Non_user_size + _Bytes;

  00006	8b 45 08	 mov	 eax, DWORD PTR __Bytes$[ebp]
  00009	83 c0 23	 add	 eax, 35			; 00000023H
  0000c	89 45 fc	 mov	 DWORD PTR __Block_size$[ebp], eax

; 94   : 	if (_Block_size <= _Bytes)

  0000f	8b 4d fc	 mov	 ecx, DWORD PTR __Block_size$[ebp]
  00012	3b 4d 08	 cmp	 ecx, DWORD PTR __Bytes$[ebp]
  00015	77 07		 ja	 SHORT $LN8@Allocate_m

; 95   : 		{	// add overflow, try allocating all of memory and assume the
; 96   : 			// allocation function will throw bad_alloc
; 97   : 		_Block_size = static_cast<size_t>(-1);

  00017	c7 45 fc ff ff
	ff ff		 mov	 DWORD PTR __Block_size$[ebp], -1
$LN8@Allocate_m:

; 98   : 		}
; 99   : 
; 100  : 	const uintptr_t _Ptr_container = reinterpret_cast<uintptr_t>(_Traits::_Allocate(_Block_size));

  0001e	8b 55 fc	 mov	 edx, DWORD PTR __Block_size$[ebp]
  00021	52		 push	 edx
  00022	e8 00 00 00 00	 call	 ?_Allocate@_Default_allocate_traits@std@@SAPAXI@Z ; std::_Default_allocate_traits::_Allocate
  00027	83 c4 04	 add	 esp, 4
  0002a	89 45 f8	 mov	 DWORD PTR __Ptr_container$[ebp], eax
$LN4@Allocate_m:

; 101  : 	_STL_VERIFY(_Ptr_container != 0, "invalid argument");	// validate even in release since we're doing p[-1]

  0002d	83 7d f8 00	 cmp	 DWORD PTR __Ptr_container$[ebp], 0
  00031	74 02		 je	 SHORT $LN7@Allocate_m
  00033	eb 09		 jmp	 SHORT $LN2@Allocate_m
$LN7@Allocate_m:
  00035	e8 00 00 00 00	 call	 __invalid_parameter_noinfo_noreturn
  0003a	33 c0		 xor	 eax, eax
  0003c	75 f7		 jne	 SHORT $LN7@Allocate_m
$LN2@Allocate_m:
  0003e	33 c9		 xor	 ecx, ecx
  00040	75 eb		 jne	 SHORT $LN4@Allocate_m

; 102  : 	void * const _Ptr = reinterpret_cast<void *>((_Ptr_container + _Non_user_size)
; 103  : 		& ~(_Big_allocation_alignment - 1));

  00042	8b 55 f8	 mov	 edx, DWORD PTR __Ptr_container$[ebp]
  00045	83 c2 23	 add	 edx, 35			; 00000023H
  00048	83 e2 e0	 and	 edx, -32		; ffffffe0H
  0004b	89 55 f4	 mov	 DWORD PTR __Ptr$[ebp], edx

; 104  : 	static_cast<uintptr_t *>(_Ptr)[-1] = _Ptr_container;

  0004e	b8 04 00 00 00	 mov	 eax, 4
  00053	6b c8 ff	 imul	 ecx, eax, -1
  00056	8b 55 f4	 mov	 edx, DWORD PTR __Ptr$[ebp]
  00059	8b 45 f8	 mov	 eax, DWORD PTR __Ptr_container$[ebp]
  0005c	89 04 0a	 mov	 DWORD PTR [edx+ecx], eax

; 105  : 
; 106  :   #ifdef _DEBUG
; 107  : 	static_cast<uintptr_t *>(_Ptr)[-2] = _Big_allocation_sentinel;
; 108  :   #endif /* _DEBUG */
; 109  : 	return (_Ptr);

  0005f	8b 45 f4	 mov	 eax, DWORD PTR __Ptr$[ebp]
$LN11@Allocate_m:

; 110  : 	}

  00062	8b e5		 mov	 esp, ebp
  00064	5d		 pop	 ebp
  00065	c3		 ret	 0
??$_Allocate_manually_vector_aligned@U_Default_allocate_traits@std@@@std@@YAPAXI@Z ENDP ; std::_Allocate_manually_vector_aligned<std::_Default_allocate_traits>
_TEXT	ENDS
; Function compile flags: /Odtp
; File c:\program files (x86)\microsoft visual studio\2017\community\vc\tools\msvc\14.16.27023\include\type_traits
;	COMDAT ??$forward@ABQAD@std@@YAABQADABQAD@Z
_TEXT	SEGMENT
__Arg$ = 8						; size = 4
??$forward@ABQAD@std@@YAABQADABQAD@Z PROC		; std::forward<char * const &>, COMDAT

; 1573 : 	{	// forward an lvalue as either an lvalue or an rvalue

  00000	55		 push	 ebp
  00001	8b ec		 mov	 ebp, esp

; 1574 : 	return (static_cast<_Ty&&>(_Arg));

  00003	8b 45 08	 mov	 eax, DWORD PTR __Arg$[ebp]

; 1575 : 	}

  00006	5d		 pop	 ebp
  00007	c3		 ret	 0
??$forward@ABQAD@std@@YAABQADABQAD@Z ENDP		; std::forward<char * const &>
_TEXT	ENDS
; Function compile flags: /Odtp
; File c:\program files (x86)\microsoft visual studio\2017\community\vc\tools\msvc\14.16.27023\include\xutility
;	COMDAT ??$?0V?$allocator@D@std@@$$V@?$_Compressed_pair@V?$allocator@D@std@@V?$_String_val@U?$_Simple_types@D@std@@@2@$00@std@@QAE@U_One_then_variadic_args_t@1@$$QAV?$allocator@D@1@@Z
_TEXT	SEGMENT
_this$ = -4						; size = 4
___formal$ = 8						; size = 1
__Val1$ = 12						; size = 4
??$?0V?$allocator@D@std@@$$V@?$_Compressed_pair@V?$allocator@D@std@@V?$_String_val@U?$_Simple_types@D@std@@@2@$00@std@@QAE@U_One_then_variadic_args_t@1@$$QAV?$allocator@D@1@@Z PROC ; std::_Compressed_pair<std::allocator<char>,std::_String_val<std::_Simple_types<char> >,1>::_Compressed_pair<std::allocator<char>,std::_String_val<std::_Simple_types<char> >,1><std::allocator<char> >, COMDAT
; _this$ = ecx

; 287  : 		{	// construct from forwarded values

  00000	55		 push	 ebp
  00001	8b ec		 mov	 ebp, esp
  00003	51		 push	 ecx
  00004	89 4d fc	 mov	 DWORD PTR _this$[ebp], ecx

; 285  : 		: _Ty1(_STD forward<_Other1>(_Val1)),

  00007	8b 45 0c	 mov	 eax, DWORD PTR __Val1$[ebp]
  0000a	50		 push	 eax
  0000b	e8 00 00 00 00	 call	 ??$forward@V?$allocator@D@std@@@std@@YA$$QAV?$allocator@D@0@AAV10@@Z ; std::forward<std::allocator<char> >
  00010	83 c4 04	 add	 esp, 4

; 286  : 			_Myval2(_STD forward<_Other2>(_Val2)...)

  00013	8b 4d fc	 mov	 ecx, DWORD PTR _this$[ebp]
  00016	e8 00 00 00 00	 call	 ??0?$_String_val@U?$_Simple_types@D@std@@@std@@QAE@XZ ; std::_String_val<std::_Simple_types<char> >::_String_val<std::_Simple_types<char> >

; 288  : 		}

  0001b	8b 45 fc	 mov	 eax, DWORD PTR _this$[ebp]
  0001e	8b e5		 mov	 esp, ebp
  00020	5d		 pop	 ebp
  00021	c2 08 00	 ret	 8
??$?0V?$allocator@D@std@@$$V@?$_Compressed_pair@V?$allocator@D@std@@V?$_String_val@U?$_Simple_types@D@std@@@2@$00@std@@QAE@U_One_then_variadic_args_t@1@$$QAV?$allocator@D@1@@Z ENDP ; std::_Compressed_pair<std::allocator<char>,std::_String_val<std::_Simple_types<char> >,1>::_Compressed_pair<std::allocator<char>,std::_String_val<std::_Simple_types<char> >,1><std::allocator<char> >
_TEXT	ENDS
; Function compile flags: /Odtp
; File c:\program files (x86)\microsoft visual studio\2017\community\vc\tools\msvc\14.16.27023\include\type_traits
;	COMDAT ??$forward@V?$allocator@D@std@@@std@@YA$$QAV?$allocator@D@0@AAV10@@Z
_TEXT	SEGMENT
__Arg$ = 8						; size = 4
??$forward@V?$allocator@D@std@@@std@@YA$$QAV?$allocator@D@0@AAV10@@Z PROC ; std::forward<std::allocator<char> >, COMDAT

; 1573 : 	{	// forward an lvalue as either an lvalue or an rvalue

  00000	55		 push	 ebp
  00001	8b ec		 mov	 ebp, esp

; 1574 : 	return (static_cast<_Ty&&>(_Arg));

  00003	8b 45 08	 mov	 eax, DWORD PTR __Arg$[ebp]

; 1575 : 	}

  00006	5d		 pop	 ebp
  00007	c3		 ret	 0
??$forward@V?$allocator@D@std@@@std@@YA$$QAV?$allocator@D@0@AAV10@@Z ENDP ; std::forward<std::allocator<char> >
_TEXT	ENDS
; Function compile flags: /Odtp
; File c:\program files (x86)\microsoft visual studio\2017\community\vc\tools\msvc\14.16.27023\include\streambuf
;	COMDAT ?_Pnavail@?$basic_streambuf@DU?$char_traits@D@std@@@std@@IBE_JXZ
_TEXT	SEGMENT
tv69 = -8						; size = 4
_this$ = -4						; size = 4
?_Pnavail@?$basic_streambuf@DU?$char_traits@D@std@@@std@@IBE_JXZ PROC ; std::basic_streambuf<char,std::char_traits<char> >::_Pnavail, COMDAT
; _this$ = ecx

; 311  : 		{	// count number of available positions in write buffer

  00000	55		 push	 ebp
  00001	8b ec		 mov	 ebp, esp
  00003	83 ec 08	 sub	 esp, 8
  00006	89 4d fc	 mov	 DWORD PTR _this$[ebp], ecx

; 312  : 		return (*_IPnext != nullptr ? *_IPcount : 0);

  00009	8b 45 fc	 mov	 eax, DWORD PTR _this$[ebp]
  0000c	8b 48 20	 mov	 ecx, DWORD PTR [eax+32]
  0000f	83 39 00	 cmp	 DWORD PTR [ecx], 0
  00012	74 0d		 je	 SHORT $LN3@Pnavail
  00014	8b 55 fc	 mov	 edx, DWORD PTR _this$[ebp]
  00017	8b 42 30	 mov	 eax, DWORD PTR [edx+48]
  0001a	8b 08		 mov	 ecx, DWORD PTR [eax]
  0001c	89 4d f8	 mov	 DWORD PTR tv69[ebp], ecx
  0001f	eb 07		 jmp	 SHORT $LN4@Pnavail
$LN3@Pnavail:
  00021	c7 45 f8 00 00
	00 00		 mov	 DWORD PTR tv69[ebp], 0
$LN4@Pnavail:
  00028	8b 45 f8	 mov	 eax, DWORD PTR tv69[ebp]
  0002b	99		 cdq

; 313  : 		}

  0002c	8b e5		 mov	 esp, ebp
  0002e	5d		 pop	 ebp
  0002f	c3		 ret	 0
?_Pnavail@?$basic_streambuf@DU?$char_traits@D@std@@@std@@IBE_JXZ ENDP ; std::basic_streambuf<char,std::char_traits<char> >::_Pnavail
_TEXT	ENDS
; Function compile flags: /Odtp
; File c:\program files (x86)\microsoft visual studio\2017\community\vc\tools\msvc\14.16.27023\include\streambuf
;	COMDAT ?_Pninc@?$basic_streambuf@DU?$char_traits@D@std@@@std@@IAEPADXZ
_TEXT	SEGMENT
tv76 = -8						; size = 4
_this$ = -4						; size = 4
?_Pninc@?$basic_streambuf@DU?$char_traits@D@std@@@std@@IAEPADXZ PROC ; std::basic_streambuf<char,std::char_traits<char> >::_Pninc, COMDAT
; _this$ = ecx

; 305  : 		{	// increment current position in write buffer

  00000	55		 push	 ebp
  00001	8b ec		 mov	 ebp, esp
  00003	83 ec 08	 sub	 esp, 8
  00006	89 4d fc	 mov	 DWORD PTR _this$[ebp], ecx

; 306  : 		--*_IPcount;

  00009	8b 45 fc	 mov	 eax, DWORD PTR _this$[ebp]
  0000c	8b 48 30	 mov	 ecx, DWORD PTR [eax+48]
  0000f	8b 11		 mov	 edx, DWORD PTR [ecx]
  00011	83 ea 01	 sub	 edx, 1
  00014	8b 45 fc	 mov	 eax, DWORD PTR _this$[ebp]
  00017	8b 48 30	 mov	 ecx, DWORD PTR [eax+48]
  0001a	89 11		 mov	 DWORD PTR [ecx], edx

; 307  : 		return ((*_IPnext)++);

  0001c	8b 55 fc	 mov	 edx, DWORD PTR _this$[ebp]
  0001f	8b 42 20	 mov	 eax, DWORD PTR [edx+32]
  00022	8b 08		 mov	 ecx, DWORD PTR [eax]
  00024	89 4d f8	 mov	 DWORD PTR tv76[ebp], ecx
  00027	8b 55 fc	 mov	 edx, DWORD PTR _this$[ebp]
  0002a	8b 42 20	 mov	 eax, DWORD PTR [edx+32]
  0002d	8b 08		 mov	 ecx, DWORD PTR [eax]
  0002f	83 c1 01	 add	 ecx, 1
  00032	8b 55 fc	 mov	 edx, DWORD PTR _this$[ebp]
  00035	8b 42 20	 mov	 eax, DWORD PTR [edx+32]
  00038	89 08		 mov	 DWORD PTR [eax], ecx
  0003a	8b 45 f8	 mov	 eax, DWORD PTR tv76[ebp]

; 308  : 		}

  0003d	8b e5		 mov	 esp, ebp
  0003f	5d		 pop	 ebp
  00040	c3		 ret	 0
?_Pninc@?$basic_streambuf@DU?$char_traits@D@std@@@std@@IAEPADXZ ENDP ; std::basic_streambuf<char,std::char_traits<char> >::_Pninc
_TEXT	ENDS
; Function compile flags: /Odtp
; File c:\program files (x86)\microsoft visual studio\2017\community\vc\tools\msvc\14.16.27023\include\streambuf
;	COMDAT ?sputn@?$basic_streambuf@DU?$char_traits@D@std@@@std@@QAE_JPBD_J@Z
_TEXT	SEGMENT
_this$ = -4						; size = 4
__Ptr$ = 8						; size = 4
__Count$ = 12						; size = 8
?sputn@?$basic_streambuf@DU?$char_traits@D@std@@@std@@QAE_JPBD_J@Z PROC ; std::basic_streambuf<char,std::char_traits<char> >::sputn, COMDAT
; _this$ = ecx

; 205  : 		{	// put _Count characters from array beginning at _Ptr

  00000	55		 push	 ebp
  00001	8b ec		 mov	 ebp, esp
  00003	51		 push	 ecx
  00004	89 4d fc	 mov	 DWORD PTR _this$[ebp], ecx

; 206  : 		return (xsputn(_Ptr, _Count));

  00007	8b 45 10	 mov	 eax, DWORD PTR __Count$[ebp+4]
  0000a	50		 push	 eax
  0000b	8b 4d 0c	 mov	 ecx, DWORD PTR __Count$[ebp]
  0000e	51		 push	 ecx
  0000f	8b 55 08	 mov	 edx, DWORD PTR __Ptr$[ebp]
  00012	52		 push	 edx
  00013	8b 45 fc	 mov	 eax, DWORD PTR _this$[ebp]
  00016	8b 10		 mov	 edx, DWORD PTR [eax]
  00018	8b 4d fc	 mov	 ecx, DWORD PTR _this$[ebp]
  0001b	8b 42 24	 mov	 eax, DWORD PTR [edx+36]
  0001e	ff d0		 call	 eax

; 207  : 		}

  00020	8b e5		 mov	 esp, ebp
  00022	5d		 pop	 ebp
  00023	c2 0c 00	 ret	 12			; 0000000cH
?sputn@?$basic_streambuf@DU?$char_traits@D@std@@@std@@QAE_JPBD_J@Z ENDP ; std::basic_streambuf<char,std::char_traits<char> >::sputn
_TEXT	ENDS
; Function compile flags: /Odtp
; File c:\program files (x86)\microsoft visual studio\2017\community\vc\tools\msvc\14.16.27023\include\streambuf
;	COMDAT ?sputc@?$basic_streambuf@DU?$char_traits@D@std@@@std@@QAEHD@Z
_TEXT	SEGMENT
tv85 = -20						; size = 8
tv78 = -12						; size = 4
$T1 = -8						; size = 4
_this$ = -4						; size = 4
__Ch$ = 8						; size = 1
?sputc@?$basic_streambuf@DU?$char_traits@D@std@@@std@@QAEHD@Z PROC ; std::basic_streambuf<char,std::char_traits<char> >::sputc, COMDAT
; _this$ = ecx

; 197  : 		{	// put a character

  00000	55		 push	 ebp
  00001	8b ec		 mov	 ebp, esp
  00003	83 ec 14	 sub	 esp, 20			; 00000014H
  00006	89 4d fc	 mov	 DWORD PTR _this$[ebp], ecx

; 198  : 		return (0 < _Pnavail()

  00009	8b 4d fc	 mov	 ecx, DWORD PTR _this$[ebp]
  0000c	e8 00 00 00 00	 call	 ?_Pnavail@?$basic_streambuf@DU?$char_traits@D@std@@@std@@IBE_JXZ ; std::basic_streambuf<char,std::char_traits<char> >::_Pnavail
  00011	89 45 ec	 mov	 DWORD PTR tv85[ebp], eax
  00014	89 55 f0	 mov	 DWORD PTR tv85[ebp+4], edx
  00017	83 7d f0 00	 cmp	 DWORD PTR tv85[ebp+4], 0
  0001b	7c 2c		 jl	 SHORT $LN3@sputc
  0001d	7f 06		 jg	 SHORT $LN5@sputc
  0001f	83 7d ec 00	 cmp	 DWORD PTR tv85[ebp], 0
  00023	76 24		 jbe	 SHORT $LN3@sputc
$LN5@sputc:
  00025	8b 4d fc	 mov	 ecx, DWORD PTR _this$[ebp]
  00028	e8 00 00 00 00	 call	 ?_Pninc@?$basic_streambuf@DU?$char_traits@D@std@@@std@@IAEPADXZ ; std::basic_streambuf<char,std::char_traits<char> >::_Pninc
  0002d	89 45 f8	 mov	 DWORD PTR $T1[ebp], eax
  00030	8b 45 f8	 mov	 eax, DWORD PTR $T1[ebp]
  00033	8a 4d 08	 mov	 cl, BYTE PTR __Ch$[ebp]
  00036	88 08		 mov	 BYTE PTR [eax], cl
  00038	8b 55 f8	 mov	 edx, DWORD PTR $T1[ebp]
  0003b	52		 push	 edx
  0003c	e8 00 00 00 00	 call	 ?to_int_type@?$char_traits@D@std@@SAHABD@Z ; std::char_traits<char>::to_int_type
  00041	83 c4 04	 add	 esp, 4
  00044	89 45 f4	 mov	 DWORD PTR tv78[ebp], eax
  00047	eb 1d		 jmp	 SHORT $LN4@sputc
$LN3@sputc:
  00049	8d 45 08	 lea	 eax, DWORD PTR __Ch$[ebp]
  0004c	50		 push	 eax
  0004d	e8 00 00 00 00	 call	 ?to_int_type@?$char_traits@D@std@@SAHABD@Z ; std::char_traits<char>::to_int_type
  00052	83 c4 04	 add	 esp, 4
  00055	50		 push	 eax
  00056	8b 4d fc	 mov	 ecx, DWORD PTR _this$[ebp]
  00059	8b 11		 mov	 edx, DWORD PTR [ecx]
  0005b	8b 4d fc	 mov	 ecx, DWORD PTR _this$[ebp]
  0005e	8b 42 0c	 mov	 eax, DWORD PTR [edx+12]
  00061	ff d0		 call	 eax
  00063	89 45 f4	 mov	 DWORD PTR tv78[ebp], eax
$LN4@sputc:
  00066	8b 45 f4	 mov	 eax, DWORD PTR tv78[ebp]

; 199  : 			? _Traits::to_int_type(*_Pninc() = _Ch)
; 200  : 			: overflow(_Traits::to_int_type(_Ch)));
; 201  : 		}

  00069	8b e5		 mov	 esp, ebp
  0006b	5d		 pop	 ebp
  0006c	c2 04 00	 ret	 4
?sputc@?$basic_streambuf@DU?$char_traits@D@std@@@std@@QAEHD@Z ENDP ; std::basic_streambuf<char,std::char_traits<char> >::sputc
_TEXT	ENDS
; Function compile flags: /Odtp
; File c:\program files (x86)\microsoft visual studio\2017\community\vc\tools\msvc\14.16.27023\include\streambuf
;	COMDAT ?pubsync@?$basic_streambuf@DU?$char_traits@D@std@@@std@@QAEHXZ
_TEXT	SEGMENT
_this$ = -4						; size = 4
?pubsync@?$basic_streambuf@DU?$char_traits@D@std@@@std@@QAEHXZ PROC ; std::basic_streambuf<char,std::char_traits<char> >::pubsync, COMDAT
; _this$ = ecx

; 142  : 		{	// synchronize with external agent

  00000	55		 push	 ebp
  00001	8b ec		 mov	 ebp, esp
  00003	51		 push	 ecx
  00004	89 4d fc	 mov	 DWORD PTR _this$[ebp], ecx

; 143  : 		return (sync());

  00007	8b 45 fc	 mov	 eax, DWORD PTR _this$[ebp]
  0000a	8b 10		 mov	 edx, DWORD PTR [eax]
  0000c	8b 4d fc	 mov	 ecx, DWORD PTR _this$[ebp]
  0000f	8b 42 34	 mov	 eax, DWORD PTR [edx+52]
  00012	ff d0		 call	 eax

; 144  : 		}

  00014	8b e5		 mov	 esp, ebp
  00016	5d		 pop	 ebp
  00017	c3		 ret	 0
?pubsync@?$basic_streambuf@DU?$char_traits@D@std@@@std@@QAEHXZ ENDP ; std::basic_streambuf<char,std::char_traits<char> >::pubsync
_TEXT	ENDS
; Function compile flags: /Odtp
; File c:\program files (x86)\microsoft visual studio\2017\community\vc\tools\msvc\14.16.27023\include\ostream
;	COMDAT ??Bsentry@?$basic_ostream@DU?$char_traits@D@std@@@std@@QBE_NXZ
_TEXT	SEGMENT
_this$ = -4						; size = 4
??Bsentry@?$basic_ostream@DU?$char_traits@D@std@@@std@@QBE_NXZ PROC ; std::basic_ostream<char,std::char_traits<char> >::sentry::operator bool, COMDAT
; _this$ = ecx

; 152  : 			{	// test if stream state okay

  00000	55		 push	 ebp
  00001	8b ec		 mov	 ebp, esp
  00003	51		 push	 ecx
  00004	89 4d fc	 mov	 DWORD PTR _this$[ebp], ecx

; 153  : 			return (_Ok);

  00007	8b 45 fc	 mov	 eax, DWORD PTR _this$[ebp]
  0000a	8a 40 04	 mov	 al, BYTE PTR [eax+4]

; 154  : 			}

  0000d	8b e5		 mov	 esp, ebp
  0000f	5d		 pop	 ebp
  00010	c3		 ret	 0
??Bsentry@?$basic_ostream@DU?$char_traits@D@std@@@std@@QBE_NXZ ENDP ; std::basic_ostream<char,std::char_traits<char> >::sentry::operator bool
_TEXT	ENDS
; Function compile flags: /Odtp
; File c:\program files (x86)\microsoft visual studio\2017\community\vc\tools\msvc\14.16.27023\include\ostream
;	COMDAT ??1sentry@?$basic_ostream@DU?$char_traits@D@std@@@std@@QAE@XZ
_TEXT	SEGMENT
_this$ = -16						; size = 4
__$EHRec$ = -12						; size = 12
??1sentry@?$basic_ostream@DU?$char_traits@D@std@@@std@@QAE@XZ PROC ; std::basic_ostream<char,std::char_traits<char> >::sentry::~sentry, COMDAT
; _this$ = ecx

; 135  : 			{	// destroy the object

  00000	55		 push	 ebp
  00001	8b ec		 mov	 ebp, esp
  00003	6a ff		 push	 -1
  00005	68 00 00 00 00	 push	 __ehhandler$??1sentry@?$basic_ostream@DU?$char_traits@D@std@@@std@@QAE@XZ
  0000a	64 a1 00 00 00
	00		 mov	 eax, DWORD PTR fs:0
  00010	50		 push	 eax
  00011	51		 push	 ecx
  00012	a1 00 00 00 00	 mov	 eax, DWORD PTR ___security_cookie
  00017	33 c5		 xor	 eax, ebp
  00019	50		 push	 eax
  0001a	8d 45 f4	 lea	 eax, DWORD PTR __$EHRec$[ebp]
  0001d	64 a3 00 00 00
	00		 mov	 DWORD PTR fs:0, eax
  00023	89 4d f0	 mov	 DWORD PTR _this$[ebp], ecx

; 136  :  #if _HAS_EXCEPTIONS
; 137  : 			if (!_STD uncaught_exception())	// TRANSITION, OS#15518458

  00026	e8 00 00 00 00	 call	 ?uncaught_exception@std@@YA_NXZ ; std::uncaught_exception
  0002b	0f b6 c0	 movzx	 eax, al
  0002e	85 c0		 test	 eax, eax
  00030	75 0a		 jne	 SHORT $LN1@sentry

; 138  : 				{
; 139  : 				this->_Myostr._Osfx();

  00032	8b 4d f0	 mov	 ecx, DWORD PTR _this$[ebp]
  00035	8b 09		 mov	 ecx, DWORD PTR [ecx]
  00037	e8 00 00 00 00	 call	 ?_Osfx@?$basic_ostream@DU?$char_traits@D@std@@@std@@QAEXXZ ; std::basic_ostream<char,std::char_traits<char> >::_Osfx
$LN1@sentry:

; 140  : 				}
; 141  :  #else /* _HAS_EXCEPTIONS */
; 142  : 			this->_Myostr._Osfx();
; 143  :  #endif /* _HAS_EXCEPTIONS */
; 144  : 			}

  0003c	8b 4d f0	 mov	 ecx, DWORD PTR _this$[ebp]
  0003f	e8 00 00 00 00	 call	 ??1_Sentry_base@?$basic_ostream@DU?$char_traits@D@std@@@std@@QAE@XZ ; std::basic_ostream<char,std::char_traits<char> >::_Sentry_base::~_Sentry_base
  00044	8b 4d f4	 mov	 ecx, DWORD PTR __$EHRec$[ebp]
  00047	64 89 0d 00 00
	00 00		 mov	 DWORD PTR fs:0, ecx
  0004e	59		 pop	 ecx
  0004f	8b e5		 mov	 esp, ebp
  00051	5d		 pop	 ebp
  00052	c3		 ret	 0
_TEXT	ENDS
;	COMDAT text$x
text$x	SEGMENT
__ehhandler$??1sentry@?$basic_ostream@DU?$char_traits@D@std@@@std@@QAE@XZ:
  00000	8b 54 24 08	 mov	 edx, DWORD PTR [esp+8]
  00004	8d 42 0c	 lea	 eax, DWORD PTR [edx+12]
  00007	8b 4a f8	 mov	 ecx, DWORD PTR [edx-8]
  0000a	33 c8		 xor	 ecx, eax
  0000c	e8 00 00 00 00	 call	 @__security_check_cookie@4
  00011	b8 00 00 00 00	 mov	 eax, OFFSET __ehfuncinfo$??1sentry@?$basic_ostream@DU?$char_traits@D@std@@@std@@QAE@XZ
  00016	e9 00 00 00 00	 jmp	 ___CxxFrameHandler3
text$x	ENDS
??1sentry@?$basic_ostream@DU?$char_traits@D@std@@@std@@QAE@XZ ENDP ; std::basic_ostream<char,std::char_traits<char> >::sentry::~sentry
; Function compile flags: /Odtp
; File c:\program files (x86)\microsoft visual studio\2017\community\vc\tools\msvc\14.16.27023\include\ostream
;	COMDAT ??0sentry@?$basic_ostream@DU?$char_traits@D@std@@@std@@QAE@AAV12@@Z
_TEXT	SEGMENT
_this$ = -16						; size = 4
__$EHRec$ = -12						; size = 12
__Ostr$ = 8						; size = 4
??0sentry@?$basic_ostream@DU?$char_traits@D@std@@@std@@QAE@AAV12@@Z PROC ; std::basic_ostream<char,std::char_traits<char> >::sentry::sentry, COMDAT
; _this$ = ecx

; 121  : 			{	// construct locking and testing stream

  00000	55		 push	 ebp
  00001	8b ec		 mov	 ebp, esp
  00003	6a ff		 push	 -1
  00005	68 00 00 00 00	 push	 __ehhandler$??0sentry@?$basic_ostream@DU?$char_traits@D@std@@@std@@QAE@AAV12@@Z
  0000a	64 a1 00 00 00
	00		 mov	 eax, DWORD PTR fs:0
  00010	50		 push	 eax
  00011	51		 push	 ecx
  00012	a1 00 00 00 00	 mov	 eax, DWORD PTR ___security_cookie
  00017	33 c5		 xor	 eax, ebp
  00019	50		 push	 eax
  0001a	8d 45 f4	 lea	 eax, DWORD PTR __$EHRec$[ebp]
  0001d	64 a3 00 00 00
	00		 mov	 DWORD PTR fs:0, eax
  00023	89 4d f0	 mov	 DWORD PTR _this$[ebp], ecx

; 120  : 			: _Sentry_base(_Ostr)

  00026	8b 45 08	 mov	 eax, DWORD PTR __Ostr$[ebp]
  00029	50		 push	 eax
  0002a	8b 4d f0	 mov	 ecx, DWORD PTR _this$[ebp]
  0002d	e8 00 00 00 00	 call	 ??0_Sentry_base@?$basic_ostream@DU?$char_traits@D@std@@@std@@QAE@AAV12@@Z ; std::basic_ostream<char,std::char_traits<char> >::_Sentry_base::_Sentry_base
  00032	c7 45 fc 00 00
	00 00		 mov	 DWORD PTR __$EHRec$[ebp+8], 0

; 122  : 			if (_Ostr.good() && _Ostr.tie() != nullptr && _Ostr.tie() != &_Ostr)

  00039	8b 4d 08	 mov	 ecx, DWORD PTR __Ostr$[ebp]
  0003c	8b 11		 mov	 edx, DWORD PTR [ecx]
  0003e	8b 4d 08	 mov	 ecx, DWORD PTR __Ostr$[ebp]
  00041	03 4a 04	 add	 ecx, DWORD PTR [edx+4]
  00044	e8 00 00 00 00	 call	 ?good@ios_base@std@@QBE_NXZ ; std::ios_base::good
  00049	0f b6 c0	 movzx	 eax, al
  0004c	85 c0		 test	 eax, eax
  0004e	74 44		 je	 SHORT $LN2@sentry
  00050	8b 4d 08	 mov	 ecx, DWORD PTR __Ostr$[ebp]
  00053	8b 11		 mov	 edx, DWORD PTR [ecx]
  00055	8b 4d 08	 mov	 ecx, DWORD PTR __Ostr$[ebp]
  00058	03 4a 04	 add	 ecx, DWORD PTR [edx+4]
  0005b	e8 00 00 00 00	 call	 ?tie@?$basic_ios@DU?$char_traits@D@std@@@std@@QBEPAV?$basic_ostream@DU?$char_traits@D@std@@@2@XZ ; std::basic_ios<char,std::char_traits<char> >::tie
  00060	85 c0		 test	 eax, eax
  00062	74 30		 je	 SHORT $LN2@sentry
  00064	8b 45 08	 mov	 eax, DWORD PTR __Ostr$[ebp]
  00067	8b 08		 mov	 ecx, DWORD PTR [eax]
  00069	8b 55 08	 mov	 edx, DWORD PTR __Ostr$[ebp]
  0006c	03 51 04	 add	 edx, DWORD PTR [ecx+4]
  0006f	8b ca		 mov	 ecx, edx
  00071	e8 00 00 00 00	 call	 ?tie@?$basic_ios@DU?$char_traits@D@std@@@std@@QBEPAV?$basic_ostream@DU?$char_traits@D@std@@@2@XZ ; std::basic_ios<char,std::char_traits<char> >::tie
  00076	3b 45 08	 cmp	 eax, DWORD PTR __Ostr$[ebp]
  00079	74 19		 je	 SHORT $LN2@sentry

; 123  : 				_Ostr.tie()->flush();

  0007b	8b 45 08	 mov	 eax, DWORD PTR __Ostr$[ebp]
  0007e	8b 08		 mov	 ecx, DWORD PTR [eax]
  00080	8b 55 08	 mov	 edx, DWORD PTR __Ostr$[ebp]
  00083	03 51 04	 add	 edx, DWORD PTR [ecx+4]
  00086	8b ca		 mov	 ecx, edx
  00088	e8 00 00 00 00	 call	 ?tie@?$basic_ios@DU?$char_traits@D@std@@@std@@QBEPAV?$basic_ostream@DU?$char_traits@D@std@@@2@XZ ; std::basic_ios<char,std::char_traits<char> >::tie
  0008d	8b c8		 mov	 ecx, eax
  0008f	e8 00 00 00 00	 call	 ?flush@?$basic_ostream@DU?$char_traits@D@std@@@std@@QAEAAV12@XZ ; std::basic_ostream<char,std::char_traits<char> >::flush
$LN2@sentry:

; 124  : 			_Ok = _Ostr.good();	// store test only after flushing tie

  00094	8b 45 08	 mov	 eax, DWORD PTR __Ostr$[ebp]
  00097	8b 08		 mov	 ecx, DWORD PTR [eax]
  00099	8b 55 08	 mov	 edx, DWORD PTR __Ostr$[ebp]
  0009c	03 51 04	 add	 edx, DWORD PTR [ecx+4]
  0009f	8b ca		 mov	 ecx, edx
  000a1	e8 00 00 00 00	 call	 ?good@ios_base@std@@QBE_NXZ ; std::ios_base::good
  000a6	8b 4d f0	 mov	 ecx, DWORD PTR _this$[ebp]
  000a9	88 41 04	 mov	 BYTE PTR [ecx+4], al

; 125  : 			}

  000ac	c7 45 fc ff ff
	ff ff		 mov	 DWORD PTR __$EHRec$[ebp+8], -1
  000b3	8b 45 f0	 mov	 eax, DWORD PTR _this$[ebp]
  000b6	8b 4d f4	 mov	 ecx, DWORD PTR __$EHRec$[ebp]
  000b9	64 89 0d 00 00
	00 00		 mov	 DWORD PTR fs:0, ecx
  000c0	59		 pop	 ecx
  000c1	8b e5		 mov	 esp, ebp
  000c3	5d		 pop	 ebp
  000c4	c2 04 00	 ret	 4
_TEXT	ENDS
;	COMDAT text$x
text$x	SEGMENT
__unwindfunclet$??0sentry@?$basic_ostream@DU?$char_traits@D@std@@@std@@QAE@AAV12@@Z$0:
  00000	8b 4d f0	 mov	 ecx, DWORD PTR _this$[ebp]
  00003	e9 00 00 00 00	 jmp	 ??1_Sentry_base@?$basic_ostream@DU?$char_traits@D@std@@@std@@QAE@XZ ; std::basic_ostream<char,std::char_traits<char> >::_Sentry_base::~_Sentry_base
__ehhandler$??0sentry@?$basic_ostream@DU?$char_traits@D@std@@@std@@QAE@AAV12@@Z:
  00008	8b 54 24 08	 mov	 edx, DWORD PTR [esp+8]
  0000c	8d 42 0c	 lea	 eax, DWORD PTR [edx+12]
  0000f	8b 4a f8	 mov	 ecx, DWORD PTR [edx-8]
  00012	33 c8		 xor	 ecx, eax
  00014	e8 00 00 00 00	 call	 @__security_check_cookie@4
  00019	b8 00 00 00 00	 mov	 eax, OFFSET __ehfuncinfo$??0sentry@?$basic_ostream@DU?$char_traits@D@std@@@std@@QAE@AAV12@@Z
  0001e	e9 00 00 00 00	 jmp	 ___CxxFrameHandler3
text$x	ENDS
??0sentry@?$basic_ostream@DU?$char_traits@D@std@@@std@@QAE@AAV12@@Z ENDP ; std::basic_ostream<char,std::char_traits<char> >::sentry::sentry
; Function compile flags: /Odtp
; File c:\program files (x86)\microsoft visual studio\2017\community\vc\tools\msvc\14.16.27023\include\ostream
;	COMDAT ??1_Sentry_base@?$basic_ostream@DU?$char_traits@D@std@@@std@@QAE@XZ
_TEXT	SEGMENT
tv92 = -28						; size = 4
tv86 = -24						; size = 4
_this$ = -20						; size = 4
tv72 = -16						; size = 4
__$EHRec$ = -12						; size = 12
??1_Sentry_base@?$basic_ostream@DU?$char_traits@D@std@@@std@@QAE@XZ PROC ; std::basic_ostream<char,std::char_traits<char> >::_Sentry_base::~_Sentry_base, COMDAT
; _this$ = ecx

; 105  : 			{	// destroy after unlocking

  00000	55		 push	 ebp
  00001	8b ec		 mov	 ebp, esp
  00003	6a ff		 push	 -1
  00005	68 00 00 00 00	 push	 __ehhandler$??1_Sentry_base@?$basic_ostream@DU?$char_traits@D@std@@@std@@QAE@XZ
  0000a	64 a1 00 00 00
	00		 mov	 eax, DWORD PTR fs:0
  00010	50		 push	 eax
  00011	83 ec 10	 sub	 esp, 16			; 00000010H
  00014	a1 00 00 00 00	 mov	 eax, DWORD PTR ___security_cookie
  00019	33 c5		 xor	 eax, ebp
  0001b	50		 push	 eax
  0001c	8d 45 f4	 lea	 eax, DWORD PTR __$EHRec$[ebp]
  0001f	64 a3 00 00 00
	00		 mov	 DWORD PTR fs:0, eax
  00025	89 4d ec	 mov	 DWORD PTR _this$[ebp], ecx

; 106  : 			if (_Myostr.rdbuf() != nullptr)

  00028	8b 45 ec	 mov	 eax, DWORD PTR _this$[ebp]
  0002b	8b 08		 mov	 ecx, DWORD PTR [eax]
  0002d	89 4d f0	 mov	 DWORD PTR tv72[ebp], ecx
  00030	8b 55 f0	 mov	 edx, DWORD PTR tv72[ebp]
  00033	8b 02		 mov	 eax, DWORD PTR [edx]
  00035	8b 4d f0	 mov	 ecx, DWORD PTR tv72[ebp]
  00038	03 48 04	 add	 ecx, DWORD PTR [eax+4]
  0003b	e8 00 00 00 00	 call	 ?rdbuf@?$basic_ios@DU?$char_traits@D@std@@@std@@QBEPAV?$basic_streambuf@DU?$char_traits@D@std@@@2@XZ ; std::basic_ios<char,std::char_traits<char> >::rdbuf
  00040	85 c0		 test	 eax, eax
  00042	74 2a		 je	 SHORT $LN3@Sentry_bas

; 107  : 				_Myostr.rdbuf()->_Unlock();

  00044	8b 4d ec	 mov	 ecx, DWORD PTR _this$[ebp]
  00047	8b 11		 mov	 edx, DWORD PTR [ecx]
  00049	89 55 e8	 mov	 DWORD PTR tv86[ebp], edx
  0004c	8b 45 e8	 mov	 eax, DWORD PTR tv86[ebp]
  0004f	8b 08		 mov	 ecx, DWORD PTR [eax]
  00051	8b 55 e8	 mov	 edx, DWORD PTR tv86[ebp]
  00054	03 51 04	 add	 edx, DWORD PTR [ecx+4]
  00057	8b ca		 mov	 ecx, edx
  00059	e8 00 00 00 00	 call	 ?rdbuf@?$basic_ios@DU?$char_traits@D@std@@@std@@QBEPAV?$basic_streambuf@DU?$char_traits@D@std@@@2@XZ ; std::basic_ios<char,std::char_traits<char> >::rdbuf
  0005e	89 45 e4	 mov	 DWORD PTR tv92[ebp], eax
  00061	8b 45 e4	 mov	 eax, DWORD PTR tv92[ebp]
  00064	8b 10		 mov	 edx, DWORD PTR [eax]
  00066	8b 4d e4	 mov	 ecx, DWORD PTR tv92[ebp]
  00069	8b 42 08	 mov	 eax, DWORD PTR [edx+8]
  0006c	ff d0		 call	 eax
$LN3@Sentry_bas:

; 108  : 			}

  0006e	8b 4d f4	 mov	 ecx, DWORD PTR __$EHRec$[ebp]
  00071	64 89 0d 00 00
	00 00		 mov	 DWORD PTR fs:0, ecx
  00078	59		 pop	 ecx
  00079	8b e5		 mov	 esp, ebp
  0007b	5d		 pop	 ebp
  0007c	c3		 ret	 0
_TEXT	ENDS
;	COMDAT text$x
text$x	SEGMENT
__ehhandler$??1_Sentry_base@?$basic_ostream@DU?$char_traits@D@std@@@std@@QAE@XZ:
  00000	8b 54 24 08	 mov	 edx, DWORD PTR [esp+8]
  00004	8d 42 0c	 lea	 eax, DWORD PTR [edx+12]
  00007	8b 4a ec	 mov	 ecx, DWORD PTR [edx-20]
  0000a	33 c8		 xor	 ecx, eax
  0000c	e8 00 00 00 00	 call	 @__security_check_cookie@4
  00011	b8 00 00 00 00	 mov	 eax, OFFSET __ehfuncinfo$??1_Sentry_base@?$basic_ostream@DU?$char_traits@D@std@@@std@@QAE@XZ
  00016	e9 00 00 00 00	 jmp	 ___CxxFrameHandler3
text$x	ENDS
??1_Sentry_base@?$basic_ostream@DU?$char_traits@D@std@@@std@@QAE@XZ ENDP ; std::basic_ostream<char,std::char_traits<char> >::_Sentry_base::~_Sentry_base
; Function compile flags: /Odtp
; File c:\program files (x86)\microsoft visual studio\2017\community\vc\tools\msvc\14.16.27023\include\ostream
;	COMDAT ??0_Sentry_base@?$basic_ostream@DU?$char_traits@D@std@@@std@@QAE@AAV12@@Z
_TEXT	SEGMENT
tv93 = -16						; size = 4
tv87 = -12						; size = 4
tv73 = -8						; size = 4
_this$ = -4						; size = 4
__Ostr$ = 8						; size = 4
??0_Sentry_base@?$basic_ostream@DU?$char_traits@D@std@@@std@@QAE@AAV12@@Z PROC ; std::basic_ostream<char,std::char_traits<char> >::_Sentry_base::_Sentry_base, COMDAT
; _this$ = ecx

; 99   : 			{	// lock the stream buffer, if there

  00000	55		 push	 ebp
  00001	8b ec		 mov	 ebp, esp
  00003	83 ec 10	 sub	 esp, 16			; 00000010H
  00006	89 4d fc	 mov	 DWORD PTR _this$[ebp], ecx

; 98   : 			: _Myostr(_Ostr)

  00009	8b 45 fc	 mov	 eax, DWORD PTR _this$[ebp]
  0000c	8b 4d 08	 mov	 ecx, DWORD PTR __Ostr$[ebp]
  0000f	89 08		 mov	 DWORD PTR [eax], ecx

; 100  : 			if (_Myostr.rdbuf() != nullptr)

  00011	8b 55 fc	 mov	 edx, DWORD PTR _this$[ebp]
  00014	8b 02		 mov	 eax, DWORD PTR [edx]
  00016	89 45 f8	 mov	 DWORD PTR tv73[ebp], eax
  00019	8b 4d f8	 mov	 ecx, DWORD PTR tv73[ebp]
  0001c	8b 11		 mov	 edx, DWORD PTR [ecx]
  0001e	8b 4d f8	 mov	 ecx, DWORD PTR tv73[ebp]
  00021	03 4a 04	 add	 ecx, DWORD PTR [edx+4]
  00024	e8 00 00 00 00	 call	 ?rdbuf@?$basic_ios@DU?$char_traits@D@std@@@std@@QBEPAV?$basic_streambuf@DU?$char_traits@D@std@@@2@XZ ; std::basic_ios<char,std::char_traits<char> >::rdbuf
  00029	85 c0		 test	 eax, eax
  0002b	74 28		 je	 SHORT $LN1@Sentry_bas

; 101  : 				_Myostr.rdbuf()->_Lock();

  0002d	8b 45 fc	 mov	 eax, DWORD PTR _this$[ebp]
  00030	8b 08		 mov	 ecx, DWORD PTR [eax]
  00032	89 4d f4	 mov	 DWORD PTR tv87[ebp], ecx
  00035	8b 55 f4	 mov	 edx, DWORD PTR tv87[ebp]
  00038	8b 02		 mov	 eax, DWORD PTR [edx]
  0003a	8b 4d f4	 mov	 ecx, DWORD PTR tv87[ebp]
  0003d	03 48 04	 add	 ecx, DWORD PTR [eax+4]
  00040	e8 00 00 00 00	 call	 ?rdbuf@?$basic_ios@DU?$char_traits@D@std@@@std@@QBEPAV?$basic_streambuf@DU?$char_traits@D@std@@@2@XZ ; std::basic_ios<char,std::char_traits<char> >::rdbuf
  00045	89 45 f0	 mov	 DWORD PTR tv93[ebp], eax
  00048	8b 4d f0	 mov	 ecx, DWORD PTR tv93[ebp]
  0004b	8b 11		 mov	 edx, DWORD PTR [ecx]
  0004d	8b 4d f0	 mov	 ecx, DWORD PTR tv93[ebp]
  00050	8b 42 04	 mov	 eax, DWORD PTR [edx+4]
  00053	ff d0		 call	 eax
$LN1@Sentry_bas:

; 102  : 			}

  00055	8b 45 fc	 mov	 eax, DWORD PTR _this$[ebp]
  00058	8b e5		 mov	 esp, ebp
  0005a	5d		 pop	 ebp
  0005b	c2 04 00	 ret	 4
??0_Sentry_base@?$basic_ostream@DU?$char_traits@D@std@@@std@@QAE@AAV12@@Z ENDP ; std::basic_ostream<char,std::char_traits<char> >::_Sentry_base::_Sentry_base
_TEXT	ENDS
; Function compile flags: /Odtp
; File c:\program files (x86)\microsoft visual studio\2017\community\vc\tools\msvc\14.16.27023\include\system_error
;	COMDAT ??$_Immortalize_impl@V_Iostream_error_category@std@@@std@@YGHPAX0PAPAX@Z
_TEXT	SEGMENT
$T1 = -4						; size = 4
___formal$ = 8						; size = 4
__Storage_ptr$ = 12					; size = 4
___formal$ = 16						; size = 4
??$_Immortalize_impl@V_Iostream_error_category@std@@@std@@YGHPAX0PAPAX@Z PROC ; std::_Immortalize_impl<std::_Iostream_error_category>, COMDAT

; 600  : 	{	// adapt True Placement New to _Execute_once

  00000	55		 push	 ebp
  00001	8b ec		 mov	 ebp, esp
  00003	51		 push	 ecx

; 601  : 	::new (_Storage_ptr) _Ty();

  00004	8b 45 0c	 mov	 eax, DWORD PTR __Storage_ptr$[ebp]
  00007	50		 push	 eax
  00008	6a 08		 push	 8
  0000a	e8 00 00 00 00	 call	 ??2@YAPAXIPAX@Z		; operator new
  0000f	83 c4 08	 add	 esp, 8
  00012	89 45 fc	 mov	 DWORD PTR $T1[ebp], eax
  00015	8b 4d fc	 mov	 ecx, DWORD PTR $T1[ebp]
  00018	e8 00 00 00 00	 call	 ??0_Iostream_error_category@std@@QAE@XZ ; std::_Iostream_error_category::_Iostream_error_category

; 602  : 	return (1);

  0001d	b8 01 00 00 00	 mov	 eax, 1

; 603  : 	}

  00022	8b e5		 mov	 esp, ebp
  00024	5d		 pop	 ebp
  00025	c2 0c 00	 ret	 12			; 0000000cH
??$_Immortalize_impl@V_Iostream_error_category@std@@@std@@YGHPAX0PAPAX@Z ENDP ; std::_Immortalize_impl<std::_Iostream_error_category>
_TEXT	ENDS
; Function compile flags: /Odtp
; File c:\program files (x86)\microsoft visual studio\2017\community\vc\tools\msvc\14.16.27023\include\xstring
;	COMDAT ??$_Reallocate_for@V<lambda_9366063389c5f42a00a5088cf24e69de>@@PBD@?$basic_string@DU?$char_traits@D@std@@V?$allocator@D@2@@std@@QAEAAV01@IV<lambda_9366063389c5f42a00a5088cf24e69de>@@PBD@Z
_TEXT	SEGMENT
__Old_capacity$ = -24					; size = 4
__New_capacity$ = -20					; size = 4
__Al$ = -16						; size = 4
__New_ptr$ = -12					; size = 4
_this$ = -8						; size = 4
__My_data$ = -4						; size = 4
__New_size$ = 8						; size = 4
__Fn$ = 12						; size = 1
_<_Args_0>$ = 16					; size = 4
??$_Reallocate_for@V<lambda_9366063389c5f42a00a5088cf24e69de>@@PBD@?$basic_string@DU?$char_traits@D@std@@V?$allocator@D@2@@std@@QAEAAV01@IV<lambda_9366063389c5f42a00a5088cf24e69de>@@PBD@Z PROC ; std::basic_string<char,std::char_traits<char>,std::allocator<char> >::_Reallocate_for<<lambda_9366063389c5f42a00a5088cf24e69de>,char const *>, COMDAT
; _this$ = ecx

; 3887 : 		{	// reallocate to store exactly _New_size elements, new buffer prepared by

  00000	55		 push	 ebp
  00001	8b ec		 mov	 ebp, esp
  00003	83 ec 18	 sub	 esp, 24			; 00000018H
  00006	89 4d f8	 mov	 DWORD PTR _this$[ebp], ecx

; 3888 : 			// _Fn(_New_ptr, _New_size, _Args...)
; 3889 : 		if (_New_size > max_size())

  00009	8b 4d f8	 mov	 ecx, DWORD PTR _this$[ebp]
  0000c	e8 00 00 00 00	 call	 ?max_size@?$basic_string@DU?$char_traits@D@std@@V?$allocator@D@2@@std@@QBEIXZ ; std::basic_string<char,std::char_traits<char>,std::allocator<char> >::max_size
  00011	39 45 08	 cmp	 DWORD PTR __New_size$[ebp], eax
  00014	76 05		 jbe	 SHORT $LN2@Reallocate

; 3890 : 			{
; 3891 : 			_Xlen();	// result too long

  00016	e8 00 00 00 00	 call	 ?_Xlen@?$basic_string@DU?$char_traits@D@std@@V?$allocator@D@2@@std@@SAXXZ ; std::basic_string<char,std::char_traits<char>,std::allocator<char> >::_Xlen
$LN2@Reallocate:

; 3892 : 			}
; 3893 : 
; 3894 : 		auto& _My_data = this->_Get_data();

  0001b	8b 4d f8	 mov	 ecx, DWORD PTR _this$[ebp]
  0001e	e8 00 00 00 00	 call	 ?_Get_data@?$_String_alloc@U?$_String_base_types@DV?$allocator@D@std@@@std@@@std@@QAEAAV?$_String_val@U?$_Simple_types@D@std@@@2@XZ ; std::_String_alloc<std::_String_base_types<char,std::allocator<char> > >::_Get_data
  00023	89 45 fc	 mov	 DWORD PTR __My_data$[ebp], eax

; 3895 : 		const size_type _Old_capacity = _My_data._Myres;

  00026	8b 45 fc	 mov	 eax, DWORD PTR __My_data$[ebp]
  00029	8b 48 14	 mov	 ecx, DWORD PTR [eax+20]
  0002c	89 4d e8	 mov	 DWORD PTR __Old_capacity$[ebp], ecx

; 3896 : 		const size_type _New_capacity = _Calculate_growth(_New_size);

  0002f	8b 55 08	 mov	 edx, DWORD PTR __New_size$[ebp]
  00032	52		 push	 edx
  00033	8b 4d f8	 mov	 ecx, DWORD PTR _this$[ebp]
  00036	e8 00 00 00 00	 call	 ?_Calculate_growth@?$basic_string@DU?$char_traits@D@std@@V?$allocator@D@2@@std@@QBEII@Z ; std::basic_string<char,std::char_traits<char>,std::allocator<char> >::_Calculate_growth
  0003b	89 45 ec	 mov	 DWORD PTR __New_capacity$[ebp], eax

; 3897 : 		auto& _Al = this->_Getal();

  0003e	8b 4d f8	 mov	 ecx, DWORD PTR _this$[ebp]
  00041	e8 00 00 00 00	 call	 ?_Getal@?$_String_alloc@U?$_String_base_types@DV?$allocator@D@std@@@std@@@std@@QAEAAV?$allocator@D@2@XZ ; std::_String_alloc<std::_String_base_types<char,std::allocator<char> > >::_Getal
  00046	89 45 f0	 mov	 DWORD PTR __Al$[ebp], eax

; 3898 : 		const pointer _New_ptr = _Al.allocate(_New_capacity + 1); // throws

  00049	8b 45 ec	 mov	 eax, DWORD PTR __New_capacity$[ebp]
  0004c	83 c0 01	 add	 eax, 1
  0004f	50		 push	 eax
  00050	8b 4d f0	 mov	 ecx, DWORD PTR __Al$[ebp]
  00053	e8 00 00 00 00	 call	 ?allocate@?$allocator@D@std@@QAEPADI@Z ; std::allocator<char>::allocate
  00058	89 45 f4	 mov	 DWORD PTR __New_ptr$[ebp], eax

; 3899 : 		_My_data._Orphan_all();

  0005b	8b 4d fc	 mov	 ecx, DWORD PTR __My_data$[ebp]
  0005e	e8 00 00 00 00	 call	 ?_Orphan_all@_Container_base0@std@@QAEXXZ ; std::_Container_base0::_Orphan_all

; 3900 : 		_My_data._Mysize = _New_size;

  00063	8b 4d fc	 mov	 ecx, DWORD PTR __My_data$[ebp]
  00066	8b 55 08	 mov	 edx, DWORD PTR __New_size$[ebp]
  00069	89 51 10	 mov	 DWORD PTR [ecx+16], edx

; 3901 : 		_My_data._Myres = _New_capacity;

  0006c	8b 45 fc	 mov	 eax, DWORD PTR __My_data$[ebp]
  0006f	8b 4d ec	 mov	 ecx, DWORD PTR __New_capacity$[ebp]
  00072	89 48 14	 mov	 DWORD PTR [eax+20], ecx

; 3902 : 		_Fn(_Unfancy(_New_ptr), _New_size, _Args...);

  00075	8b 55 10	 mov	 edx, DWORD PTR _<_Args_0>$[ebp]
  00078	52		 push	 edx
  00079	8b 45 08	 mov	 eax, DWORD PTR __New_size$[ebp]
  0007c	50		 push	 eax
  0007d	8b 4d f4	 mov	 ecx, DWORD PTR __New_ptr$[ebp]
  00080	51		 push	 ecx
  00081	e8 00 00 00 00	 call	 ??$_Unfancy@D@std@@YAPADPAD@Z ; std::_Unfancy<char>
  00086	83 c4 04	 add	 esp, 4
  00089	50		 push	 eax
  0008a	8d 4d 0c	 lea	 ecx, DWORD PTR __Fn$[ebp]
  0008d	e8 00 00 00 00	 call	 ??R<lambda_9366063389c5f42a00a5088cf24e69de>@@QBEXQADIQBD@Z ; <lambda_9366063389c5f42a00a5088cf24e69de>::operator()

; 3903 : 		if (this->_BUF_SIZE <= _Old_capacity)

  00092	83 7d e8 10	 cmp	 DWORD PTR __Old_capacity$[ebp], 16 ; 00000010H
  00096	72 1f		 jb	 SHORT $LN3@Reallocate

; 3904 : 			{
; 3905 : 			_Al.deallocate(_My_data._Bx._Ptr, _Old_capacity + 1);

  00098	8b 55 e8	 mov	 edx, DWORD PTR __Old_capacity$[ebp]
  0009b	83 c2 01	 add	 edx, 1
  0009e	52		 push	 edx
  0009f	8b 45 fc	 mov	 eax, DWORD PTR __My_data$[ebp]
  000a2	8b 08		 mov	 ecx, DWORD PTR [eax]
  000a4	51		 push	 ecx
  000a5	8b 4d f0	 mov	 ecx, DWORD PTR __Al$[ebp]
  000a8	e8 00 00 00 00	 call	 ?deallocate@?$allocator@D@std@@QAEXQADI@Z ; std::allocator<char>::deallocate

; 3906 : 			_My_data._Bx._Ptr = _New_ptr;

  000ad	8b 55 fc	 mov	 edx, DWORD PTR __My_data$[ebp]
  000b0	8b 45 f4	 mov	 eax, DWORD PTR __New_ptr$[ebp]
  000b3	89 02		 mov	 DWORD PTR [edx], eax

; 3907 : 			}
; 3908 : 		else

  000b5	eb 1d		 jmp	 SHORT $LN4@Reallocate
$LN3@Reallocate:

; 3909 : 			{
; 3910 : 			_Alty_traits::construct(_Al, _STD addressof(_My_data._Bx._Ptr), _New_ptr);

  000b7	8d 4d f4	 lea	 ecx, DWORD PTR __New_ptr$[ebp]
  000ba	51		 push	 ecx
  000bb	8b 55 fc	 mov	 edx, DWORD PTR __My_data$[ebp]
  000be	52		 push	 edx
  000bf	e8 00 00 00 00	 call	 ??$addressof@PAD@std@@YAPAPADAAPAD@Z ; std::addressof<char *>
  000c4	83 c4 04	 add	 esp, 4
  000c7	50		 push	 eax
  000c8	8b 45 f0	 mov	 eax, DWORD PTR __Al$[ebp]
  000cb	50		 push	 eax
  000cc	e8 00 00 00 00	 call	 ??$construct@PADABQAD@?$_Default_allocator_traits@V?$allocator@D@std@@@std@@SAXAAV?$allocator@D@1@QAPADABQAD@Z ; std::_Default_allocator_traits<std::allocator<char> >::construct<char *,char * const &>
  000d1	83 c4 0c	 add	 esp, 12			; 0000000cH
$LN4@Reallocate:

; 3911 : 			}
; 3912 : 
; 3913 : 		return (*this);

  000d4	8b 45 f8	 mov	 eax, DWORD PTR _this$[ebp]
$LN5@Reallocate:

; 3914 : 		}

  000d7	8b e5		 mov	 esp, ebp
  000d9	5d		 pop	 ebp
  000da	c2 0c 00	 ret	 12			; 0000000cH
??$_Reallocate_for@V<lambda_9366063389c5f42a00a5088cf24e69de>@@PBD@?$basic_string@DU?$char_traits@D@std@@V?$allocator@D@2@@std@@QAEAAV01@IV<lambda_9366063389c5f42a00a5088cf24e69de>@@PBD@Z ENDP ; std::basic_string<char,std::char_traits<char>,std::allocator<char> >::_Reallocate_for<<lambda_9366063389c5f42a00a5088cf24e69de>,char const *>
_TEXT	ENDS
; Function compile flags: /Odtp
; File c:\program files (x86)\microsoft visual studio\2017\community\vc\tools\msvc\14.16.27023\include\xstring
;	COMDAT ??R<lambda_9366063389c5f42a00a5088cf24e69de>@@QBEXQADIQBD@Z
_TEXT	SEGMENT
_this$ = -8						; size = 4
$T1 = -1						; size = 1
__New_ptr$ = 8						; size = 4
__Count$ = 12						; size = 4
__Ptr$ = 16						; size = 4
??R<lambda_9366063389c5f42a00a5088cf24e69de>@@QBEXQADIQBD@Z PROC ; <lambda_9366063389c5f42a00a5088cf24e69de>::operator(), COMDAT
; _this$ = ecx

; 2668 : 		return (_Reallocate_for(_Count, [](_Elem * const _New_ptr, const size_type _Count, const _Elem * const _Ptr) {

  00000	55		 push	 ebp
  00001	8b ec		 mov	 ebp, esp
  00003	83 ec 08	 sub	 esp, 8
  00006	89 4d f8	 mov	 DWORD PTR _this$[ebp], ecx

; 2669 : 			_Traits::copy(_New_ptr, _Ptr, _Count);

  00009	8b 45 0c	 mov	 eax, DWORD PTR __Count$[ebp]
  0000c	50		 push	 eax
  0000d	8b 4d 10	 mov	 ecx, DWORD PTR __Ptr$[ebp]
  00010	51		 push	 ecx
  00011	8b 55 08	 mov	 edx, DWORD PTR __New_ptr$[ebp]
  00014	52		 push	 edx
  00015	e8 00 00 00 00	 call	 ?copy@?$char_traits@D@std@@SAPADQADQBDI@Z ; std::char_traits<char>::copy
  0001a	83 c4 0c	 add	 esp, 12			; 0000000cH

; 2670 : 			_Traits::assign(_New_ptr[_Count], _Elem());

  0001d	c6 45 ff 00	 mov	 BYTE PTR $T1[ebp], 0
  00021	8d 45 ff	 lea	 eax, DWORD PTR $T1[ebp]
  00024	50		 push	 eax
  00025	8b 4d 08	 mov	 ecx, DWORD PTR __New_ptr$[ebp]
  00028	03 4d 0c	 add	 ecx, DWORD PTR __Count$[ebp]
  0002b	51		 push	 ecx
  0002c	e8 00 00 00 00	 call	 ?assign@?$char_traits@D@std@@SAXAADABD@Z ; std::char_traits<char>::assign
  00031	83 c4 08	 add	 esp, 8

; 2671 : 			}, _Ptr));

  00034	8b e5		 mov	 esp, ebp
  00036	5d		 pop	 ebp
  00037	c2 0c 00	 ret	 12			; 0000000cH
??R<lambda_9366063389c5f42a00a5088cf24e69de>@@QBEXQADIQBD@Z ENDP ; <lambda_9366063389c5f42a00a5088cf24e69de>::operator()
_TEXT	ENDS
; Function compile flags: /Odtp
; File c:\program files (x86)\microsoft visual studio\2017\community\vc\tools\msvc\14.16.27023\include\xmemory0
;	COMDAT ??$_Deallocate@$07$0A@@std@@YAXPAXI@Z
_TEXT	SEGMENT
__Ptr$ = 8						; size = 4
__Bytes$ = 12						; size = 4
??$_Deallocate@$07$0A@@std@@YAXPAXI@Z PROC		; std::_Deallocate<8,0>, COMDAT

; 199  : 	{	// deallocate storage allocated by _Allocate when !_HAS_ALIGNED_NEW || _Align <= __STDCPP_DEFAULT_NEW_ALIGNMENT__

  00000	55		 push	 ebp
  00001	8b ec		 mov	 ebp, esp

; 200  :  #if defined(_M_IX86) || defined(_M_X64)
; 201  : 	if (_Bytes >= _Big_allocation_threshold)

  00003	81 7d 0c 00 10
	00 00		 cmp	 DWORD PTR __Bytes$[ebp], 4096 ; 00001000H
  0000a	72 10		 jb	 SHORT $LN2@Deallocate

; 202  : 		{	// boost the alignment of big allocations to help autovectorization
; 203  : 		_Adjust_manually_vector_aligned(_Ptr, _Bytes);

  0000c	8d 45 0c	 lea	 eax, DWORD PTR __Bytes$[ebp]
  0000f	50		 push	 eax
  00010	8d 4d 08	 lea	 ecx, DWORD PTR __Ptr$[ebp]
  00013	51		 push	 ecx
  00014	e8 00 00 00 00	 call	 ?_Adjust_manually_vector_aligned@std@@YAXAAPAXAAI@Z ; std::_Adjust_manually_vector_aligned
  00019	83 c4 08	 add	 esp, 8
$LN2@Deallocate:

; 204  : 		}
; 205  :  #endif /* defined(_M_IX86) || defined(_M_X64) */
; 206  : 
; 207  : 	::operator delete(_Ptr, _Bytes);

  0001c	8b 55 0c	 mov	 edx, DWORD PTR __Bytes$[ebp]
  0001f	52		 push	 edx
  00020	8b 45 08	 mov	 eax, DWORD PTR __Ptr$[ebp]
  00023	50		 push	 eax
  00024	e8 00 00 00 00	 call	 ??3@YAXPAXI@Z		; operator delete
  00029	83 c4 08	 add	 esp, 8

; 208  : 	}

  0002c	5d		 pop	 ebp
  0002d	c3		 ret	 0
??$_Deallocate@$07$0A@@std@@YAXPAXI@Z ENDP		; std::_Deallocate<8,0>
_TEXT	ENDS
; Function compile flags: /Odtp
; File c:\program files (x86)\microsoft visual studio\2017\community\vc\tools\msvc\14.16.27023\include\xmemory0
;	COMDAT ??$_Allocate@$07U_Default_allocate_traits@std@@$0A@@std@@YAPAXI@Z
_TEXT	SEGMENT
__Bytes$ = 8						; size = 4
??$_Allocate@$07U_Default_allocate_traits@std@@$0A@@std@@YAPAXI@Z PROC ; std::_Allocate<8,std::_Default_allocate_traits,0>, COMDAT

; 180  : 	{	// allocate _Bytes when !_HAS_ALIGNED_NEW || _Align <= __STDCPP_DEFAULT_NEW_ALIGNMENT__

  00000	55		 push	 ebp
  00001	8b ec		 mov	 ebp, esp

; 181  :  #if defined(_M_IX86) || defined(_M_X64)
; 182  : 	if (_Bytes >= _Big_allocation_threshold)

  00003	81 7d 08 00 10
	00 00		 cmp	 DWORD PTR __Bytes$[ebp], 4096 ; 00001000H
  0000a	72 0e		 jb	 SHORT $LN2@Allocate

; 183  : 		{	// boost the alignment of big allocations to help autovectorization
; 184  : 		return (_Allocate_manually_vector_aligned<_Traits>(_Bytes));

  0000c	8b 45 08	 mov	 eax, DWORD PTR __Bytes$[ebp]
  0000f	50		 push	 eax
  00010	e8 00 00 00 00	 call	 ??$_Allocate_manually_vector_aligned@U_Default_allocate_traits@std@@@std@@YAPAXI@Z ; std::_Allocate_manually_vector_aligned<std::_Default_allocate_traits>
  00015	83 c4 04	 add	 esp, 4
  00018	eb 16		 jmp	 SHORT $LN1@Allocate
$LN2@Allocate:

; 185  : 		}
; 186  :  #endif /* defined(_M_IX86) || defined(_M_X64) */
; 187  : 
; 188  : 	if (_Bytes != 0)

  0001a	83 7d 08 00	 cmp	 DWORD PTR __Bytes$[ebp], 0
  0001e	74 0e		 je	 SHORT $LN3@Allocate

; 189  : 		{
; 190  : 		return (_Traits::_Allocate(_Bytes));

  00020	8b 4d 08	 mov	 ecx, DWORD PTR __Bytes$[ebp]
  00023	51		 push	 ecx
  00024	e8 00 00 00 00	 call	 ?_Allocate@_Default_allocate_traits@std@@SAPAXI@Z ; std::_Default_allocate_traits::_Allocate
  00029	83 c4 04	 add	 esp, 4
  0002c	eb 02		 jmp	 SHORT $LN1@Allocate
$LN3@Allocate:

; 191  : 		}
; 192  : 
; 193  : 	return (nullptr);

  0002e	33 c0		 xor	 eax, eax
$LN1@Allocate:

; 194  : 	}

  00030	5d		 pop	 ebp
  00031	c3		 ret	 0
??$_Allocate@$07U_Default_allocate_traits@std@@$0A@@std@@YAPAXI@Z ENDP ; std::_Allocate<8,std::_Default_allocate_traits,0>
_TEXT	ENDS
; Function compile flags: /Odtp
; File c:\program files (x86)\microsoft visual studio\2017\community\vc\tools\msvc\14.16.27023\include\xstddef
;	COMDAT ??$addressof@V?$_String_val@U?$_Simple_types@D@std@@@std@@@std@@YAPAV?$_String_val@U?$_Simple_types@D@std@@@0@AAV10@@Z
_TEXT	SEGMENT
__Val$ = 8						; size = 4
??$addressof@V?$_String_val@U?$_Simple_types@D@std@@@std@@@std@@YAPAV?$_String_val@U?$_Simple_types@D@std@@@0@AAV10@@Z PROC ; std::addressof<std::_String_val<std::_Simple_types<char> > >, COMDAT

; 329  : 	{	// return address of _Val

  00000	55		 push	 ebp
  00001	8b ec		 mov	 ebp, esp

; 330  : 	return (__builtin_addressof(_Val));

  00003	8b 45 08	 mov	 eax, DWORD PTR __Val$[ebp]

; 331  : 	}

  00006	5d		 pop	 ebp
  00007	c3		 ret	 0
??$addressof@V?$_String_val@U?$_Simple_types@D@std@@@std@@@std@@YAPAV?$_String_val@U?$_Simple_types@D@std@@@0@AAV10@@Z ENDP ; std::addressof<std::_String_val<std::_Simple_types<char> > >
_TEXT	ENDS
; Function compile flags: /Odtp
; File c:\program files (x86)\microsoft visual studio\2017\community\vc\tools\msvc\14.16.27023\include\xmemory0
;	COMDAT ??$construct@PADABQAD@?$_Default_allocator_traits@V?$allocator@D@std@@@std@@SAXAAV?$allocator@D@1@QAPADABQAD@Z
_TEXT	SEGMENT
$T1 = -4						; size = 4
___formal$ = 8						; size = 4
__Ptr$ = 12						; size = 4
_<_Args_0>$ = 16					; size = 4
??$construct@PADABQAD@?$_Default_allocator_traits@V?$allocator@D@std@@@std@@SAXAAV?$allocator@D@1@QAPADABQAD@Z PROC ; std::_Default_allocator_traits<std::allocator<char> >::construct<char *,char * const &>, COMDAT

; 879  : 		{	// construct _Objty(_Types...) at _Ptr

  00000	55		 push	 ebp
  00001	8b ec		 mov	 ebp, esp
  00003	51		 push	 ecx

; 880  : 		::new (const_cast<void *>(static_cast<const volatile void *>(_Ptr)))

  00004	8b 45 0c	 mov	 eax, DWORD PTR __Ptr$[ebp]
  00007	50		 push	 eax
  00008	6a 04		 push	 4
  0000a	e8 00 00 00 00	 call	 ??2@YAPAXIPAX@Z		; operator new
  0000f	83 c4 08	 add	 esp, 8
  00012	89 45 fc	 mov	 DWORD PTR $T1[ebp], eax
  00015	8b 4d 10	 mov	 ecx, DWORD PTR _<_Args_0>$[ebp]
  00018	51		 push	 ecx
  00019	e8 00 00 00 00	 call	 ??$forward@ABQAD@std@@YAABQADABQAD@Z ; std::forward<char * const &>
  0001e	83 c4 04	 add	 esp, 4
  00021	8b 55 fc	 mov	 edx, DWORD PTR $T1[ebp]
  00024	8b 00		 mov	 eax, DWORD PTR [eax]
  00026	89 02		 mov	 DWORD PTR [edx], eax

; 881  : 			_Objty(_STD forward<_Types>(_Args)...);
; 882  : 		}

  00028	8b e5		 mov	 esp, ebp
  0002a	5d		 pop	 ebp
  0002b	c3		 ret	 0
??$construct@PADABQAD@?$_Default_allocator_traits@V?$allocator@D@std@@@std@@SAXAAV?$allocator@D@1@QAPADABQAD@Z ENDP ; std::_Default_allocator_traits<std::allocator<char> >::construct<char *,char * const &>
_TEXT	ENDS
; Function compile flags: /Odtp
; File c:\program files (x86)\microsoft visual studio\2017\community\vc\tools\msvc\14.16.27023\include\xstring
;	COMDAT ??$_Reallocate_grow_by@V<lambda_ab246b20b9526e2ef7792587e4298a77>@@PBDI@?$basic_string@DU?$char_traits@D@std@@V?$allocator@D@2@@std@@QAEAAV01@IV<lambda_ab246b20b9526e2ef7792587e4298a77>@@PBDI@Z
_TEXT	SEGMENT
__Raw_new$ = -40					; size = 4
__Old_ptr$1 = -36					; size = 4
__Old_capacity$ = -32					; size = 4
__New_capacity$ = -28					; size = 4
__New_size$ = -24					; size = 4
__Al$ = -20						; size = 4
__New_ptr$ = -16					; size = 4
__Old_size$ = -12					; size = 4
_this$ = -8						; size = 4
__My_data$ = -4						; size = 4
__Size_increase$ = 8					; size = 4
__Fn$ = 12						; size = 1
_<_Args_0>$ = 16					; size = 4
_<_Args_1>$ = 20					; size = 4
??$_Reallocate_grow_by@V<lambda_ab246b20b9526e2ef7792587e4298a77>@@PBDI@?$basic_string@DU?$char_traits@D@std@@V?$allocator@D@2@@std@@QAEAAV01@IV<lambda_ab246b20b9526e2ef7792587e4298a77>@@PBDI@Z PROC ; std::basic_string<char,std::char_traits<char>,std::allocator<char> >::_Reallocate_grow_by<<lambda_ab246b20b9526e2ef7792587e4298a77>,char const *,unsigned int>, COMDAT
; _this$ = ecx

; 3919 : 		{	// reallocate to increase size by _Size_increase elements, new buffer prepared by

  00000	55		 push	 ebp
  00001	8b ec		 mov	 ebp, esp
  00003	83 ec 28	 sub	 esp, 40			; 00000028H
  00006	89 4d f8	 mov	 DWORD PTR _this$[ebp], ecx

; 3920 : 			// _Fn(_New_ptr, _Old_ptr, _Old_size, _Args...)
; 3921 : 		auto& _My_data = this->_Get_data();

  00009	8b 4d f8	 mov	 ecx, DWORD PTR _this$[ebp]
  0000c	e8 00 00 00 00	 call	 ?_Get_data@?$_String_alloc@U?$_String_base_types@DV?$allocator@D@std@@@std@@@std@@QAEAAV?$_String_val@U?$_Simple_types@D@std@@@2@XZ ; std::_String_alloc<std::_String_base_types<char,std::allocator<char> > >::_Get_data
  00011	89 45 fc	 mov	 DWORD PTR __My_data$[ebp], eax

; 3922 : 		const size_type _Old_size = _My_data._Mysize;

  00014	8b 45 fc	 mov	 eax, DWORD PTR __My_data$[ebp]
  00017	8b 48 10	 mov	 ecx, DWORD PTR [eax+16]
  0001a	89 4d f4	 mov	 DWORD PTR __Old_size$[ebp], ecx

; 3923 : 		if (max_size() - _Old_size < _Size_increase)

  0001d	8b 4d f8	 mov	 ecx, DWORD PTR _this$[ebp]
  00020	e8 00 00 00 00	 call	 ?max_size@?$basic_string@DU?$char_traits@D@std@@V?$allocator@D@2@@std@@QBEIXZ ; std::basic_string<char,std::char_traits<char>,std::allocator<char> >::max_size
  00025	2b 45 f4	 sub	 eax, DWORD PTR __Old_size$[ebp]
  00028	3b 45 08	 cmp	 eax, DWORD PTR __Size_increase$[ebp]
  0002b	73 05		 jae	 SHORT $LN2@Reallocate

; 3924 : 			{
; 3925 : 			_Xlen();	// result too long

  0002d	e8 00 00 00 00	 call	 ?_Xlen@?$basic_string@DU?$char_traits@D@std@@V?$allocator@D@2@@std@@SAXXZ ; std::basic_string<char,std::char_traits<char>,std::allocator<char> >::_Xlen
$LN2@Reallocate:

; 3926 : 			}
; 3927 : 
; 3928 : 		const size_type _New_size = _Old_size + _Size_increase;

  00032	8b 55 f4	 mov	 edx, DWORD PTR __Old_size$[ebp]
  00035	03 55 08	 add	 edx, DWORD PTR __Size_increase$[ebp]
  00038	89 55 e8	 mov	 DWORD PTR __New_size$[ebp], edx

; 3929 : 		const size_type _Old_capacity = _My_data._Myres;

  0003b	8b 45 fc	 mov	 eax, DWORD PTR __My_data$[ebp]
  0003e	8b 48 14	 mov	 ecx, DWORD PTR [eax+20]
  00041	89 4d e0	 mov	 DWORD PTR __Old_capacity$[ebp], ecx

; 3930 : 		const size_type _New_capacity = _Calculate_growth(_New_size);

  00044	8b 55 e8	 mov	 edx, DWORD PTR __New_size$[ebp]
  00047	52		 push	 edx
  00048	8b 4d f8	 mov	 ecx, DWORD PTR _this$[ebp]
  0004b	e8 00 00 00 00	 call	 ?_Calculate_growth@?$basic_string@DU?$char_traits@D@std@@V?$allocator@D@2@@std@@QBEII@Z ; std::basic_string<char,std::char_traits<char>,std::allocator<char> >::_Calculate_growth
  00050	89 45 e4	 mov	 DWORD PTR __New_capacity$[ebp], eax

; 3931 : 		auto& _Al = this->_Getal();

  00053	8b 4d f8	 mov	 ecx, DWORD PTR _this$[ebp]
  00056	e8 00 00 00 00	 call	 ?_Getal@?$_String_alloc@U?$_String_base_types@DV?$allocator@D@std@@@std@@@std@@QAEAAV?$allocator@D@2@XZ ; std::_String_alloc<std::_String_base_types<char,std::allocator<char> > >::_Getal
  0005b	89 45 ec	 mov	 DWORD PTR __Al$[ebp], eax

; 3932 : 		const pointer _New_ptr = _Al.allocate(_New_capacity + 1); // throws

  0005e	8b 45 e4	 mov	 eax, DWORD PTR __New_capacity$[ebp]
  00061	83 c0 01	 add	 eax, 1
  00064	50		 push	 eax
  00065	8b 4d ec	 mov	 ecx, DWORD PTR __Al$[ebp]
  00068	e8 00 00 00 00	 call	 ?allocate@?$allocator@D@std@@QAEPADI@Z ; std::allocator<char>::allocate
  0006d	89 45 f0	 mov	 DWORD PTR __New_ptr$[ebp], eax

; 3933 : 		_My_data._Orphan_all();

  00070	8b 4d fc	 mov	 ecx, DWORD PTR __My_data$[ebp]
  00073	e8 00 00 00 00	 call	 ?_Orphan_all@_Container_base0@std@@QAEXXZ ; std::_Container_base0::_Orphan_all

; 3934 : 		_My_data._Mysize = _New_size;

  00078	8b 4d fc	 mov	 ecx, DWORD PTR __My_data$[ebp]
  0007b	8b 55 e8	 mov	 edx, DWORD PTR __New_size$[ebp]
  0007e	89 51 10	 mov	 DWORD PTR [ecx+16], edx

; 3935 : 		_My_data._Myres = _New_capacity;

  00081	8b 45 fc	 mov	 eax, DWORD PTR __My_data$[ebp]
  00084	8b 4d e4	 mov	 ecx, DWORD PTR __New_capacity$[ebp]
  00087	89 48 14	 mov	 DWORD PTR [eax+20], ecx

; 3936 : 		_Elem * const _Raw_new = _Unfancy(_New_ptr);

  0008a	8b 55 f0	 mov	 edx, DWORD PTR __New_ptr$[ebp]
  0008d	52		 push	 edx
  0008e	e8 00 00 00 00	 call	 ??$_Unfancy@D@std@@YAPADPAD@Z ; std::_Unfancy<char>
  00093	83 c4 04	 add	 esp, 4
  00096	89 45 d8	 mov	 DWORD PTR __Raw_new$[ebp], eax

; 3937 : 		if (this->_BUF_SIZE <= _Old_capacity)

  00099	83 7d e0 10	 cmp	 DWORD PTR __Old_capacity$[ebp], 16 ; 00000010H
  0009d	72 4a		 jb	 SHORT $LN3@Reallocate

; 3938 : 			{
; 3939 : 			const pointer _Old_ptr = _My_data._Bx._Ptr;

  0009f	8b 45 fc	 mov	 eax, DWORD PTR __My_data$[ebp]
  000a2	8b 08		 mov	 ecx, DWORD PTR [eax]
  000a4	89 4d dc	 mov	 DWORD PTR __Old_ptr$1[ebp], ecx

; 3940 : 			_Fn(_Raw_new, _Unfancy(_Old_ptr), _Old_size, _Args...);

  000a7	8b 55 14	 mov	 edx, DWORD PTR _<_Args_1>$[ebp]
  000aa	52		 push	 edx
  000ab	8b 45 10	 mov	 eax, DWORD PTR _<_Args_0>$[ebp]
  000ae	50		 push	 eax
  000af	8b 4d f4	 mov	 ecx, DWORD PTR __Old_size$[ebp]
  000b2	51		 push	 ecx
  000b3	8b 55 dc	 mov	 edx, DWORD PTR __Old_ptr$1[ebp]
  000b6	52		 push	 edx
  000b7	e8 00 00 00 00	 call	 ??$_Unfancy@D@std@@YAPADPAD@Z ; std::_Unfancy<char>
  000bc	83 c4 04	 add	 esp, 4
  000bf	50		 push	 eax
  000c0	8b 45 d8	 mov	 eax, DWORD PTR __Raw_new$[ebp]
  000c3	50		 push	 eax
  000c4	8d 4d 0c	 lea	 ecx, DWORD PTR __Fn$[ebp]
  000c7	e8 00 00 00 00	 call	 ??R<lambda_ab246b20b9526e2ef7792587e4298a77>@@QBEXQADQBDI1I@Z ; <lambda_ab246b20b9526e2ef7792587e4298a77>::operator()

; 3941 : 			_Al.deallocate(_Old_ptr, _Old_capacity + 1);

  000cc	8b 4d e0	 mov	 ecx, DWORD PTR __Old_capacity$[ebp]
  000cf	83 c1 01	 add	 ecx, 1
  000d2	51		 push	 ecx
  000d3	8b 55 dc	 mov	 edx, DWORD PTR __Old_ptr$1[ebp]
  000d6	52		 push	 edx
  000d7	8b 4d ec	 mov	 ecx, DWORD PTR __Al$[ebp]
  000da	e8 00 00 00 00	 call	 ?deallocate@?$allocator@D@std@@QAEXQADI@Z ; std::allocator<char>::deallocate

; 3942 : 			_My_data._Bx._Ptr = _New_ptr;

  000df	8b 45 fc	 mov	 eax, DWORD PTR __My_data$[ebp]
  000e2	8b 4d f0	 mov	 ecx, DWORD PTR __New_ptr$[ebp]
  000e5	89 08		 mov	 DWORD PTR [eax], ecx

; 3943 : 			}
; 3944 : 		else

  000e7	eb 39		 jmp	 SHORT $LN4@Reallocate
$LN3@Reallocate:

; 3945 : 			{
; 3946 : 			_Fn(_Raw_new, _My_data._Bx._Buf, _Old_size, _Args...);

  000e9	8b 55 14	 mov	 edx, DWORD PTR _<_Args_1>$[ebp]
  000ec	52		 push	 edx
  000ed	8b 45 10	 mov	 eax, DWORD PTR _<_Args_0>$[ebp]
  000f0	50		 push	 eax
  000f1	8b 4d f4	 mov	 ecx, DWORD PTR __Old_size$[ebp]
  000f4	51		 push	 ecx
  000f5	8b 55 fc	 mov	 edx, DWORD PTR __My_data$[ebp]
  000f8	52		 push	 edx
  000f9	8b 45 d8	 mov	 eax, DWORD PTR __Raw_new$[ebp]
  000fc	50		 push	 eax
  000fd	8d 4d 0c	 lea	 ecx, DWORD PTR __Fn$[ebp]
  00100	e8 00 00 00 00	 call	 ??R<lambda_ab246b20b9526e2ef7792587e4298a77>@@QBEXQADQBDI1I@Z ; <lambda_ab246b20b9526e2ef7792587e4298a77>::operator()

; 3947 : 			_Alty_traits::construct(_Al, _STD addressof(_My_data._Bx._Ptr), _New_ptr);

  00105	8d 4d f0	 lea	 ecx, DWORD PTR __New_ptr$[ebp]
  00108	51		 push	 ecx
  00109	8b 55 fc	 mov	 edx, DWORD PTR __My_data$[ebp]
  0010c	52		 push	 edx
  0010d	e8 00 00 00 00	 call	 ??$addressof@PAD@std@@YAPAPADAAPAD@Z ; std::addressof<char *>
  00112	83 c4 04	 add	 esp, 4
  00115	50		 push	 eax
  00116	8b 45 ec	 mov	 eax, DWORD PTR __Al$[ebp]
  00119	50		 push	 eax
  0011a	e8 00 00 00 00	 call	 ??$construct@PADABQAD@?$_Default_allocator_traits@V?$allocator@D@std@@@std@@SAXAAV?$allocator@D@1@QAPADABQAD@Z ; std::_Default_allocator_traits<std::allocator<char> >::construct<char *,char * const &>
  0011f	83 c4 0c	 add	 esp, 12			; 0000000cH
$LN4@Reallocate:

; 3948 : 			}
; 3949 : 
; 3950 : 		return (*this);

  00122	8b 45 f8	 mov	 eax, DWORD PTR _this$[ebp]
$LN5@Reallocate:

; 3951 : 		}

  00125	8b e5		 mov	 esp, ebp
  00127	5d		 pop	 ebp
  00128	c2 10 00	 ret	 16			; 00000010H
??$_Reallocate_grow_by@V<lambda_ab246b20b9526e2ef7792587e4298a77>@@PBDI@?$basic_string@DU?$char_traits@D@std@@V?$allocator@D@2@@std@@QAEAAV01@IV<lambda_ab246b20b9526e2ef7792587e4298a77>@@PBDI@Z ENDP ; std::basic_string<char,std::char_traits<char>,std::allocator<char> >::_Reallocate_grow_by<<lambda_ab246b20b9526e2ef7792587e4298a77>,char const *,unsigned int>
_TEXT	ENDS
; Function compile flags: /Odtp
; File c:\program files (x86)\microsoft visual studio\2017\community\vc\tools\msvc\14.16.27023\include\xstring
;	COMDAT ??R<lambda_ab246b20b9526e2ef7792587e4298a77>@@QBEXQADQBDI1I@Z
_TEXT	SEGMENT
_this$ = -8						; size = 4
$T1 = -1						; size = 1
__New_ptr$ = 8						; size = 4
__Old_ptr$ = 12						; size = 4
__Old_size$ = 16					; size = 4
__Ptr$ = 20						; size = 4
__Count$ = 24						; size = 4
??R<lambda_ab246b20b9526e2ef7792587e4298a77>@@QBEXQADQBDI1I@Z PROC ; <lambda_ab246b20b9526e2ef7792587e4298a77>::operator(), COMDAT
; _this$ = ecx

; 2583 : 				const _Elem * const _Ptr, const size_type _Count) {

  00000	55		 push	 ebp
  00001	8b ec		 mov	 ebp, esp
  00003	83 ec 08	 sub	 esp, 8
  00006	89 4d f8	 mov	 DWORD PTR _this$[ebp], ecx

; 2584 : 			_Traits::copy(_New_ptr, _Old_ptr, _Old_size);

  00009	8b 45 10	 mov	 eax, DWORD PTR __Old_size$[ebp]
  0000c	50		 push	 eax
  0000d	8b 4d 0c	 mov	 ecx, DWORD PTR __Old_ptr$[ebp]
  00010	51		 push	 ecx
  00011	8b 55 08	 mov	 edx, DWORD PTR __New_ptr$[ebp]
  00014	52		 push	 edx
  00015	e8 00 00 00 00	 call	 ?copy@?$char_traits@D@std@@SAPADQADQBDI@Z ; std::char_traits<char>::copy
  0001a	83 c4 0c	 add	 esp, 12			; 0000000cH

; 2585 : 			_Traits::copy(_New_ptr + _Old_size, _Ptr, _Count);

  0001d	8b 45 18	 mov	 eax, DWORD PTR __Count$[ebp]
  00020	50		 push	 eax
  00021	8b 4d 14	 mov	 ecx, DWORD PTR __Ptr$[ebp]
  00024	51		 push	 ecx
  00025	8b 55 08	 mov	 edx, DWORD PTR __New_ptr$[ebp]
  00028	03 55 10	 add	 edx, DWORD PTR __Old_size$[ebp]
  0002b	52		 push	 edx
  0002c	e8 00 00 00 00	 call	 ?copy@?$char_traits@D@std@@SAPADQADQBDI@Z ; std::char_traits<char>::copy
  00031	83 c4 0c	 add	 esp, 12			; 0000000cH

; 2586 : 			_Traits::assign(_New_ptr[_Old_size + _Count], _Elem());

  00034	c6 45 ff 00	 mov	 BYTE PTR $T1[ebp], 0
  00038	8d 45 ff	 lea	 eax, DWORD PTR $T1[ebp]
  0003b	50		 push	 eax
  0003c	8b 4d 10	 mov	 ecx, DWORD PTR __Old_size$[ebp]
  0003f	03 4d 18	 add	 ecx, DWORD PTR __Count$[ebp]
  00042	03 4d 08	 add	 ecx, DWORD PTR __New_ptr$[ebp]
  00045	51		 push	 ecx
  00046	e8 00 00 00 00	 call	 ?assign@?$char_traits@D@std@@SAXAADABD@Z ; std::char_traits<char>::assign
  0004b	83 c4 08	 add	 esp, 8

; 2587 : 			}, _Ptr, _Count));

  0004e	8b e5		 mov	 esp, ebp
  00050	5d		 pop	 ebp
  00051	c2 14 00	 ret	 20			; 00000014H
??R<lambda_ab246b20b9526e2ef7792587e4298a77>@@QBEXQADQBDI1I@Z ENDP ; <lambda_ab246b20b9526e2ef7792587e4298a77>::operator()
_TEXT	ENDS
; Function compile flags: /Odtp
; File c:\program files (x86)\microsoft visual studio\2017\community\vc\tools\msvc\14.16.27023\include\utility
;	COMDAT ??$_Max_value@I@std@@YAABIABI0@Z
_TEXT	SEGMENT
$T1 = -8						; size = 4
tv65 = -4						; size = 4
__Left$ = 8						; size = 4
__Right$ = 12						; size = 4
??$_Max_value@I@std@@YAABIABI0@Z PROC			; std::_Max_value<unsigned int>, COMDAT

; 32   : 	{	// return larger of _Left and _Right

  00000	55		 push	 ebp
  00001	8b ec		 mov	 ebp, esp
  00003	83 ec 08	 sub	 esp, 8

; 33   : 	return (_Left < _Right ? _Right : _Left);

  00006	8b 45 08	 mov	 eax, DWORD PTR __Left$[ebp]
  00009	8b 4d 0c	 mov	 ecx, DWORD PTR __Right$[ebp]
  0000c	8b 10		 mov	 edx, DWORD PTR [eax]
  0000e	3b 11		 cmp	 edx, DWORD PTR [ecx]
  00010	73 08		 jae	 SHORT $LN3@Max_value
  00012	8b 45 0c	 mov	 eax, DWORD PTR __Right$[ebp]
  00015	89 45 fc	 mov	 DWORD PTR tv65[ebp], eax
  00018	eb 06		 jmp	 SHORT $LN4@Max_value
$LN3@Max_value:
  0001a	8b 4d 08	 mov	 ecx, DWORD PTR __Left$[ebp]
  0001d	89 4d fc	 mov	 DWORD PTR tv65[ebp], ecx
$LN4@Max_value:
  00020	8b 55 fc	 mov	 edx, DWORD PTR tv65[ebp]
  00023	89 55 f8	 mov	 DWORD PTR $T1[ebp], edx
  00026	8b 45 f8	 mov	 eax, DWORD PTR $T1[ebp]

; 34   : 	}

  00029	8b e5		 mov	 esp, ebp
  0002b	5d		 pop	 ebp
  0002c	c3		 ret	 0
??$_Max_value@I@std@@YAABIABI0@Z ENDP			; std::_Max_value<unsigned int>
_TEXT	ENDS
; Function compile flags: /Odtp
; File c:\program files (x86)\microsoft visual studio\2017\community\vc\tools\msvc\14.16.27023\include\xmemory0
;	COMDAT ??$destroy@PAD@?$_Default_allocator_traits@V?$allocator@D@std@@@std@@SAXAAV?$allocator@D@1@QAPAD@Z
_TEXT	SEGMENT
___formal$ = 8						; size = 4
__Ptr$ = 12						; size = 4
??$destroy@PAD@?$_Default_allocator_traits@V?$allocator@D@std@@@std@@SAXAAV?$allocator@D@1@QAPAD@Z PROC ; std::_Default_allocator_traits<std::allocator<char> >::destroy<char *>, COMDAT

; 886  : 		{	// destroy object at _Ptr

  00000	55		 push	 ebp
  00001	8b ec		 mov	 ebp, esp

; 887  : 		_Ptr->~_Uty();
; 888  : 		}

  00003	5d		 pop	 ebp
  00004	c3		 ret	 0
??$destroy@PAD@?$_Default_allocator_traits@V?$allocator@D@std@@@std@@SAXAAV?$allocator@D@1@QAPAD@Z ENDP ; std::_Default_allocator_traits<std::allocator<char> >::destroy<char *>
_TEXT	ENDS
; Function compile flags: /Odtp
; File c:\program files (x86)\microsoft visual studio\2017\community\vc\tools\msvc\14.16.27023\include\xstddef
;	COMDAT ??$addressof@PAD@std@@YAPAPADAAPAD@Z
_TEXT	SEGMENT
__Val$ = 8						; size = 4
??$addressof@PAD@std@@YAPAPADAAPAD@Z PROC		; std::addressof<char *>, COMDAT

; 329  : 	{	// return address of _Val

  00000	55		 push	 ebp
  00001	8b ec		 mov	 ebp, esp

; 330  : 	return (__builtin_addressof(_Val));

  00003	8b 45 08	 mov	 eax, DWORD PTR __Val$[ebp]

; 331  : 	}

  00006	5d		 pop	 ebp
  00007	c3		 ret	 0
??$addressof@PAD@std@@YAPAPADAAPAD@Z ENDP		; std::addressof<char *>
_TEXT	ENDS
; Function compile flags: /Odtp
; File c:\program files (x86)\microsoft visual studio\2017\community\vc\tools\msvc\14.16.27023\include\xutility
;	COMDAT ??$?0$$V@?$_Compressed_pair@V?$allocator@D@std@@V?$_String_val@U?$_Simple_types@D@std@@@2@$00@std@@QAE@U_Zero_then_variadic_args_t@1@@Z
_TEXT	SEGMENT
_this$ = -4						; size = 4
___formal$ = 8						; size = 1
??$?0$$V@?$_Compressed_pair@V?$allocator@D@std@@V?$_String_val@U?$_Simple_types@D@std@@@2@$00@std@@QAE@U_Zero_then_variadic_args_t@1@@Z PROC ; std::_Compressed_pair<std::allocator<char>,std::_String_val<std::_Simple_types<char> >,1>::_Compressed_pair<std::allocator<char>,std::_String_val<std::_Simple_types<char> >,1><>, COMDAT
; _this$ = ecx

; 278  : 		{	// construct from forwarded values

  00000	55		 push	 ebp
  00001	8b ec		 mov	 ebp, esp
  00003	51		 push	 ecx
  00004	89 4d fc	 mov	 DWORD PTR _this$[ebp], ecx

; 277  : 		: _Ty1(), _Myval2(_STD forward<_Other2>(_Val2)...)

  00007	8b 4d fc	 mov	 ecx, DWORD PTR _this$[ebp]
  0000a	e8 00 00 00 00	 call	 ??0?$allocator@D@std@@QAE@XZ ; std::allocator<char>::allocator<char>
  0000f	8b 4d fc	 mov	 ecx, DWORD PTR _this$[ebp]
  00012	e8 00 00 00 00	 call	 ??0?$_String_val@U?$_Simple_types@D@std@@@std@@QAE@XZ ; std::_String_val<std::_Simple_types<char> >::_String_val<std::_Simple_types<char> >

; 279  : 		}

  00017	8b 45 fc	 mov	 eax, DWORD PTR _this$[ebp]
  0001a	8b e5		 mov	 esp, ebp
  0001c	5d		 pop	 ebp
  0001d	c2 04 00	 ret	 4
??$?0$$V@?$_Compressed_pair@V?$allocator@D@std@@V?$_String_val@U?$_Simple_types@D@std@@@2@$00@std@@QAE@U_Zero_then_variadic_args_t@1@@Z ENDP ; std::_Compressed_pair<std::allocator<char>,std::_String_val<std::_Simple_types<char> >,1>::_Compressed_pair<std::allocator<char>,std::_String_val<std::_Simple_types<char> >,1><>
_TEXT	ENDS
; Function compile flags: /Odtp
; File c:\program files (x86)\microsoft visual studio\2017\community\vc\tools\msvc\14.16.27023\include\type_traits
;	COMDAT ??$move@AAV?$basic_string@DU?$char_traits@D@std@@V?$allocator@D@2@@std@@@std@@YA$$QAV?$basic_string@DU?$char_traits@D@std@@V?$allocator@D@2@@0@AAV10@@Z
_TEXT	SEGMENT
__Arg$ = 8						; size = 4
??$move@AAV?$basic_string@DU?$char_traits@D@std@@V?$allocator@D@2@@std@@@std@@YA$$QAV?$basic_string@DU?$char_traits@D@std@@V?$allocator@D@2@@0@AAV10@@Z PROC ; std::move<std::basic_string<char,std::char_traits<char>,std::allocator<char> > &>, COMDAT

; 1588 : 	{	// forward _Arg as movable

  00000	55		 push	 ebp
  00001	8b ec		 mov	 ebp, esp

; 1589 : 	return (static_cast<remove_reference_t<_Ty>&&>(_Arg));

  00003	8b 45 08	 mov	 eax, DWORD PTR __Arg$[ebp]

; 1590 : 	}

  00006	5d		 pop	 ebp
  00007	c3		 ret	 0
??$move@AAV?$basic_string@DU?$char_traits@D@std@@V?$allocator@D@2@@std@@@std@@YA$$QAV?$basic_string@DU?$char_traits@D@std@@V?$allocator@D@2@@0@AAV10@@Z ENDP ; std::move<std::basic_string<char,std::char_traits<char>,std::allocator<char> > &>
_TEXT	ENDS
; Function compile flags: /Odtp
; File c:\program files (x86)\microsoft visual studio\2017\community\vc\tools\msvc\14.16.27023\include\xstring
;	COMDAT ??$?0V?$allocator@D@std@@X@?$_String_alloc@U?$_String_base_types@DV?$allocator@D@std@@@std@@@std@@QAE@$$QAV?$allocator@D@1@@Z
_TEXT	SEGMENT
_this$ = -8						; size = 4
$T1 = -1						; size = 1
__Al$ = 8						; size = 4
??$?0V?$allocator@D@std@@X@?$_String_alloc@U?$_String_base_types@DV?$allocator@D@std@@@std@@@std@@QAE@$$QAV?$allocator@D@1@@Z PROC ; std::_String_alloc<std::_String_base_types<char,std::allocator<char> > >::_String_alloc<std::_String_base_types<char,std::allocator<char> > ><std::allocator<char>,void>, COMDAT
; _this$ = ecx

; 1918 : 		{	// construct allocator from _Al

  00000	55		 push	 ebp
  00001	8b ec		 mov	 ebp, esp
  00003	83 ec 08	 sub	 esp, 8
  00006	89 4d f8	 mov	 DWORD PTR _this$[ebp], ecx

; 1916 : 		: _Mypair(_One_then_variadic_args_t(),

  00009	8b 45 08	 mov	 eax, DWORD PTR __Al$[ebp]
  0000c	50		 push	 eax
  0000d	e8 00 00 00 00	 call	 ??$forward@V?$allocator@D@std@@@std@@YA$$QAV?$allocator@D@0@AAV10@@Z ; std::forward<std::allocator<char> >
  00012	83 c4 04	 add	 esp, 4
  00015	50		 push	 eax
  00016	0f b6 4d ff	 movzx	 ecx, BYTE PTR $T1[ebp]
  0001a	51		 push	 ecx
  0001b	8b 4d f8	 mov	 ecx, DWORD PTR _this$[ebp]
  0001e	e8 00 00 00 00	 call	 ??$?0V?$allocator@D@std@@$$V@?$_Compressed_pair@V?$allocator@D@std@@V?$_String_val@U?$_Simple_types@D@std@@@2@$00@std@@QAE@U_One_then_variadic_args_t@1@$$QAV?$allocator@D@1@@Z ; std::_Compressed_pair<std::allocator<char>,std::_String_val<std::_Simple_types<char> >,1>::_Compressed_pair<std::allocator<char>,std::_String_val<std::_Simple_types<char> >,1><std::allocator<char> >

; 1919 : 		}

  00023	8b 45 f8	 mov	 eax, DWORD PTR _this$[ebp]
  00026	8b e5		 mov	 esp, ebp
  00028	5d		 pop	 ebp
  00029	c2 04 00	 ret	 4
??$?0V?$allocator@D@std@@X@?$_String_alloc@U?$_String_base_types@DV?$allocator@D@std@@@std@@@std@@QAE@$$QAV?$allocator@D@1@@Z ENDP ; std::_String_alloc<std::_String_base_types<char,std::allocator<char> > >::_String_alloc<std::_String_base_types<char,std::allocator<char> > ><std::allocator<char>,void>
_TEXT	ENDS
; Function compile flags: /Odtp
; File c:\program files (x86)\microsoft visual studio\2017\community\vc\tools\msvc\14.16.27023\include\type_traits
;	COMDAT ??$move@AAV?$allocator@D@std@@@std@@YA$$QAV?$allocator@D@0@AAV10@@Z
_TEXT	SEGMENT
__Arg$ = 8						; size = 4
??$move@AAV?$allocator@D@std@@@std@@YA$$QAV?$allocator@D@0@AAV10@@Z PROC ; std::move<std::allocator<char> &>, COMDAT

; 1588 : 	{	// forward _Arg as movable

  00000	55		 push	 ebp
  00001	8b ec		 mov	 ebp, esp

; 1589 : 	return (static_cast<remove_reference_t<_Ty>&&>(_Arg));

  00003	8b 45 08	 mov	 eax, DWORD PTR __Arg$[ebp]

; 1590 : 	}

  00006	5d		 pop	 ebp
  00007	c3		 ret	 0
??$move@AAV?$allocator@D@std@@@std@@YA$$QAV?$allocator@D@0@AAV10@@Z ENDP ; std::move<std::allocator<char> &>
_TEXT	ENDS
; Function compile flags: /Odtp
; File c:\program files (x86)\microsoft visual studio\2017\community\vc\tools\msvc\14.16.27023\include\xstddef
;	COMDAT ??$_Unfancy@D@std@@YAPADPAD@Z
_TEXT	SEGMENT
__Ptr$ = 8						; size = 4
??$_Unfancy@D@std@@YAPADPAD@Z PROC			; std::_Unfancy<char>, COMDAT

; 345  : 	{	// do nothing for plain pointers

  00000	55		 push	 ebp
  00001	8b ec		 mov	 ebp, esp

; 346  : 	return (_Ptr);

  00003	8b 45 08	 mov	 eax, DWORD PTR __Ptr$[ebp]

; 347  : 	}

  00006	5d		 pop	 ebp
  00007	c3		 ret	 0
??$_Unfancy@D@std@@YAPADPAD@Z ENDP			; std::_Unfancy<char>
_TEXT	ENDS
; Function compile flags: /Odtp
; File c:\program files (x86)\microsoft visual studio\2017\community\vc\tools\msvc\14.16.27023\include\ostream
;	COMDAT ??$?6U?$char_traits@D@std@@@std@@YAAAV?$basic_ostream@DU?$char_traits@D@std@@@0@AAV10@PBD@Z
_TEXT	SEGMENT
__Ok$ = -124						; size = 8
tv287 = -116						; size = 8
tv338 = -108						; size = 8
tv326 = -100						; size = 8
tv135 = -92						; size = 8
__Count$ = -84						; size = 8
__Pad$ = -76						; size = 8
$T2 = -68						; size = 4
$T3 = -64						; size = 4
$T4 = -60						; size = 4
tv290 = -56						; size = 4
tv289 = -52						; size = 4
tv286 = -48						; size = 4
$T5 = -44						; size = 4
$T6 = -40						; size = 4
tv285 = -36						; size = 4
tv284 = -32						; size = 4
tv137 = -28						; size = 4
__State$ = -24						; size = 4
tv288 = -18						; size = 1
tv283 = -17						; size = 1
__$EHRec$ = -16						; size = 16
__Ostr$ = 8						; size = 4
__Val$ = 12						; size = 4
??$?6U?$char_traits@D@std@@@std@@YAAAV?$basic_ostream@DU?$char_traits@D@std@@@0@AAV10@PBD@Z PROC ; std::operator<<<std::char_traits<char> >, COMDAT

; 790  : 	{	// insert NTBS into char stream

  00000	55		 push	 ebp
  00001	8b ec		 mov	 ebp, esp
  00003	6a ff		 push	 -1
  00005	68 00 00 00 00	 push	 __ehhandler$??$?6U?$char_traits@D@std@@@std@@YAAAV?$basic_ostream@DU?$char_traits@D@std@@@0@AAV10@PBD@Z
  0000a	64 a1 00 00 00
	00		 mov	 eax, DWORD PTR fs:0
  00010	50		 push	 eax
  00011	51		 push	 ecx
  00012	83 ec 6c	 sub	 esp, 108		; 0000006cH
  00015	53		 push	 ebx
  00016	56		 push	 esi
  00017	57		 push	 edi
  00018	a1 00 00 00 00	 mov	 eax, DWORD PTR ___security_cookie
  0001d	33 c5		 xor	 eax, ebp
  0001f	50		 push	 eax
  00020	8d 45 f4	 lea	 eax, DWORD PTR __$EHRec$[ebp+4]
  00023	64 a3 00 00 00
	00		 mov	 DWORD PTR fs:0, eax
  00029	89 65 f0	 mov	 DWORD PTR __$EHRec$[ebp], esp

; 791  : 	typedef char _Elem;
; 792  : 	typedef basic_ostream<_Elem, _Traits> _Myos;
; 793  : 	ios_base::iostate _State = ios_base::goodbit;

  0002c	c7 45 e8 00 00
	00 00		 mov	 DWORD PTR __State$[ebp], 0

; 794  : 	streamsize _Count = (streamsize)_Traits::length(_Val);	// may overflow

  00033	8b 45 0c	 mov	 eax, DWORD PTR __Val$[ebp]
  00036	50		 push	 eax
  00037	e8 00 00 00 00	 call	 ?length@?$char_traits@D@std@@SAIQBD@Z ; std::char_traits<char>::length
  0003c	83 c4 04	 add	 esp, 4
  0003f	33 c9		 xor	 ecx, ecx
  00041	89 45 ac	 mov	 DWORD PTR __Count$[ebp], eax
  00044	89 4d b0	 mov	 DWORD PTR __Count$[ebp+4], ecx

; 795  : 	streamsize _Pad = _Ostr.width() <= 0 || _Ostr.width() <= _Count

  00047	8b 55 08	 mov	 edx, DWORD PTR __Ostr$[ebp]
  0004a	8b 02		 mov	 eax, DWORD PTR [edx]
  0004c	8b 4d 08	 mov	 ecx, DWORD PTR __Ostr$[ebp]
  0004f	03 48 04	 add	 ecx, DWORD PTR [eax+4]
  00052	e8 00 00 00 00	 call	 ?width@ios_base@std@@QBE_JXZ ; std::ios_base::width
  00057	89 45 9c	 mov	 DWORD PTR tv326[ebp], eax
  0005a	89 55 a0	 mov	 DWORD PTR tv326[ebp+4], edx
  0005d	83 7d a0 00	 cmp	 DWORD PTR tv326[ebp+4], 0
  00061	7c 4e		 jl	 SHORT $LN17@operator
  00063	7f 06		 jg	 SHORT $LN24@operator
  00065	83 7d 9c 00	 cmp	 DWORD PTR tv326[ebp], 0
  00069	76 46		 jbe	 SHORT $LN17@operator
$LN24@operator:
  0006b	8b 4d 08	 mov	 ecx, DWORD PTR __Ostr$[ebp]
  0006e	8b 11		 mov	 edx, DWORD PTR [ecx]
  00070	8b 4d 08	 mov	 ecx, DWORD PTR __Ostr$[ebp]
  00073	03 4a 04	 add	 ecx, DWORD PTR [edx+4]
  00076	e8 00 00 00 00	 call	 ?width@ios_base@std@@QBE_JXZ ; std::ios_base::width
  0007b	89 45 94	 mov	 DWORD PTR tv338[ebp], eax
  0007e	89 55 98	 mov	 DWORD PTR tv338[ebp+4], edx
  00081	8b 45 98	 mov	 eax, DWORD PTR tv338[ebp+4]
  00084	3b 45 b0	 cmp	 eax, DWORD PTR __Count$[ebp+4]
  00087	7c 28		 jl	 SHORT $LN17@operator
  00089	7f 08		 jg	 SHORT $LN25@operator
  0008b	8b 4d 94	 mov	 ecx, DWORD PTR tv338[ebp]
  0008e	3b 4d ac	 cmp	 ecx, DWORD PTR __Count$[ebp]
  00091	76 1e		 jbe	 SHORT $LN17@operator
$LN25@operator:
  00093	8b 55 08	 mov	 edx, DWORD PTR __Ostr$[ebp]
  00096	8b 02		 mov	 eax, DWORD PTR [edx]
  00098	8b 4d 08	 mov	 ecx, DWORD PTR __Ostr$[ebp]
  0009b	03 48 04	 add	 ecx, DWORD PTR [eax+4]
  0009e	e8 00 00 00 00	 call	 ?width@ios_base@std@@QBE_JXZ ; std::ios_base::width
  000a3	2b 45 ac	 sub	 eax, DWORD PTR __Count$[ebp]
  000a6	1b 55 b0	 sbb	 edx, DWORD PTR __Count$[ebp+4]
  000a9	89 45 a4	 mov	 DWORD PTR tv135[ebp], eax
  000ac	89 55 a8	 mov	 DWORD PTR tv135[ebp+4], edx
  000af	eb 08		 jmp	 SHORT $LN18@operator
$LN17@operator:
  000b1	0f 57 c0	 xorps	 xmm0, xmm0
  000b4	66 0f 13 45 a4	 movlpd	 QWORD PTR tv135[ebp], xmm0
$LN18@operator:
  000b9	8b 4d a4	 mov	 ecx, DWORD PTR tv135[ebp]
  000bc	89 4d b4	 mov	 DWORD PTR __Pad$[ebp], ecx
  000bf	8b 55 a8	 mov	 edx, DWORD PTR tv135[ebp+4]
  000c2	89 55 b8	 mov	 DWORD PTR __Pad$[ebp+4], edx

; 796  : 		? 0 : _Ostr.width() - _Count;
; 797  : 	const typename _Myos::sentry _Ok(_Ostr);

  000c5	8b 45 08	 mov	 eax, DWORD PTR __Ostr$[ebp]
  000c8	50		 push	 eax
  000c9	8d 4d 84	 lea	 ecx, DWORD PTR __Ok$[ebp]
  000cc	e8 00 00 00 00	 call	 ??0sentry@?$basic_ostream@DU?$char_traits@D@std@@@std@@QAE@AAV12@@Z ; std::basic_ostream<char,std::char_traits<char> >::sentry::sentry
  000d1	c7 45 fc 00 00
	00 00		 mov	 DWORD PTR __$EHRec$[ebp+12], 0

; 798  : 
; 799  : 	if (!_Ok)

  000d8	8d 4d 84	 lea	 ecx, DWORD PTR __Ok$[ebp]
  000db	e8 00 00 00 00	 call	 ??Bsentry@?$basic_ostream@DU?$char_traits@D@std@@@std@@QBE_NXZ ; std::basic_ostream<char,std::char_traits<char> >::sentry::operator bool
  000e0	0f b6 c8	 movzx	 ecx, al
  000e3	85 c9		 test	 ecx, ecx
  000e5	75 0e		 jne	 SHORT $LN8@operator

; 800  : 		_State |= ios_base::badbit;

  000e7	8b 55 e8	 mov	 edx, DWORD PTR __State$[ebp]
  000ea	83 ca 04	 or	 edx, 4
  000ed	89 55 e8	 mov	 DWORD PTR __State$[ebp], edx

; 801  : 	else

  000f0	e9 e4 01 00 00	 jmp	 $LN9@operator
$LN8@operator:

; 802  : 		{	// state okay, insert
; 803  : 		_TRY_IO_BEGIN

  000f5	c6 45 fc 01	 mov	 BYTE PTR __$EHRec$[ebp+12], 1

; 804  : 		if ((_Ostr.flags() & ios_base::adjustfield) != ios_base::left)

  000f9	8b 45 08	 mov	 eax, DWORD PTR __Ostr$[ebp]
  000fc	8b 08		 mov	 ecx, DWORD PTR [eax]
  000fe	8b 55 08	 mov	 edx, DWORD PTR __Ostr$[ebp]
  00101	03 51 04	 add	 edx, DWORD PTR [ecx+4]
  00104	8b ca		 mov	 ecx, edx
  00106	e8 00 00 00 00	 call	 ?flags@ios_base@std@@QBEHXZ ; std::ios_base::flags
  0010b	89 45 e4	 mov	 DWORD PTR tv137[ebp], eax
  0010e	8b 45 e4	 mov	 eax, DWORD PTR tv137[ebp]
  00111	25 c0 01 00 00	 and	 eax, 448		; 000001c0H
  00116	83 f8 40	 cmp	 eax, 64			; 00000040H
  00119	0f 84 91 00 00
	00		 je	 $LN11@operator

; 805  : 			for (; 0 < _Pad; --_Pad)	// pad on left

  0011f	eb 12		 jmp	 SHORT $LN4@operator
$LN2@operator:
  00121	8b 4d b4	 mov	 ecx, DWORD PTR __Pad$[ebp]
  00124	83 e9 01	 sub	 ecx, 1
  00127	8b 55 b8	 mov	 edx, DWORD PTR __Pad$[ebp+4]
  0012a	83 da 00	 sbb	 edx, 0
  0012d	89 4d b4	 mov	 DWORD PTR __Pad$[ebp], ecx
  00130	89 55 b8	 mov	 DWORD PTR __Pad$[ebp+4], edx
$LN4@operator:
  00133	83 7d b8 00	 cmp	 DWORD PTR __Pad$[ebp+4], 0
  00137	7c 77		 jl	 SHORT $LN11@operator
  00139	7f 06		 jg	 SHORT $LN26@operator
  0013b	83 7d b4 00	 cmp	 DWORD PTR __Pad$[ebp], 0
  0013f	76 6f		 jbe	 SHORT $LN11@operator
$LN26@operator:

; 806  : 				if (_Traits::eq_int_type(_Traits::eof(),

  00141	8b 45 08	 mov	 eax, DWORD PTR __Ostr$[ebp]
  00144	8b 08		 mov	 ecx, DWORD PTR [eax]
  00146	8b 55 08	 mov	 edx, DWORD PTR __Ostr$[ebp]
  00149	03 51 04	 add	 edx, DWORD PTR [ecx+4]
  0014c	8b ca		 mov	 ecx, edx
  0014e	e8 00 00 00 00	 call	 ?fill@?$basic_ios@DU?$char_traits@D@std@@@std@@QBEDXZ ; std::basic_ios<char,std::char_traits<char> >::fill
  00153	88 45 ef	 mov	 BYTE PTR tv283[ebp], al
  00156	8b 45 08	 mov	 eax, DWORD PTR __Ostr$[ebp]
  00159	8b 08		 mov	 ecx, DWORD PTR [eax]
  0015b	8b 55 08	 mov	 edx, DWORD PTR __Ostr$[ebp]
  0015e	03 51 04	 add	 edx, DWORD PTR [ecx+4]
  00161	8b ca		 mov	 ecx, edx
  00163	e8 00 00 00 00	 call	 ?rdbuf@?$basic_ios@DU?$char_traits@D@std@@@std@@QBEPAV?$basic_streambuf@DU?$char_traits@D@std@@@2@XZ ; std::basic_ios<char,std::char_traits<char> >::rdbuf
  00168	89 45 e0	 mov	 DWORD PTR tv284[ebp], eax
  0016b	0f b6 45 ef	 movzx	 eax, BYTE PTR tv283[ebp]
  0016f	50		 push	 eax
  00170	8b 4d e0	 mov	 ecx, DWORD PTR tv284[ebp]
  00173	e8 00 00 00 00	 call	 ?sputc@?$basic_streambuf@DU?$char_traits@D@std@@@std@@QAEHD@Z ; std::basic_streambuf<char,std::char_traits<char> >::sputc
  00178	89 45 dc	 mov	 DWORD PTR tv285[ebp], eax
  0017b	8b 4d dc	 mov	 ecx, DWORD PTR tv285[ebp]
  0017e	89 4d d8	 mov	 DWORD PTR $T6[ebp], ecx
  00181	e8 00 00 00 00	 call	 ?eof@?$char_traits@D@std@@SAHXZ ; std::char_traits<char>::eof
  00186	89 45 d4	 mov	 DWORD PTR $T5[ebp], eax
  00189	8d 55 d8	 lea	 edx, DWORD PTR $T6[ebp]
  0018c	52		 push	 edx
  0018d	8d 45 d4	 lea	 eax, DWORD PTR $T5[ebp]
  00190	50		 push	 eax
  00191	e8 00 00 00 00	 call	 ?eq_int_type@?$char_traits@D@std@@SA_NABH0@Z ; std::char_traits<char>::eq_int_type
  00196	83 c4 08	 add	 esp, 8
  00199	0f b6 c8	 movzx	 ecx, al
  0019c	85 c9		 test	 ecx, ecx
  0019e	74 0b		 je	 SHORT $LN12@operator

; 807  : 					_Ostr.rdbuf()->sputc(_Ostr.fill())))
; 808  : 					{	// insertion failed, quit
; 809  : 					_State |= ios_base::badbit;

  001a0	8b 55 e8	 mov	 edx, DWORD PTR __State$[ebp]
  001a3	83 ca 04	 or	 edx, 4
  001a6	89 55 e8	 mov	 DWORD PTR __State$[ebp], edx

; 810  : 					break;

  001a9	eb 05		 jmp	 SHORT $LN11@operator
$LN12@operator:

; 811  : 					}
; 812  : 
; 813  : 		if (_State == ios_base::goodbit

  001ab	e9 71 ff ff ff	 jmp	 $LN2@operator
$LN11@operator:

; 814  : 			&& _Ostr.rdbuf()->sputn(_Val, _Count) != _Count)

  001b0	83 7d e8 00	 cmp	 DWORD PTR __State$[ebp], 0
  001b4	75 48		 jne	 SHORT $LN13@operator
  001b6	8b 45 08	 mov	 eax, DWORD PTR __Ostr$[ebp]
  001b9	8b 08		 mov	 ecx, DWORD PTR [eax]
  001bb	8b 55 08	 mov	 edx, DWORD PTR __Ostr$[ebp]
  001be	03 51 04	 add	 edx, DWORD PTR [ecx+4]
  001c1	8b ca		 mov	 ecx, edx
  001c3	e8 00 00 00 00	 call	 ?rdbuf@?$basic_ios@DU?$char_traits@D@std@@@std@@QBEPAV?$basic_streambuf@DU?$char_traits@D@std@@@2@XZ ; std::basic_ios<char,std::char_traits<char> >::rdbuf
  001c8	89 45 d0	 mov	 DWORD PTR tv286[ebp], eax
  001cb	8b 45 b0	 mov	 eax, DWORD PTR __Count$[ebp+4]
  001ce	50		 push	 eax
  001cf	8b 4d ac	 mov	 ecx, DWORD PTR __Count$[ebp]
  001d2	51		 push	 ecx
  001d3	8b 55 0c	 mov	 edx, DWORD PTR __Val$[ebp]
  001d6	52		 push	 edx
  001d7	8b 4d d0	 mov	 ecx, DWORD PTR tv286[ebp]
  001da	e8 00 00 00 00	 call	 ?sputn@?$basic_streambuf@DU?$char_traits@D@std@@@std@@QAE_JPBD_J@Z ; std::basic_streambuf<char,std::char_traits<char> >::sputn
  001df	89 45 8c	 mov	 DWORD PTR tv287[ebp], eax
  001e2	89 55 90	 mov	 DWORD PTR tv287[ebp+4], edx
  001e5	8b 45 8c	 mov	 eax, DWORD PTR tv287[ebp]
  001e8	3b 45 ac	 cmp	 eax, DWORD PTR __Count$[ebp]
  001eb	75 08		 jne	 SHORT $LN27@operator
  001ed	8b 4d 90	 mov	 ecx, DWORD PTR tv287[ebp+4]
  001f0	3b 4d b0	 cmp	 ecx, DWORD PTR __Count$[ebp+4]
  001f3	74 09		 je	 SHORT $LN13@operator
$LN27@operator:

; 815  : 			_State |= ios_base::badbit;

  001f5	8b 55 e8	 mov	 edx, DWORD PTR __State$[ebp]
  001f8	83 ca 04	 or	 edx, 4
  001fb	89 55 e8	 mov	 DWORD PTR __State$[ebp], edx
$LN13@operator:

; 816  : 
; 817  : 		if (_State == ios_base::goodbit)

  001fe	83 7d e8 00	 cmp	 DWORD PTR __State$[ebp], 0
  00202	0f 85 8d 00 00
	00		 jne	 $LN14@operator

; 818  : 			for (; 0 < _Pad; --_Pad)	// pad on right

  00208	eb 12		 jmp	 SHORT $LN7@operator
$LN5@operator:
  0020a	8b 45 b4	 mov	 eax, DWORD PTR __Pad$[ebp]
  0020d	83 e8 01	 sub	 eax, 1
  00210	8b 4d b8	 mov	 ecx, DWORD PTR __Pad$[ebp+4]
  00213	83 d9 00	 sbb	 ecx, 0
  00216	89 45 b4	 mov	 DWORD PTR __Pad$[ebp], eax
  00219	89 4d b8	 mov	 DWORD PTR __Pad$[ebp+4], ecx
$LN7@operator:
  0021c	83 7d b8 00	 cmp	 DWORD PTR __Pad$[ebp+4], 0
  00220	7c 73		 jl	 SHORT $LN14@operator
  00222	7f 06		 jg	 SHORT $LN28@operator
  00224	83 7d b4 00	 cmp	 DWORD PTR __Pad$[ebp], 0
  00228	76 6b		 jbe	 SHORT $LN14@operator
$LN28@operator:

; 819  : 				if (_Traits::eq_int_type(_Traits::eof(),

  0022a	8b 55 08	 mov	 edx, DWORD PTR __Ostr$[ebp]
  0022d	8b 02		 mov	 eax, DWORD PTR [edx]
  0022f	8b 4d 08	 mov	 ecx, DWORD PTR __Ostr$[ebp]
  00232	03 48 04	 add	 ecx, DWORD PTR [eax+4]
  00235	e8 00 00 00 00	 call	 ?fill@?$basic_ios@DU?$char_traits@D@std@@@std@@QBEDXZ ; std::basic_ios<char,std::char_traits<char> >::fill
  0023a	88 45 ee	 mov	 BYTE PTR tv288[ebp], al
  0023d	8b 4d 08	 mov	 ecx, DWORD PTR __Ostr$[ebp]
  00240	8b 11		 mov	 edx, DWORD PTR [ecx]
  00242	8b 4d 08	 mov	 ecx, DWORD PTR __Ostr$[ebp]
  00245	03 4a 04	 add	 ecx, DWORD PTR [edx+4]
  00248	e8 00 00 00 00	 call	 ?rdbuf@?$basic_ios@DU?$char_traits@D@std@@@std@@QBEPAV?$basic_streambuf@DU?$char_traits@D@std@@@2@XZ ; std::basic_ios<char,std::char_traits<char> >::rdbuf
  0024d	89 45 cc	 mov	 DWORD PTR tv289[ebp], eax
  00250	0f b6 45 ee	 movzx	 eax, BYTE PTR tv288[ebp]
  00254	50		 push	 eax
  00255	8b 4d cc	 mov	 ecx, DWORD PTR tv289[ebp]
  00258	e8 00 00 00 00	 call	 ?sputc@?$basic_streambuf@DU?$char_traits@D@std@@@std@@QAEHD@Z ; std::basic_streambuf<char,std::char_traits<char> >::sputc
  0025d	89 45 c8	 mov	 DWORD PTR tv290[ebp], eax
  00260	8b 4d c8	 mov	 ecx, DWORD PTR tv290[ebp]
  00263	89 4d c4	 mov	 DWORD PTR $T4[ebp], ecx
  00266	e8 00 00 00 00	 call	 ?eof@?$char_traits@D@std@@SAHXZ ; std::char_traits<char>::eof
  0026b	89 45 c0	 mov	 DWORD PTR $T3[ebp], eax
  0026e	8d 55 c4	 lea	 edx, DWORD PTR $T4[ebp]
  00271	52		 push	 edx
  00272	8d 45 c0	 lea	 eax, DWORD PTR $T3[ebp]
  00275	50		 push	 eax
  00276	e8 00 00 00 00	 call	 ?eq_int_type@?$char_traits@D@std@@SA_NABH0@Z ; std::char_traits<char>::eq_int_type
  0027b	83 c4 08	 add	 esp, 8
  0027e	0f b6 c8	 movzx	 ecx, al
  00281	85 c9		 test	 ecx, ecx
  00283	74 0b		 je	 SHORT $LN15@operator

; 820  : 					_Ostr.rdbuf()->sputc(_Ostr.fill())))
; 821  : 					{	// insertion failed, quit
; 822  : 					_State |= ios_base::badbit;

  00285	8b 55 e8	 mov	 edx, DWORD PTR __State$[ebp]
  00288	83 ca 04	 or	 edx, 4
  0028b	89 55 e8	 mov	 DWORD PTR __State$[ebp], edx

; 823  : 					break;

  0028e	eb 05		 jmp	 SHORT $LN14@operator
$LN15@operator:

; 824  : 					}

  00290	e9 75 ff ff ff	 jmp	 $LN5@operator
$LN14@operator:

; 825  : 		_Ostr.width(0);

  00295	6a 00		 push	 0
  00297	6a 00		 push	 0
  00299	8b 45 08	 mov	 eax, DWORD PTR __Ostr$[ebp]
  0029c	8b 08		 mov	 ecx, DWORD PTR [eax]
  0029e	8b 55 08	 mov	 edx, DWORD PTR __Ostr$[ebp]
  002a1	03 51 04	 add	 edx, DWORD PTR [ecx+4]
  002a4	8b ca		 mov	 ecx, edx
  002a6	e8 00 00 00 00	 call	 ?width@ios_base@std@@QAE_J_J@Z ; std::ios_base::width
  002ab	eb 1c		 jmp	 SHORT $LN19@operator
__catch$??$?6U?$char_traits@D@std@@@std@@YAAAV?$basic_ostream@DU?$char_traits@D@std@@@0@AAV10@PBD@Z$0:

; 826  : 		_CATCH_IO_(_Ostr)

  002ad	6a 01		 push	 1
  002af	6a 04		 push	 4
  002b1	8b 45 08	 mov	 eax, DWORD PTR __Ostr$[ebp]
  002b4	8b 08		 mov	 ecx, DWORD PTR [eax]
  002b6	8b 55 08	 mov	 edx, DWORD PTR __Ostr$[ebp]
  002b9	03 51 04	 add	 edx, DWORD PTR [ecx+4]
  002bc	8b ca		 mov	 ecx, edx
  002be	e8 00 00 00 00	 call	 ?setstate@?$basic_ios@DU?$char_traits@D@std@@@std@@QAEXH_N@Z ; std::basic_ios<char,std::char_traits<char> >::setstate
  002c3	b8 00 00 00 00	 mov	 eax, $LN23@operator
  002c8	c3		 ret	 0
$LN19@operator:
  002c9	c7 45 fc 00 00
	00 00		 mov	 DWORD PTR __$EHRec$[ebp+12], 0
  002d0	eb 07		 jmp	 SHORT $LN9@operator
$LN23@operator:
  002d2	c7 45 fc 00 00
	00 00		 mov	 DWORD PTR __$EHRec$[ebp+12], 0
$LN9@operator:

; 827  : 		}
; 828  : 
; 829  : 	_Ostr.setstate(_State);

  002d9	6a 00		 push	 0
  002db	8b 45 e8	 mov	 eax, DWORD PTR __State$[ebp]
  002de	50		 push	 eax
  002df	8b 4d 08	 mov	 ecx, DWORD PTR __Ostr$[ebp]
  002e2	8b 11		 mov	 edx, DWORD PTR [ecx]
  002e4	8b 4d 08	 mov	 ecx, DWORD PTR __Ostr$[ebp]
  002e7	03 4a 04	 add	 ecx, DWORD PTR [edx+4]
  002ea	e8 00 00 00 00	 call	 ?setstate@?$basic_ios@DU?$char_traits@D@std@@@std@@QAEXH_N@Z ; std::basic_ios<char,std::char_traits<char> >::setstate

; 830  : 	return (_Ostr);

  002ef	8b 45 08	 mov	 eax, DWORD PTR __Ostr$[ebp]
  002f2	89 45 bc	 mov	 DWORD PTR $T2[ebp], eax
  002f5	c7 45 fc ff ff
	ff ff		 mov	 DWORD PTR __$EHRec$[ebp+12], -1
  002fc	8d 4d 84	 lea	 ecx, DWORD PTR __Ok$[ebp]
  002ff	e8 00 00 00 00	 call	 ??1sentry@?$basic_ostream@DU?$char_traits@D@std@@@std@@QAE@XZ ; std::basic_ostream<char,std::char_traits<char> >::sentry::~sentry
  00304	8b 45 bc	 mov	 eax, DWORD PTR $T2[ebp]

; 831  : 	}

  00307	8b 4d f4	 mov	 ecx, DWORD PTR __$EHRec$[ebp+4]
  0030a	64 89 0d 00 00
	00 00		 mov	 DWORD PTR fs:0, ecx
  00311	59		 pop	 ecx
  00312	5f		 pop	 edi
  00313	5e		 pop	 esi
  00314	5b		 pop	 ebx
  00315	8b e5		 mov	 esp, ebp
  00317	5d		 pop	 ebp
  00318	c3		 ret	 0
_TEXT	ENDS
;	COMDAT text$x
text$x	SEGMENT
__unwindfunclet$??$?6U?$char_traits@D@std@@@std@@YAAAV?$basic_ostream@DU?$char_traits@D@std@@@0@AAV10@PBD@Z$2:
  00000	8d 4d 84	 lea	 ecx, DWORD PTR __Ok$[ebp]
  00003	e9 00 00 00 00	 jmp	 ??1sentry@?$basic_ostream@DU?$char_traits@D@std@@@std@@QAE@XZ ; std::basic_ostream<char,std::char_traits<char> >::sentry::~sentry
__ehhandler$??$?6U?$char_traits@D@std@@@std@@YAAAV?$basic_ostream@DU?$char_traits@D@std@@@0@AAV10@PBD@Z:
  00008	8b 54 24 08	 mov	 edx, DWORD PTR [esp+8]
  0000c	8d 42 0c	 lea	 eax, DWORD PTR [edx+12]
  0000f	8b 4a 80	 mov	 ecx, DWORD PTR [edx-128]
  00012	33 c8		 xor	 ecx, eax
  00014	e8 00 00 00 00	 call	 @__security_check_cookie@4
  00019	b8 00 00 00 00	 mov	 eax, OFFSET __ehfuncinfo$??$?6U?$char_traits@D@std@@@std@@YAAAV?$basic_ostream@DU?$char_traits@D@std@@@0@AAV10@PBD@Z
  0001e	e9 00 00 00 00	 jmp	 ___CxxFrameHandler3
text$x	ENDS
??$?6U?$char_traits@D@std@@@std@@YAAAV?$basic_ostream@DU?$char_traits@D@std@@@0@AAV10@PBD@Z ENDP ; std::operator<<<std::char_traits<char> >
; Function compile flags: /Odtp
; File c:\program files (x86)\microsoft visual studio\2017\community\vc\tools\msvc\14.16.27023\include\ostream
;	COMDAT ?flush@?$basic_ostream@DU?$char_traits@D@std@@@std@@QAEAAV12@XZ
_TEXT	SEGMENT
__Ok$2 = -24						; size = 8
_this$ = -16						; size = 4
__$EHRec$ = -12						; size = 12
?flush@?$basic_ostream@DU?$char_traits@D@std@@@std@@QAEAAV12@XZ PROC ; std::basic_ostream<char,std::char_traits<char> >::flush, COMDAT
; _this$ = ecx

; 586  : 		{	// flush output stream

  00000	55		 push	 ebp
  00001	8b ec		 mov	 ebp, esp
  00003	6a ff		 push	 -1
  00005	68 00 00 00 00	 push	 __ehhandler$?flush@?$basic_ostream@DU?$char_traits@D@std@@@std@@QAEAAV12@XZ
  0000a	64 a1 00 00 00
	00		 mov	 eax, DWORD PTR fs:0
  00010	50		 push	 eax
  00011	83 ec 0c	 sub	 esp, 12			; 0000000cH
  00014	a1 00 00 00 00	 mov	 eax, DWORD PTR ___security_cookie
  00019	33 c5		 xor	 eax, ebp
  0001b	50		 push	 eax
  0001c	8d 45 f4	 lea	 eax, DWORD PTR __$EHRec$[ebp]
  0001f	64 a3 00 00 00
	00		 mov	 DWORD PTR fs:0, eax
  00025	89 4d f0	 mov	 DWORD PTR _this$[ebp], ecx

; 587  : 		if (_Myios::rdbuf() != nullptr)

  00028	8b 45 f0	 mov	 eax, DWORD PTR _this$[ebp]
  0002b	8b 08		 mov	 ecx, DWORD PTR [eax]
  0002d	8b 55 f0	 mov	 edx, DWORD PTR _this$[ebp]
  00030	03 51 04	 add	 edx, DWORD PTR [ecx+4]
  00033	8b ca		 mov	 ecx, edx
  00035	e8 00 00 00 00	 call	 ?rdbuf@?$basic_ios@DU?$char_traits@D@std@@@std@@QBEPAV?$basic_streambuf@DU?$char_traits@D@std@@@2@XZ ; std::basic_ios<char,std::char_traits<char> >::rdbuf
  0003a	85 c0		 test	 eax, eax
  0003c	74 61		 je	 SHORT $LN2@flush

; 588  : 			{	// buffer exists, flush it
; 589  : 			const sentry _Ok(*this);

  0003e	8b 45 f0	 mov	 eax, DWORD PTR _this$[ebp]
  00041	50		 push	 eax
  00042	8d 4d e8	 lea	 ecx, DWORD PTR __Ok$2[ebp]
  00045	e8 00 00 00 00	 call	 ??0sentry@?$basic_ostream@DU?$char_traits@D@std@@@std@@QAE@AAV12@@Z ; std::basic_ostream<char,std::char_traits<char> >::sentry::sentry
  0004a	c7 45 fc 00 00
	00 00		 mov	 DWORD PTR __$EHRec$[ebp+8], 0

; 590  : 
; 591  : 			if (_Ok && _Myios::rdbuf()->pubsync() == -1)

  00051	8d 4d e8	 lea	 ecx, DWORD PTR __Ok$2[ebp]
  00054	e8 00 00 00 00	 call	 ??Bsentry@?$basic_ostream@DU?$char_traits@D@std@@@std@@QBE_NXZ ; std::basic_ostream<char,std::char_traits<char> >::sentry::operator bool
  00059	0f b6 c8	 movzx	 ecx, al
  0005c	85 c9		 test	 ecx, ecx
  0005e	74 30		 je	 SHORT $LN3@flush
  00060	8b 55 f0	 mov	 edx, DWORD PTR _this$[ebp]
  00063	8b 02		 mov	 eax, DWORD PTR [edx]
  00065	8b 4d f0	 mov	 ecx, DWORD PTR _this$[ebp]
  00068	03 48 04	 add	 ecx, DWORD PTR [eax+4]
  0006b	e8 00 00 00 00	 call	 ?rdbuf@?$basic_ios@DU?$char_traits@D@std@@@std@@QBEPAV?$basic_streambuf@DU?$char_traits@D@std@@@2@XZ ; std::basic_ios<char,std::char_traits<char> >::rdbuf
  00070	8b c8		 mov	 ecx, eax
  00072	e8 00 00 00 00	 call	 ?pubsync@?$basic_streambuf@DU?$char_traits@D@std@@@std@@QAEHXZ ; std::basic_streambuf<char,std::char_traits<char> >::pubsync
  00077	83 f8 ff	 cmp	 eax, -1
  0007a	75 14		 jne	 SHORT $LN3@flush

; 592  : 				_Myios::setstate(ios_base::badbit);	// sync failed

  0007c	6a 00		 push	 0
  0007e	6a 04		 push	 4
  00080	8b 4d f0	 mov	 ecx, DWORD PTR _this$[ebp]
  00083	8b 11		 mov	 edx, DWORD PTR [ecx]
  00085	8b 4d f0	 mov	 ecx, DWORD PTR _this$[ebp]
  00088	03 4a 04	 add	 ecx, DWORD PTR [edx+4]
  0008b	e8 00 00 00 00	 call	 ?setstate@?$basic_ios@DU?$char_traits@D@std@@@std@@QAEXH_N@Z ; std::basic_ios<char,std::char_traits<char> >::setstate
$LN3@flush:

; 593  : 			}

  00090	c7 45 fc ff ff
	ff ff		 mov	 DWORD PTR __$EHRec$[ebp+8], -1
  00097	8d 4d e8	 lea	 ecx, DWORD PTR __Ok$2[ebp]
  0009a	e8 00 00 00 00	 call	 ??1sentry@?$basic_ostream@DU?$char_traits@D@std@@@std@@QAE@XZ ; std::basic_ostream<char,std::char_traits<char> >::sentry::~sentry
$LN2@flush:

; 594  : 		return (*this);

  0009f	8b 45 f0	 mov	 eax, DWORD PTR _this$[ebp]

; 595  : 		}

  000a2	8b 4d f4	 mov	 ecx, DWORD PTR __$EHRec$[ebp]
  000a5	64 89 0d 00 00
	00 00		 mov	 DWORD PTR fs:0, ecx
  000ac	59		 pop	 ecx
  000ad	8b e5		 mov	 esp, ebp
  000af	5d		 pop	 ebp
  000b0	c3		 ret	 0
_TEXT	ENDS
;	COMDAT text$x
text$x	SEGMENT
__unwindfunclet$?flush@?$basic_ostream@DU?$char_traits@D@std@@@std@@QAEAAV12@XZ$0:
  00000	8d 4d e8	 lea	 ecx, DWORD PTR __Ok$2[ebp]
  00003	e9 00 00 00 00	 jmp	 ??1sentry@?$basic_ostream@DU?$char_traits@D@std@@@std@@QAE@XZ ; std::basic_ostream<char,std::char_traits<char> >::sentry::~sentry
__ehhandler$?flush@?$basic_ostream@DU?$char_traits@D@std@@@std@@QAEAAV12@XZ:
  00008	8b 54 24 08	 mov	 edx, DWORD PTR [esp+8]
  0000c	8d 42 0c	 lea	 eax, DWORD PTR [edx+12]
  0000f	8b 4a f0	 mov	 ecx, DWORD PTR [edx-16]
  00012	33 c8		 xor	 ecx, eax
  00014	e8 00 00 00 00	 call	 @__security_check_cookie@4
  00019	b8 00 00 00 00	 mov	 eax, OFFSET __ehfuncinfo$?flush@?$basic_ostream@DU?$char_traits@D@std@@@std@@QAEAAV12@XZ
  0001e	e9 00 00 00 00	 jmp	 ___CxxFrameHandler3
text$x	ENDS
?flush@?$basic_ostream@DU?$char_traits@D@std@@@std@@QAEAAV12@XZ ENDP ; std::basic_ostream<char,std::char_traits<char> >::flush
; Function compile flags: /Odtp
; File c:\program files (x86)\microsoft visual studio\2017\community\vc\tools\msvc\14.16.27023\include\ostream
;	COMDAT ?_Osfx@?$basic_ostream@DU?$char_traits@D@std@@@std@@QAEXXZ
_TEXT	SEGMENT
tv152 = -36						; size = 4
tv151 = -32						; size = 4
tv150 = -28						; size = 4
_this$ = -24						; size = 4
tv149 = -17						; size = 1
__$EHRec$ = -16						; size = 16
?_Osfx@?$basic_ostream@DU?$char_traits@D@std@@@std@@QAEXXZ PROC ; std::basic_ostream<char,std::char_traits<char> >::_Osfx, COMDAT
; _this$ = ecx

; 176  : 		{	// perform any wrapup

  00000	55		 push	 ebp
  00001	8b ec		 mov	 ebp, esp
  00003	6a ff		 push	 -1
  00005	68 00 00 00 00	 push	 __ehhandler$?_Osfx@?$basic_ostream@DU?$char_traits@D@std@@@std@@QAEXXZ
  0000a	64 a1 00 00 00
	00		 mov	 eax, DWORD PTR fs:0
  00010	50		 push	 eax
  00011	51		 push	 ecx
  00012	83 ec 14	 sub	 esp, 20			; 00000014H
  00015	53		 push	 ebx
  00016	56		 push	 esi
  00017	57		 push	 edi
  00018	a1 00 00 00 00	 mov	 eax, DWORD PTR ___security_cookie
  0001d	33 c5		 xor	 eax, ebp
  0001f	50		 push	 eax
  00020	8d 45 f4	 lea	 eax, DWORD PTR __$EHRec$[ebp+4]
  00023	64 a3 00 00 00
	00		 mov	 DWORD PTR fs:0, eax
  00029	89 65 f0	 mov	 DWORD PTR __$EHRec$[ebp], esp
  0002c	89 4d e8	 mov	 DWORD PTR _this$[ebp], ecx

; 177  : 		_TRY_BEGIN

  0002f	c7 45 fc 00 00
	00 00		 mov	 DWORD PTR __$EHRec$[ebp+12], 0

; 178  : 		if (this->good() && this->flags() & ios_base::unitbuf)

  00036	8b 45 e8	 mov	 eax, DWORD PTR _this$[ebp]
  00039	8b 08		 mov	 ecx, DWORD PTR [eax]
  0003b	8b 55 e8	 mov	 edx, DWORD PTR _this$[ebp]
  0003e	03 51 04	 add	 edx, DWORD PTR [ecx+4]
  00041	8b ca		 mov	 ecx, edx
  00043	e8 00 00 00 00	 call	 ?good@ios_base@std@@QBE_NXZ ; std::ios_base::good
  00048	88 45 ef	 mov	 BYTE PTR tv149[ebp], al
  0004b	0f b6 45 ef	 movzx	 eax, BYTE PTR tv149[ebp]
  0004f	85 c0		 test	 eax, eax
  00051	74 55		 je	 SHORT $LN3@Osfx
  00053	8b 4d e8	 mov	 ecx, DWORD PTR _this$[ebp]
  00056	8b 11		 mov	 edx, DWORD PTR [ecx]
  00058	8b 4d e8	 mov	 ecx, DWORD PTR _this$[ebp]
  0005b	03 4a 04	 add	 ecx, DWORD PTR [edx+4]
  0005e	e8 00 00 00 00	 call	 ?flags@ios_base@std@@QBEHXZ ; std::ios_base::flags
  00063	89 45 e4	 mov	 DWORD PTR tv150[ebp], eax
  00066	8b 45 e4	 mov	 eax, DWORD PTR tv150[ebp]
  00069	83 e0 02	 and	 eax, 2
  0006c	74 3a		 je	 SHORT $LN3@Osfx

; 179  : 			if (_Myios::rdbuf()->pubsync() == -1)	// flush stream as needed

  0006e	8b 4d e8	 mov	 ecx, DWORD PTR _this$[ebp]
  00071	8b 11		 mov	 edx, DWORD PTR [ecx]
  00073	8b 4d e8	 mov	 ecx, DWORD PTR _this$[ebp]
  00076	03 4a 04	 add	 ecx, DWORD PTR [edx+4]
  00079	e8 00 00 00 00	 call	 ?rdbuf@?$basic_ios@DU?$char_traits@D@std@@@std@@QBEPAV?$basic_streambuf@DU?$char_traits@D@std@@@2@XZ ; std::basic_ios<char,std::char_traits<char> >::rdbuf
  0007e	89 45 e0	 mov	 DWORD PTR tv151[ebp], eax
  00081	8b 4d e0	 mov	 ecx, DWORD PTR tv151[ebp]
  00084	e8 00 00 00 00	 call	 ?pubsync@?$basic_streambuf@DU?$char_traits@D@std@@@std@@QAEHXZ ; std::basic_streambuf<char,std::char_traits<char> >::pubsync
  00089	89 45 dc	 mov	 DWORD PTR tv152[ebp], eax
  0008c	83 7d dc ff	 cmp	 DWORD PTR tv152[ebp], -1
  00090	75 16		 jne	 SHORT $LN3@Osfx

; 180  : 				_Myios::setstate(ios_base::badbit);

  00092	6a 00		 push	 0
  00094	6a 04		 push	 4
  00096	8b 45 e8	 mov	 eax, DWORD PTR _this$[ebp]
  00099	8b 08		 mov	 ecx, DWORD PTR [eax]
  0009b	8b 55 e8	 mov	 edx, DWORD PTR _this$[ebp]
  0009e	03 51 04	 add	 edx, DWORD PTR [ecx+4]
  000a1	8b ca		 mov	 ecx, edx
  000a3	e8 00 00 00 00	 call	 ?setstate@?$basic_ios@DU?$char_traits@D@std@@@std@@QAEXH_N@Z ; std::basic_ios<char,std::char_traits<char> >::setstate
$LN3@Osfx:
  000a8	eb 06		 jmp	 SHORT $LN6@Osfx
__catch$?_Osfx@?$basic_ostream@DU?$char_traits@D@std@@@std@@QAEXXZ$0:

; 181  : 		_CATCH_ALL
; 182  : 		_CATCH_END

  000aa	b8 00 00 00 00	 mov	 eax, $LN9@Osfx
  000af	c3		 ret	 0
$LN6@Osfx:
  000b0	c7 45 fc ff ff
	ff ff		 mov	 DWORD PTR __$EHRec$[ebp+12], -1
  000b7	eb 07		 jmp	 SHORT $LN1@Osfx
$LN9@Osfx:
  000b9	c7 45 fc ff ff
	ff ff		 mov	 DWORD PTR __$EHRec$[ebp+12], -1
$LN1@Osfx:

; 183  : 		}

  000c0	8b 4d f4	 mov	 ecx, DWORD PTR __$EHRec$[ebp+4]
  000c3	64 89 0d 00 00
	00 00		 mov	 DWORD PTR fs:0, ecx
  000ca	59		 pop	 ecx
  000cb	5f		 pop	 edi
  000cc	5e		 pop	 esi
  000cd	5b		 pop	 ebx
  000ce	8b e5		 mov	 esp, ebp
  000d0	5d		 pop	 ebp
  000d1	c3		 ret	 0
_TEXT	ENDS
;	COMDAT text$x
text$x	SEGMENT
__ehhandler$?_Osfx@?$basic_ostream@DU?$char_traits@D@std@@@std@@QAEXXZ:
  00000	8b 54 24 08	 mov	 edx, DWORD PTR [esp+8]
  00004	8d 42 0c	 lea	 eax, DWORD PTR [edx+12]
  00007	8b 4a d8	 mov	 ecx, DWORD PTR [edx-40]
  0000a	33 c8		 xor	 ecx, eax
  0000c	e8 00 00 00 00	 call	 @__security_check_cookie@4
  00011	b8 00 00 00 00	 mov	 eax, OFFSET __ehfuncinfo$?_Osfx@?$basic_ostream@DU?$char_traits@D@std@@@std@@QAEXXZ
  00016	e9 00 00 00 00	 jmp	 ___CxxFrameHandler3
text$x	ENDS
?_Osfx@?$basic_ostream@DU?$char_traits@D@std@@@std@@QAEXXZ ENDP ; std::basic_ostream<char,std::char_traits<char> >::_Osfx
; Function compile flags: /Odtp
; File c:\program files (x86)\microsoft visual studio\2017\community\vc\tools\msvc\14.16.27023\include\ios
;	COMDAT ?fill@?$basic_ios@DU?$char_traits@D@std@@@std@@QBEDXZ
_TEXT	SEGMENT
_this$ = -4						; size = 4
?fill@?$basic_ios@DU?$char_traits@D@std@@@std@@QBEDXZ PROC ; std::basic_ios<char,std::char_traits<char> >::fill, COMDAT
; _this$ = ecx

; 107  : 		{	// return fill character

  00000	55		 push	 ebp
  00001	8b ec		 mov	 ebp, esp
  00003	51		 push	 ecx
  00004	89 4d fc	 mov	 DWORD PTR _this$[ebp], ecx

; 108  : 		return (_Fillch);

  00007	8b 45 fc	 mov	 eax, DWORD PTR _this$[ebp]
  0000a	8a 40 40	 mov	 al, BYTE PTR [eax+64]

; 109  : 		}

  0000d	8b e5		 mov	 esp, ebp
  0000f	5d		 pop	 ebp
  00010	c3		 ret	 0
?fill@?$basic_ios@DU?$char_traits@D@std@@@std@@QBEDXZ ENDP ; std::basic_ios<char,std::char_traits<char> >::fill
_TEXT	ENDS
; Function compile flags: /Odtp
; File c:\program files (x86)\microsoft visual studio\2017\community\vc\tools\msvc\14.16.27023\include\ios
;	COMDAT ?rdbuf@?$basic_ios@DU?$char_traits@D@std@@@std@@QBEPAV?$basic_streambuf@DU?$char_traits@D@std@@@2@XZ
_TEXT	SEGMENT
_this$ = -4						; size = 4
?rdbuf@?$basic_ios@DU?$char_traits@D@std@@@std@@QBEPAV?$basic_streambuf@DU?$char_traits@D@std@@@2@XZ PROC ; std::basic_ios<char,std::char_traits<char> >::rdbuf, COMDAT
; _this$ = ecx

; 86   : 		{	// return stream buffer pointer

  00000	55		 push	 ebp
  00001	8b ec		 mov	 ebp, esp
  00003	51		 push	 ecx
  00004	89 4d fc	 mov	 DWORD PTR _this$[ebp], ecx

; 87   : 		return (_Mystrbuf);

  00007	8b 45 fc	 mov	 eax, DWORD PTR _this$[ebp]
  0000a	8b 40 38	 mov	 eax, DWORD PTR [eax+56]

; 88   : 		}

  0000d	8b e5		 mov	 esp, ebp
  0000f	5d		 pop	 ebp
  00010	c3		 ret	 0
?rdbuf@?$basic_ios@DU?$char_traits@D@std@@@std@@QBEPAV?$basic_streambuf@DU?$char_traits@D@std@@@2@XZ ENDP ; std::basic_ios<char,std::char_traits<char> >::rdbuf
_TEXT	ENDS
; Function compile flags: /Odtp
; File c:\program files (x86)\microsoft visual studio\2017\community\vc\tools\msvc\14.16.27023\include\ios
;	COMDAT ?tie@?$basic_ios@DU?$char_traits@D@std@@@std@@QBEPAV?$basic_ostream@DU?$char_traits@D@std@@@2@XZ
_TEXT	SEGMENT
_this$ = -4						; size = 4
?tie@?$basic_ios@DU?$char_traits@D@std@@@std@@QBEPAV?$basic_ostream@DU?$char_traits@D@std@@@2@XZ PROC ; std::basic_ios<char,std::char_traits<char> >::tie, COMDAT
; _this$ = ecx

; 74   : 		{	// return tie pointer

  00000	55		 push	 ebp
  00001	8b ec		 mov	 ebp, esp
  00003	51		 push	 ecx
  00004	89 4d fc	 mov	 DWORD PTR _this$[ebp], ecx

; 75   : 		return (_Tiestr);

  00007	8b 45 fc	 mov	 eax, DWORD PTR _this$[ebp]
  0000a	8b 40 3c	 mov	 eax, DWORD PTR [eax+60]

; 76   : 		}

  0000d	8b e5		 mov	 esp, ebp
  0000f	5d		 pop	 ebp
  00010	c3		 ret	 0
?tie@?$basic_ios@DU?$char_traits@D@std@@@std@@QBEPAV?$basic_ostream@DU?$char_traits@D@std@@@2@XZ ENDP ; std::basic_ios<char,std::char_traits<char> >::tie
_TEXT	ENDS
; Function compile flags: /Odtp
; File c:\program files (x86)\microsoft visual studio\2017\community\vc\tools\msvc\14.16.27023\include\ios
;	COMDAT ?setstate@?$basic_ios@DU?$char_traits@D@std@@@std@@QAEXH_N@Z
_TEXT	SEGMENT
_this$ = -4						; size = 4
__State$ = 8						; size = 4
__Reraise$ = 12						; size = 1
?setstate@?$basic_ios@DU?$char_traits@D@std@@@std@@QAEXH_N@Z PROC ; std::basic_ios<char,std::char_traits<char> >::setstate, COMDAT
; _this$ = ecx

; 54   : 		{	// merge _State into state, possibly reraise exception

  00000	55		 push	 ebp
  00001	8b ec		 mov	 ebp, esp
  00003	51		 push	 ecx
  00004	89 4d fc	 mov	 DWORD PTR _this$[ebp], ecx

; 55   : 		clear(rdstate() | _State, _Reraise);

  00007	0f b6 45 0c	 movzx	 eax, BYTE PTR __Reraise$[ebp]
  0000b	50		 push	 eax
  0000c	8b 4d fc	 mov	 ecx, DWORD PTR _this$[ebp]
  0000f	e8 00 00 00 00	 call	 ?rdstate@ios_base@std@@QBEHXZ ; std::ios_base::rdstate
  00014	0b 45 08	 or	 eax, DWORD PTR __State$[ebp]
  00017	50		 push	 eax
  00018	8b 4d fc	 mov	 ecx, DWORD PTR _this$[ebp]
  0001b	e8 00 00 00 00	 call	 ?clear@?$basic_ios@DU?$char_traits@D@std@@@std@@QAEXH_N@Z ; std::basic_ios<char,std::char_traits<char> >::clear

; 56   : 		}

  00020	8b e5		 mov	 esp, ebp
  00022	5d		 pop	 ebp
  00023	c2 08 00	 ret	 8
?setstate@?$basic_ios@DU?$char_traits@D@std@@@std@@QAEXH_N@Z ENDP ; std::basic_ios<char,std::char_traits<char> >::setstate
_TEXT	ENDS
; Function compile flags: /Odtp
; File c:\program files (x86)\microsoft visual studio\2017\community\vc\tools\msvc\14.16.27023\include\ios
;	COMDAT ?clear@?$basic_ios@DU?$char_traits@D@std@@@std@@QAEXH_N@Z
_TEXT	SEGMENT
_this$ = -8						; size = 4
tv73 = -4						; size = 4
__State$ = 8						; size = 4
__Reraise$ = 12						; size = 1
?clear@?$basic_ios@DU?$char_traits@D@std@@@std@@QAEXH_N@Z PROC ; std::basic_ios<char,std::char_traits<char> >::clear, COMDAT
; _this$ = ecx

; 42   : 		{	// set state, possibly reraise exception

  00000	55		 push	 ebp
  00001	8b ec		 mov	 ebp, esp
  00003	83 ec 08	 sub	 esp, 8
  00006	89 4d f8	 mov	 DWORD PTR _this$[ebp], ecx

; 43   : 		ios_base::clear(_Mystrbuf == nullptr ? (_State | ios_base::badbit) : _State, _Reraise);

  00009	8b 45 f8	 mov	 eax, DWORD PTR _this$[ebp]
  0000c	83 78 38 00	 cmp	 DWORD PTR [eax+56], 0
  00010	75 0b		 jne	 SHORT $LN3@clear
  00012	8b 4d 08	 mov	 ecx, DWORD PTR __State$[ebp]
  00015	83 c9 04	 or	 ecx, 4
  00018	89 4d fc	 mov	 DWORD PTR tv73[ebp], ecx
  0001b	eb 06		 jmp	 SHORT $LN4@clear
$LN3@clear:
  0001d	8b 55 08	 mov	 edx, DWORD PTR __State$[ebp]
  00020	89 55 fc	 mov	 DWORD PTR tv73[ebp], edx
$LN4@clear:
  00023	0f b6 45 0c	 movzx	 eax, BYTE PTR __Reraise$[ebp]
  00027	50		 push	 eax
  00028	8b 4d fc	 mov	 ecx, DWORD PTR tv73[ebp]
  0002b	51		 push	 ecx
  0002c	8b 4d f8	 mov	 ecx, DWORD PTR _this$[ebp]
  0002f	e8 00 00 00 00	 call	 ?clear@ios_base@std@@QAEXH_N@Z ; std::ios_base::clear

; 44   : 		}

  00034	8b e5		 mov	 esp, ebp
  00036	5d		 pop	 ebp
  00037	c2 08 00	 ret	 8
?clear@?$basic_ios@DU?$char_traits@D@std@@@std@@QAEXH_N@Z ENDP ; std::basic_ios<char,std::char_traits<char> >::clear
_TEXT	ENDS
; Function compile flags: /Odtp
; File c:\dev\tetris\src\main.cpp
_TEXT	SEGMENT
_argc$ = 8						; size = 4
_argv$ = 12						; size = 4
_wmain	PROC

; 5    : {

  00000	55		 push	 ebp
  00001	8b ec		 mov	 ebp, esp

; 6    :     if (Game::Instance()->Init("Tetris", 300, 720, "novem.ttf", 24))

  00003	6a 18		 push	 24			; 00000018H
  00005	68 00 00 00 00	 push	 OFFSET $SG51633
  0000a	68 d0 02 00 00	 push	 720			; 000002d0H
  0000f	68 2c 01 00 00	 push	 300			; 0000012cH
  00014	68 00 00 00 00	 push	 OFFSET $SG51634
  00019	e8 00 00 00 00	 call	 ?Instance@Game@@SAPAV1@XZ ; Game::Instance
  0001e	8b c8		 mov	 ecx, eax
  00020	e8 00 00 00 00	 call	 ?Init@Game@@QAE_NPBDHH0H@Z ; Game::Init
  00025	0f b6 c0	 movzx	 eax, al
  00028	85 c0		 test	 eax, eax
  0002a	74 2c		 je	 SHORT $LN2@wmain

; 7    :     {
; 8    :         std::cout << "Game has been initialized successfully\n";

  0002c	68 00 00 00 00	 push	 OFFSET $SG51635
  00031	68 00 00 00 00	 push	 OFFSET ?cout@std@@3V?$basic_ostream@DU?$char_traits@D@std@@@1@A ; std::cout
  00036	e8 00 00 00 00	 call	 ??$?6U?$char_traits@D@std@@@std@@YAAAV?$basic_ostream@DU?$char_traits@D@std@@@0@AAV10@PBD@Z ; std::operator<<<std::char_traits<char> >
  0003b	83 c4 08	 add	 esp, 8

; 9    :         
; 10   :         Game::Instance()->MainLoop();

  0003e	e8 00 00 00 00	 call	 ?Instance@Game@@SAPAV1@XZ ; Game::Instance
  00043	8b c8		 mov	 ecx, eax
  00045	e8 00 00 00 00	 call	 ?MainLoop@Game@@QAEXXZ	; Game::MainLoop

; 11   :         Game::Instance()->Clean();

  0004a	e8 00 00 00 00	 call	 ?Instance@Game@@SAPAV1@XZ ; Game::Instance
  0004f	8b c8		 mov	 ecx, eax
  00051	e8 00 00 00 00	 call	 ?Clean@Game@@QAEXXZ	; Game::Clean

; 12   :     }
; 13   :     else

  00056	eb 19		 jmp	 SHORT $LN3@wmain
$LN2@wmain:

; 14   :     {
; 15   :         std::cerr << "Game failed to intialize. Closing...\n";

  00058	68 00 00 00 00	 push	 OFFSET $SG51636
  0005d	68 00 00 00 00	 push	 OFFSET ?cerr@std@@3V?$basic_ostream@DU?$char_traits@D@std@@@1@A ; std::cerr
  00062	e8 00 00 00 00	 call	 ??$?6U?$char_traits@D@std@@@std@@YAAAV?$basic_ostream@DU?$char_traits@D@std@@@0@AAV10@PBD@Z ; std::operator<<<std::char_traits<char> >
  00067	83 c4 08	 add	 esp, 8

; 16   :         return 1;

  0006a	b8 01 00 00 00	 mov	 eax, 1
  0006f	eb 02		 jmp	 SHORT $LN1@wmain
$LN3@wmain:

; 17   :     }
; 18   :     
; 19   :     return 0;

  00071	33 c0		 xor	 eax, eax
$LN1@wmain:

; 20   : }

  00073	5d		 pop	 ebp
  00074	c3		 ret	 0
_wmain	ENDP
_TEXT	ENDS
; Function compile flags: /Odtp
; File c:\program files (x86)\microsoft visual studio\2017\community\vc\tools\msvc\14.16.27023\include\xiosbase
;	COMDAT ?width@ios_base@std@@QAE_J_J@Z
_TEXT	SEGMENT
__Oldwidth$ = -12					; size = 8
_this$ = -4						; size = 4
__Newwidth$ = 8						; size = 8
?width@ios_base@std@@QAE_J_J@Z PROC			; std::ios_base::width, COMDAT
; _this$ = ecx

; 437  : 		{	// set width to argument

  00000	55		 push	 ebp
  00001	8b ec		 mov	 ebp, esp
  00003	83 ec 0c	 sub	 esp, 12			; 0000000cH
  00006	89 4d fc	 mov	 DWORD PTR _this$[ebp], ecx

; 438  : 		const streamsize _Oldwidth = _Wide;

  00009	8b 45 fc	 mov	 eax, DWORD PTR _this$[ebp]
  0000c	8b 48 20	 mov	 ecx, DWORD PTR [eax+32]
  0000f	89 4d f4	 mov	 DWORD PTR __Oldwidth$[ebp], ecx
  00012	8b 50 24	 mov	 edx, DWORD PTR [eax+36]
  00015	89 55 f8	 mov	 DWORD PTR __Oldwidth$[ebp+4], edx

; 439  : 		_Wide = _Newwidth;

  00018	8b 45 fc	 mov	 eax, DWORD PTR _this$[ebp]
  0001b	8b 4d 08	 mov	 ecx, DWORD PTR __Newwidth$[ebp]
  0001e	89 48 20	 mov	 DWORD PTR [eax+32], ecx
  00021	8b 55 0c	 mov	 edx, DWORD PTR __Newwidth$[ebp+4]
  00024	89 50 24	 mov	 DWORD PTR [eax+36], edx

; 440  : 		return (_Oldwidth);

  00027	8b 45 f4	 mov	 eax, DWORD PTR __Oldwidth$[ebp]
  0002a	8b 55 f8	 mov	 edx, DWORD PTR __Oldwidth$[ebp+4]

; 441  : 		}

  0002d	8b e5		 mov	 esp, ebp
  0002f	5d		 pop	 ebp
  00030	c2 08 00	 ret	 8
?width@ios_base@std@@QAE_J_J@Z ENDP			; std::ios_base::width
_TEXT	ENDS
; Function compile flags: /Odtp
; File c:\program files (x86)\microsoft visual studio\2017\community\vc\tools\msvc\14.16.27023\include\xiosbase
;	COMDAT ?width@ios_base@std@@QBE_JXZ
_TEXT	SEGMENT
_this$ = -4						; size = 4
?width@ios_base@std@@QBE_JXZ PROC			; std::ios_base::width, COMDAT
; _this$ = ecx

; 432  : 		{	// return width

  00000	55		 push	 ebp
  00001	8b ec		 mov	 ebp, esp
  00003	51		 push	 ecx
  00004	89 4d fc	 mov	 DWORD PTR _this$[ebp], ecx

; 433  : 		return (_Wide);

  00007	8b 4d fc	 mov	 ecx, DWORD PTR _this$[ebp]
  0000a	8b 41 20	 mov	 eax, DWORD PTR [ecx+32]
  0000d	8b 51 24	 mov	 edx, DWORD PTR [ecx+36]

; 434  : 		}

  00010	8b e5		 mov	 esp, ebp
  00012	5d		 pop	 ebp
  00013	c3		 ret	 0
?width@ios_base@std@@QBE_JXZ ENDP			; std::ios_base::width
_TEXT	ENDS
; Function compile flags: /Odtp
; File c:\program files (x86)\microsoft visual studio\2017\community\vc\tools\msvc\14.16.27023\include\xiosbase
;	COMDAT ?flags@ios_base@std@@QBEHXZ
_TEXT	SEGMENT
_this$ = -4						; size = 4
?flags@ios_base@std@@QBEHXZ PROC			; std::ios_base::flags, COMDAT
; _this$ = ecx

; 389  : 		{	// return format flags

  00000	55		 push	 ebp
  00001	8b ec		 mov	 ebp, esp
  00003	51		 push	 ecx
  00004	89 4d fc	 mov	 DWORD PTR _this$[ebp], ecx

; 390  : 		return (_Fmtfl);

  00007	8b 45 fc	 mov	 eax, DWORD PTR _this$[ebp]
  0000a	8b 40 14	 mov	 eax, DWORD PTR [eax+20]

; 391  : 		}

  0000d	8b e5		 mov	 esp, ebp
  0000f	5d		 pop	 ebp
  00010	c3		 ret	 0
?flags@ios_base@std@@QBEHXZ ENDP			; std::ios_base::flags
_TEXT	ENDS
; Function compile flags: /Odtp
; File c:\program files (x86)\microsoft visual studio\2017\community\vc\tools\msvc\14.16.27023\include\xiosbase
;	COMDAT ?good@ios_base@std@@QBE_NXZ
_TEXT	SEGMENT
_this$ = -8						; size = 4
tv67 = -4						; size = 4
?good@ios_base@std@@QBE_NXZ PROC			; std::ios_base::good, COMDAT
; _this$ = ecx

; 351  : 		{	// test if no state bits are set

  00000	55		 push	 ebp
  00001	8b ec		 mov	 ebp, esp
  00003	83 ec 08	 sub	 esp, 8
  00006	89 4d f8	 mov	 DWORD PTR _this$[ebp], ecx

; 352  : 		return (rdstate() == ios_base::goodbit);

  00009	8b 4d f8	 mov	 ecx, DWORD PTR _this$[ebp]
  0000c	e8 00 00 00 00	 call	 ?rdstate@ios_base@std@@QBEHXZ ; std::ios_base::rdstate
  00011	85 c0		 test	 eax, eax
  00013	75 09		 jne	 SHORT $LN3@good
  00015	c7 45 fc 01 00
	00 00		 mov	 DWORD PTR tv67[ebp], 1
  0001c	eb 07		 jmp	 SHORT $LN4@good
$LN3@good:
  0001e	c7 45 fc 00 00
	00 00		 mov	 DWORD PTR tv67[ebp], 0
$LN4@good:
  00025	8a 45 fc	 mov	 al, BYTE PTR tv67[ebp]

; 353  : 		}

  00028	8b e5		 mov	 esp, ebp
  0002a	5d		 pop	 ebp
  0002b	c3		 ret	 0
?good@ios_base@std@@QBE_NXZ ENDP			; std::ios_base::good
_TEXT	ENDS
; Function compile flags: /Odtp
; File c:\program files (x86)\microsoft visual studio\2017\community\vc\tools\msvc\14.16.27023\include\xiosbase
;	COMDAT ?rdstate@ios_base@std@@QBEHXZ
_TEXT	SEGMENT
_this$ = -4						; size = 4
?rdstate@ios_base@std@@QBEHXZ PROC			; std::ios_base::rdstate, COMDAT
; _this$ = ecx

; 329  : 		{	// return stream state

  00000	55		 push	 ebp
  00001	8b ec		 mov	 ebp, esp
  00003	51		 push	 ecx
  00004	89 4d fc	 mov	 DWORD PTR _this$[ebp], ecx

; 330  : 		return (_Mystate);

  00007	8b 45 fc	 mov	 eax, DWORD PTR _this$[ebp]
  0000a	8b 40 0c	 mov	 eax, DWORD PTR [eax+12]

; 331  : 		}

  0000d	8b e5		 mov	 esp, ebp
  0000f	5d		 pop	 ebp
  00010	c3		 ret	 0
?rdstate@ios_base@std@@QBEHXZ ENDP			; std::ios_base::rdstate
_TEXT	ENDS
; Function compile flags: /Odtp
; File c:\program files (x86)\microsoft visual studio\2017\community\vc\tools\msvc\14.16.27023\include\xiosbase
;	COMDAT ?clear@ios_base@std@@QAEXH_N@Z
_TEXT	SEGMENT
$T1 = -40						; size = 20
$T2 = -20						; size = 8
_this$ = -12						; size = 4
__Msg$3 = -8						; size = 4
__Filtered$ = -4					; size = 4
__State$ = 8						; size = 4
__Reraise$ = 12						; size = 1
?clear@ios_base@std@@QAEXH_N@Z PROC			; std::ios_base::clear, COMDAT
; _this$ = ecx

; 287  : 		{	// set state, possibly reraise exception

  00000	55		 push	 ebp
  00001	8b ec		 mov	 ebp, esp
  00003	83 ec 28	 sub	 esp, 40			; 00000028H
  00006	89 4d f4	 mov	 DWORD PTR _this$[ebp], ecx

; 288  : 		_State &= _Statmask;

  00009	8b 45 08	 mov	 eax, DWORD PTR __State$[ebp]
  0000c	83 e0 17	 and	 eax, 23			; 00000017H
  0000f	89 45 08	 mov	 DWORD PTR __State$[ebp], eax

; 289  : 		_Mystate = _State;

  00012	8b 4d f4	 mov	 ecx, DWORD PTR _this$[ebp]
  00015	8b 55 08	 mov	 edx, DWORD PTR __State$[ebp]
  00018	89 51 0c	 mov	 DWORD PTR [ecx+12], edx

; 290  : 		const auto _Filtered = _State & _Except;

  0001b	8b 45 f4	 mov	 eax, DWORD PTR _this$[ebp]
  0001e	8b 4d 08	 mov	 ecx, DWORD PTR __State$[ebp]
  00021	23 48 10	 and	 ecx, DWORD PTR [eax+16]
  00024	89 4d fc	 mov	 DWORD PTR __Filtered$[ebp], ecx

; 291  : 		if (_Filtered)

  00027	74 63		 je	 SHORT $LN8@clear

; 292  : 			{
; 293  : 			if (_Reraise)

  00029	0f b6 55 0c	 movzx	 edx, BYTE PTR __Reraise$[ebp]
  0002d	85 d2		 test	 edx, edx
  0002f	74 09		 je	 SHORT $LN3@clear

; 294  : 				{
; 295  : 				_RERAISE;

  00031	6a 00		 push	 0
  00033	6a 00		 push	 0
  00035	e8 00 00 00 00	 call	 __CxxThrowException@8
$LN3@clear:

; 296  : 				}
; 297  : 
; 298  : 			const char * _Msg;
; 299  : 			if (_Filtered & ios_base::badbit)

  0003a	8b 45 fc	 mov	 eax, DWORD PTR __Filtered$[ebp]
  0003d	83 e0 04	 and	 eax, 4
  00040	74 09		 je	 SHORT $LN4@clear

; 300  : 				{
; 301  : 				_Msg = "ios_base::badbit set";

  00042	c7 45 f8 00 00
	00 00		 mov	 DWORD PTR __Msg$3[ebp], OFFSET ??_C@_0BF@PHHKMMFD@ios_base?3?3badbit?5set@
  00049	eb 18		 jmp	 SHORT $LN5@clear
$LN4@clear:

; 302  : 				}
; 303  : 			else if (_Filtered & ios_base::failbit)

  0004b	8b 4d fc	 mov	 ecx, DWORD PTR __Filtered$[ebp]
  0004e	83 e1 02	 and	 ecx, 2
  00051	74 09		 je	 SHORT $LN6@clear

; 304  : 				{
; 305  : 				_Msg = "ios_base::failbit set";

  00053	c7 45 f8 00 00
	00 00		 mov	 DWORD PTR __Msg$3[ebp], OFFSET ??_C@_0BG@FMKFHCIL@ios_base?3?3failbit?5set@

; 306  : 				}
; 307  : 			else

  0005a	eb 07		 jmp	 SHORT $LN5@clear
$LN6@clear:

; 308  : 				{
; 309  : 				_Msg = "ios_base::eofbit set";

  0005c	c7 45 f8 00 00
	00 00		 mov	 DWORD PTR __Msg$3[ebp], OFFSET ??_C@_0BF@OOHOMBOF@ios_base?3?3eofbit?5set@
$LN5@clear:

; 310  : 				}
; 311  : 
; 312  : 			_THROW(failure(_Msg));

  00063	6a 01		 push	 1
  00065	8d 55 ec	 lea	 edx, DWORD PTR $T2[ebp]
  00068	52		 push	 edx
  00069	e8 00 00 00 00	 call	 ?make_error_code@std@@YA?AVerror_code@1@W4io_errc@1@@Z ; std::make_error_code
  0006e	83 c4 08	 add	 esp, 8
  00071	50		 push	 eax
  00072	8b 45 f8	 mov	 eax, DWORD PTR __Msg$3[ebp]
  00075	50		 push	 eax
  00076	8d 4d d8	 lea	 ecx, DWORD PTR $T1[ebp]
  00079	e8 00 00 00 00	 call	 ??0failure@ios_base@std@@QAE@PBDABVerror_code@2@@Z ; std::ios_base::failure::failure
  0007e	68 00 00 00 00	 push	 OFFSET __TI5?AVfailure@ios_base@std@@
  00083	8d 4d d8	 lea	 ecx, DWORD PTR $T1[ebp]
  00086	51		 push	 ecx
  00087	e8 00 00 00 00	 call	 __CxxThrowException@8
$LN8@clear:

; 313  : 			}
; 314  : 		}

  0008c	8b e5		 mov	 esp, ebp
  0008e	5d		 pop	 ebp
  0008f	c2 08 00	 ret	 8
?clear@ios_base@std@@QAEXH_N@Z ENDP			; std::ios_base::clear
_TEXT	ENDS
; Function compile flags: /Odtp
;	COMDAT ??_Gfailure@ios_base@std@@UAEPAXI@Z
_TEXT	SEGMENT
_this$ = -4						; size = 4
___flags$ = 8						; size = 4
??_Gfailure@ios_base@std@@UAEPAXI@Z PROC		; std::ios_base::failure::`scalar deleting destructor', COMDAT
; _this$ = ecx
  00000	55		 push	 ebp
  00001	8b ec		 mov	 ebp, esp
  00003	51		 push	 ecx
  00004	89 4d fc	 mov	 DWORD PTR _this$[ebp], ecx
  00007	8b 4d fc	 mov	 ecx, DWORD PTR _this$[ebp]
  0000a	e8 00 00 00 00	 call	 ??1failure@ios_base@std@@UAE@XZ
  0000f	8b 45 08	 mov	 eax, DWORD PTR ___flags$[ebp]
  00012	83 e0 01	 and	 eax, 1
  00015	74 0e		 je	 SHORT $LN2@scalar
  00017	6a 14		 push	 20			; 00000014H
  00019	8b 4d fc	 mov	 ecx, DWORD PTR _this$[ebp]
  0001c	51		 push	 ecx
  0001d	e8 00 00 00 00	 call	 ??3@YAXPAXI@Z		; operator delete
  00022	83 c4 08	 add	 esp, 8
$LN2@scalar:
  00025	8b 45 fc	 mov	 eax, DWORD PTR _this$[ebp]
  00028	8b e5		 mov	 esp, ebp
  0002a	5d		 pop	 ebp
  0002b	c2 04 00	 ret	 4
??_Gfailure@ios_base@std@@UAEPAXI@Z ENDP		; std::ios_base::failure::`scalar deleting destructor'
_TEXT	ENDS
; Function compile flags: /Odtp
;	COMDAT ??0failure@ios_base@std@@QAE@ABV012@@Z
_TEXT	SEGMENT
_this$ = -4						; size = 4
___that$ = 8						; size = 4
??0failure@ios_base@std@@QAE@ABV012@@Z PROC		; std::ios_base::failure::failure, COMDAT
; _this$ = ecx
  00000	55		 push	 ebp
  00001	8b ec		 mov	 ebp, esp
  00003	51		 push	 ecx
  00004	89 4d fc	 mov	 DWORD PTR _this$[ebp], ecx
  00007	8b 45 08	 mov	 eax, DWORD PTR ___that$[ebp]
  0000a	50		 push	 eax
  0000b	8b 4d fc	 mov	 ecx, DWORD PTR _this$[ebp]
  0000e	e8 00 00 00 00	 call	 ??0system_error@std@@QAE@ABV01@@Z
  00013	8b 4d fc	 mov	 ecx, DWORD PTR _this$[ebp]
  00016	c7 01 00 00 00
	00		 mov	 DWORD PTR [ecx], OFFSET ??_7failure@ios_base@std@@6B@
  0001c	8b 45 fc	 mov	 eax, DWORD PTR _this$[ebp]
  0001f	8b e5		 mov	 esp, ebp
  00021	5d		 pop	 ebp
  00022	c2 04 00	 ret	 4
??0failure@ios_base@std@@QAE@ABV012@@Z ENDP		; std::ios_base::failure::failure
_TEXT	ENDS
; Function compile flags: /Odtp
;	COMDAT ??1failure@ios_base@std@@UAE@XZ
_TEXT	SEGMENT
_this$ = -4						; size = 4
??1failure@ios_base@std@@UAE@XZ PROC			; std::ios_base::failure::~failure, COMDAT
; _this$ = ecx
  00000	55		 push	 ebp
  00001	8b ec		 mov	 ebp, esp
  00003	51		 push	 ecx
  00004	89 4d fc	 mov	 DWORD PTR _this$[ebp], ecx
  00007	8b 4d fc	 mov	 ecx, DWORD PTR _this$[ebp]
  0000a	e8 00 00 00 00	 call	 ??1system_error@std@@UAE@XZ
  0000f	8b e5		 mov	 esp, ebp
  00011	5d		 pop	 ebp
  00012	c3		 ret	 0
??1failure@ios_base@std@@UAE@XZ ENDP			; std::ios_base::failure::~failure
_TEXT	ENDS
; Function compile flags: /Odtp
; File c:\program files (x86)\microsoft visual studio\2017\community\vc\tools\msvc\14.16.27023\include\xiosbase
;	COMDAT ??0failure@ios_base@std@@QAE@PBDABVerror_code@2@@Z
_TEXT	SEGMENT
_this$ = -4						; size = 4
__Message$ = 8						; size = 4
__Errcode$ = 12						; size = 4
??0failure@ios_base@std@@QAE@PBDABVerror_code@2@@Z PROC	; std::ios_base::failure::failure, COMDAT
; _this$ = ecx

; 238  : 			{	// construct with message

  00000	55		 push	 ebp
  00001	8b ec		 mov	 ebp, esp
  00003	51		 push	 ecx
  00004	89 4d fc	 mov	 DWORD PTR _this$[ebp], ecx

; 237  : 			: system_error(_Errcode, _Message)

  00007	8b 45 08	 mov	 eax, DWORD PTR __Message$[ebp]
  0000a	50		 push	 eax
  0000b	8b 4d 0c	 mov	 ecx, DWORD PTR __Errcode$[ebp]
  0000e	8b 51 04	 mov	 edx, DWORD PTR [ecx+4]
  00011	52		 push	 edx
  00012	8b 01		 mov	 eax, DWORD PTR [ecx]
  00014	50		 push	 eax
  00015	8b 4d fc	 mov	 ecx, DWORD PTR _this$[ebp]
  00018	e8 00 00 00 00	 call	 ??0system_error@std@@QAE@Verror_code@1@PBD@Z ; std::system_error::system_error

; 238  : 			{	// construct with message

  0001d	8b 4d fc	 mov	 ecx, DWORD PTR _this$[ebp]
  00020	c7 01 00 00 00
	00		 mov	 DWORD PTR [ecx], OFFSET ??_7failure@ios_base@std@@6B@

; 239  : 			}

  00026	8b 45 fc	 mov	 eax, DWORD PTR _this$[ebp]
  00029	8b e5		 mov	 esp, ebp
  0002b	5d		 pop	 ebp
  0002c	c2 08 00	 ret	 8
??0failure@ios_base@std@@QAE@PBDABVerror_code@2@@Z ENDP	; std::ios_base::failure::failure
_TEXT	ENDS
; Function compile flags: /Odtp
; File c:\program files (x86)\microsoft visual studio\2017\community\vc\tools\msvc\14.16.27023\include\system_error
;	COMDAT ??$_Immortalize@V_Iostream_error_category@std@@@std@@YAAAV_Iostream_error_category@0@XZ
_TEXT	SEGMENT
??$_Immortalize@V_Iostream_error_category@std@@@std@@YAAAV_Iostream_error_category@0@XZ PROC ; std::_Immortalize<std::_Iostream_error_category>, COMDAT

; 607  : 	{	// return a reference to an object that will live forever

  00000	55		 push	 ebp
  00001	8b ec		 mov	 ebp, esp

; 608  : 	static_assert(sizeof(void *) == sizeof(once_flag), "TRANSITION, VSO#406237");
; 609  : 	static_assert(alignof(void *) == alignof(once_flag), "TRANSITION, VSO#406237");
; 610  : 	static void * _Flag = nullptr;
; 611  : 	static aligned_union_t<1, _Ty> _Storage;
; 612  : 	if (_Execute_once(reinterpret_cast<once_flag&>(_Flag), _Immortalize_impl<_Ty>, &_Storage) == 0)

  00003	68 00 00 00 00	 push	 OFFSET ?_Storage@?1???$_Immortalize@V_Iostream_error_category@std@@@std@@YAAAV_Iostream_error_category@1@XZ@4T?$_Align_type@H$07@1@A ; `std::_Immortalize<std::_Iostream_error_category>'::`2'::_Storage
  00008	68 00 00 00 00	 push	 OFFSET ??$_Immortalize_impl@V_Iostream_error_category@std@@@std@@YGHPAX0PAPAX@Z ; std::_Immortalize_impl<std::_Iostream_error_category>
  0000d	68 00 00 00 00	 push	 OFFSET ?_Flag@?1???$_Immortalize@V_Iostream_error_category@std@@@std@@YAAAV_Iostream_error_category@1@XZ@4PAXA ; `std::_Immortalize<std::_Iostream_error_category>'::`2'::_Flag
  00012	e8 00 00 00 00	 call	 ?_Execute_once@std@@YAHAAUonce_flag@1@P6GHPAX1PAPAX@Z1@Z ; std::_Execute_once
  00017	83 c4 0c	 add	 esp, 12			; 0000000cH
  0001a	85 c0		 test	 eax, eax
  0001c	75 05		 jne	 SHORT $LN2@Immortaliz

; 613  : 		{	// _Execute_once should never fail if the callback never fails
; 614  : 		_STD terminate();

  0001e	e8 00 00 00 00	 call	 _terminate
$LN2@Immortaliz:

; 615  : 		}
; 616  : 
; 617  : 	return (reinterpret_cast<_Ty&>(_Storage));

  00023	b8 00 00 00 00	 mov	 eax, OFFSET ?_Storage@?1???$_Immortalize@V_Iostream_error_category@std@@@std@@YAAAV_Iostream_error_category@1@XZ@4T?$_Align_type@H$07@1@A ; `std::_Immortalize<std::_Iostream_error_category>'::`2'::_Storage
$LN3@Immortaliz:

; 618  : 	}

  00028	5d		 pop	 ebp
  00029	c3		 ret	 0
??$_Immortalize@V_Iostream_error_category@std@@@std@@YAAAV_Iostream_error_category@0@XZ ENDP ; std::_Immortalize<std::_Iostream_error_category>
_TEXT	ENDS
; Function compile flags: /Odtp
;	COMDAT ??_G_Iostream_error_category@std@@UAEPAXI@Z
_TEXT	SEGMENT
_this$ = -4						; size = 4
___flags$ = 8						; size = 4
??_G_Iostream_error_category@std@@UAEPAXI@Z PROC	; std::_Iostream_error_category::`scalar deleting destructor', COMDAT
; _this$ = ecx
  00000	55		 push	 ebp
  00001	8b ec		 mov	 ebp, esp
  00003	51		 push	 ecx
  00004	89 4d fc	 mov	 DWORD PTR _this$[ebp], ecx
  00007	8b 4d fc	 mov	 ecx, DWORD PTR _this$[ebp]
  0000a	e8 00 00 00 00	 call	 ??1_Iostream_error_category@std@@UAE@XZ
  0000f	8b 45 08	 mov	 eax, DWORD PTR ___flags$[ebp]
  00012	83 e0 01	 and	 eax, 1
  00015	74 0e		 je	 SHORT $LN2@scalar
  00017	6a 08		 push	 8
  00019	8b 4d fc	 mov	 ecx, DWORD PTR _this$[ebp]
  0001c	51		 push	 ecx
  0001d	e8 00 00 00 00	 call	 ??3@YAXPAXI@Z		; operator delete
  00022	83 c4 08	 add	 esp, 8
$LN2@scalar:
  00025	8b 45 fc	 mov	 eax, DWORD PTR _this$[ebp]
  00028	8b e5		 mov	 esp, ebp
  0002a	5d		 pop	 ebp
  0002b	c2 04 00	 ret	 4
??_G_Iostream_error_category@std@@UAEPAXI@Z ENDP	; std::_Iostream_error_category::`scalar deleting destructor'
_TEXT	ENDS
; Function compile flags: /Odtp
;	COMDAT ??1_Iostream_error_category@std@@UAE@XZ
_TEXT	SEGMENT
_this$ = -4						; size = 4
??1_Iostream_error_category@std@@UAE@XZ PROC		; std::_Iostream_error_category::~_Iostream_error_category, COMDAT
; _this$ = ecx
  00000	55		 push	 ebp
  00001	8b ec		 mov	 ebp, esp
  00003	51		 push	 ecx
  00004	89 4d fc	 mov	 DWORD PTR _this$[ebp], ecx
  00007	8b 4d fc	 mov	 ecx, DWORD PTR _this$[ebp]
  0000a	e8 00 00 00 00	 call	 ??1_Generic_error_category@std@@UAE@XZ
  0000f	8b e5		 mov	 esp, ebp
  00011	5d		 pop	 ebp
  00012	c3		 ret	 0
??1_Iostream_error_category@std@@UAE@XZ ENDP		; std::_Iostream_error_category::~_Iostream_error_category
_TEXT	ENDS
; Function compile flags: /Odtp
; File c:\program files (x86)\microsoft visual studio\2017\community\vc\tools\msvc\14.16.27023\include\system_error
;	COMDAT ?message@_Iostream_error_category@std@@UBE?AV?$basic_string@DU?$char_traits@D@std@@V?$allocator@D@2@@2@H@Z
_TEXT	SEGMENT
_this$ = -8						; size = 4
$T1 = -4						; size = 4
___$ReturnUdt$ = 8					; size = 4
__Errcode$ = 12						; size = 4
?message@_Iostream_error_category@std@@UBE?AV?$basic_string@DU?$char_traits@D@std@@V?$allocator@D@2@@2@H@Z PROC ; std::_Iostream_error_category::message, COMDAT
; _this$ = ecx

; 516  : 		{	// convert to name of error

  00000	55		 push	 ebp
  00001	8b ec		 mov	 ebp, esp
  00003	83 ec 08	 sub	 esp, 8
  00006	89 4d f8	 mov	 DWORD PTR _this$[ebp], ecx
  00009	c7 45 fc 00 00
	00 00		 mov	 DWORD PTR $T1[ebp], 0

; 517  : 		if (_Errcode == (int)io_errc::stream)

  00010	83 7d 0c 01	 cmp	 DWORD PTR __Errcode$[ebp], 1
  00014	75 1d		 jne	 SHORT $LN2@message

; 518  : 			{
; 519  : 			return ("iostream stream error");

  00016	68 00 00 00 00	 push	 OFFSET ??_C@_0BG@PADBLCHM@iostream?5stream?5error@
  0001b	8b 4d 08	 mov	 ecx, DWORD PTR ___$ReturnUdt$[ebp]
  0001e	e8 00 00 00 00	 call	 ??0?$basic_string@DU?$char_traits@D@std@@V?$allocator@D@2@@std@@QAE@QBD@Z ; std::basic_string<char,std::char_traits<char>,std::allocator<char> >::basic_string<char,std::char_traits<char>,std::allocator<char> >
  00023	8b 45 fc	 mov	 eax, DWORD PTR $T1[ebp]
  00026	83 c8 01	 or	 eax, 1
  00029	89 45 fc	 mov	 DWORD PTR $T1[ebp], eax
  0002c	8b 45 08	 mov	 eax, DWORD PTR ___$ReturnUdt$[ebp]
  0002f	eb 1e		 jmp	 SHORT $LN1@message

; 520  : 			}
; 521  : 		else

  00031	eb 1c		 jmp	 SHORT $LN1@message
$LN2@message:

; 522  : 			{
; 523  : 			return (_Generic_error_category::message(_Errcode));

  00033	8b 4d 0c	 mov	 ecx, DWORD PTR __Errcode$[ebp]
  00036	51		 push	 ecx
  00037	8b 55 08	 mov	 edx, DWORD PTR ___$ReturnUdt$[ebp]
  0003a	52		 push	 edx
  0003b	8b 4d f8	 mov	 ecx, DWORD PTR _this$[ebp]
  0003e	e8 00 00 00 00	 call	 ?message@_Generic_error_category@std@@UBE?AV?$basic_string@DU?$char_traits@D@std@@V?$allocator@D@2@@2@H@Z ; std::_Generic_error_category::message
  00043	8b 45 fc	 mov	 eax, DWORD PTR $T1[ebp]
  00046	83 c8 01	 or	 eax, 1
  00049	89 45 fc	 mov	 DWORD PTR $T1[ebp], eax
  0004c	8b 45 08	 mov	 eax, DWORD PTR ___$ReturnUdt$[ebp]
$LN1@message:

; 524  : 			}
; 525  : 		}

  0004f	8b e5		 mov	 esp, ebp
  00051	5d		 pop	 ebp
  00052	c2 08 00	 ret	 8
?message@_Iostream_error_category@std@@UBE?AV?$basic_string@DU?$char_traits@D@std@@V?$allocator@D@2@@2@H@Z ENDP ; std::_Iostream_error_category::message
_TEXT	ENDS
; Function compile flags: /Odtp
; File c:\program files (x86)\microsoft visual studio\2017\community\vc\tools\msvc\14.16.27023\include\system_error
;	COMDAT ?name@_Iostream_error_category@std@@UBEPBDXZ
_TEXT	SEGMENT
_this$ = -4						; size = 4
?name@_Iostream_error_category@std@@UBEPBDXZ PROC	; std::_Iostream_error_category::name, COMDAT
; _this$ = ecx

; 511  : 		{	// get name of category

  00000	55		 push	 ebp
  00001	8b ec		 mov	 ebp, esp
  00003	51		 push	 ecx
  00004	89 4d fc	 mov	 DWORD PTR _this$[ebp], ecx

; 512  : 		return ("iostream");

  00007	b8 00 00 00 00	 mov	 eax, OFFSET ??_C@_08LLGCOLLL@iostream@

; 513  : 		}

  0000c	8b e5		 mov	 esp, ebp
  0000e	5d		 pop	 ebp
  0000f	c3		 ret	 0
?name@_Iostream_error_category@std@@UBEPBDXZ ENDP	; std::_Iostream_error_category::name
_TEXT	ENDS
; Function compile flags: /Odtp
; File c:\program files (x86)\microsoft visual studio\2017\community\vc\tools\msvc\14.16.27023\include\system_error
;	COMDAT ??0_Iostream_error_category@std@@QAE@XZ
_TEXT	SEGMENT
_this$ = -4						; size = 4
??0_Iostream_error_category@std@@QAE@XZ PROC		; std::_Iostream_error_category::_Iostream_error_category, COMDAT
; _this$ = ecx

; 505  : 	_Iostream_error_category() noexcept

  00000	55		 push	 ebp
  00001	8b ec		 mov	 ebp, esp
  00003	51		 push	 ecx
  00004	89 4d fc	 mov	 DWORD PTR _this$[ebp], ecx
  00007	8b 4d fc	 mov	 ecx, DWORD PTR _this$[ebp]
  0000a	e8 00 00 00 00	 call	 ??0_Generic_error_category@std@@QAE@XZ ; std::_Generic_error_category::_Generic_error_category
  0000f	8b 45 fc	 mov	 eax, DWORD PTR _this$[ebp]
  00012	c7 00 00 00 00
	00		 mov	 DWORD PTR [eax], OFFSET ??_7_Iostream_error_category@std@@6B@

; 506  : 		{	// default constructor
; 507  : 		_Addr = _Iostream_addr;

  00018	8b 4d fc	 mov	 ecx, DWORD PTR _this$[ebp]
  0001b	c7 41 04 05 00
	00 00		 mov	 DWORD PTR [ecx+4], 5

; 508  : 		}

  00022	8b 45 fc	 mov	 eax, DWORD PTR _this$[ebp]
  00025	8b e5		 mov	 esp, ebp
  00027	5d		 pop	 ebp
  00028	c3		 ret	 0
??0_Iostream_error_category@std@@QAE@XZ ENDP		; std::_Iostream_error_category::_Iostream_error_category
_TEXT	ENDS
; Function compile flags: /Odtp
;	COMDAT ??_G_Generic_error_category@std@@UAEPAXI@Z
_TEXT	SEGMENT
_this$ = -4						; size = 4
___flags$ = 8						; size = 4
??_G_Generic_error_category@std@@UAEPAXI@Z PROC		; std::_Generic_error_category::`scalar deleting destructor', COMDAT
; _this$ = ecx
  00000	55		 push	 ebp
  00001	8b ec		 mov	 ebp, esp
  00003	51		 push	 ecx
  00004	89 4d fc	 mov	 DWORD PTR _this$[ebp], ecx
  00007	8b 4d fc	 mov	 ecx, DWORD PTR _this$[ebp]
  0000a	e8 00 00 00 00	 call	 ??1_Generic_error_category@std@@UAE@XZ
  0000f	8b 45 08	 mov	 eax, DWORD PTR ___flags$[ebp]
  00012	83 e0 01	 and	 eax, 1
  00015	74 0e		 je	 SHORT $LN2@scalar
  00017	6a 08		 push	 8
  00019	8b 4d fc	 mov	 ecx, DWORD PTR _this$[ebp]
  0001c	51		 push	 ecx
  0001d	e8 00 00 00 00	 call	 ??3@YAXPAXI@Z		; operator delete
  00022	83 c4 08	 add	 esp, 8
$LN2@scalar:
  00025	8b 45 fc	 mov	 eax, DWORD PTR _this$[ebp]
  00028	8b e5		 mov	 esp, ebp
  0002a	5d		 pop	 ebp
  0002b	c2 04 00	 ret	 4
??_G_Generic_error_category@std@@UAEPAXI@Z ENDP		; std::_Generic_error_category::`scalar deleting destructor'
_TEXT	ENDS
; Function compile flags: /Odtp
;	COMDAT ??1_Generic_error_category@std@@UAE@XZ
_TEXT	SEGMENT
_this$ = -4						; size = 4
??1_Generic_error_category@std@@UAE@XZ PROC		; std::_Generic_error_category::~_Generic_error_category, COMDAT
; _this$ = ecx
  00000	55		 push	 ebp
  00001	8b ec		 mov	 ebp, esp
  00003	51		 push	 ecx
  00004	89 4d fc	 mov	 DWORD PTR _this$[ebp], ecx
  00007	8b 4d fc	 mov	 ecx, DWORD PTR _this$[ebp]
  0000a	e8 00 00 00 00	 call	 ??1error_category@std@@UAE@XZ ; std::error_category::~error_category
  0000f	8b e5		 mov	 esp, ebp
  00011	5d		 pop	 ebp
  00012	c3		 ret	 0
??1_Generic_error_category@std@@UAE@XZ ENDP		; std::_Generic_error_category::~_Generic_error_category
_TEXT	ENDS
; Function compile flags: /Odtp
; File c:\program files (x86)\microsoft visual studio\2017\community\vc\tools\msvc\14.16.27023\include\system_error
;	COMDAT ?message@_Generic_error_category@std@@UBE?AV?$basic_string@DU?$char_traits@D@std@@V?$allocator@D@2@@2@H@Z
_TEXT	SEGMENT
_this$ = -8						; size = 4
$T1 = -4						; size = 4
___$ReturnUdt$ = 8					; size = 4
__Errcode$ = 12						; size = 4
?message@_Generic_error_category@std@@UBE?AV?$basic_string@DU?$char_traits@D@std@@V?$allocator@D@2@@2@H@Z PROC ; std::_Generic_error_category::message, COMDAT
; _this$ = ecx

; 495  : 		{	// convert to name of error

  00000	55		 push	 ebp
  00001	8b ec		 mov	 ebp, esp
  00003	83 ec 08	 sub	 esp, 8
  00006	89 4d f8	 mov	 DWORD PTR _this$[ebp], ecx
  00009	c7 45 fc 00 00
	00 00		 mov	 DWORD PTR $T1[ebp], 0

; 496  : 		return (_Syserror_map(_Errcode));

  00010	8b 45 0c	 mov	 eax, DWORD PTR __Errcode$[ebp]
  00013	50		 push	 eax
  00014	e8 00 00 00 00	 call	 ?_Syserror_map@std@@YAPBDH@Z ; std::_Syserror_map
  00019	83 c4 04	 add	 esp, 4
  0001c	50		 push	 eax
  0001d	8b 4d 08	 mov	 ecx, DWORD PTR ___$ReturnUdt$[ebp]
  00020	e8 00 00 00 00	 call	 ??0?$basic_string@DU?$char_traits@D@std@@V?$allocator@D@2@@std@@QAE@QBD@Z ; std::basic_string<char,std::char_traits<char>,std::allocator<char> >::basic_string<char,std::char_traits<char>,std::allocator<char> >
  00025	8b 4d fc	 mov	 ecx, DWORD PTR $T1[ebp]
  00028	83 c9 01	 or	 ecx, 1
  0002b	89 4d fc	 mov	 DWORD PTR $T1[ebp], ecx
  0002e	8b 45 08	 mov	 eax, DWORD PTR ___$ReturnUdt$[ebp]

; 497  : 		}

  00031	8b e5		 mov	 esp, ebp
  00033	5d		 pop	 ebp
  00034	c2 08 00	 ret	 8
?message@_Generic_error_category@std@@UBE?AV?$basic_string@DU?$char_traits@D@std@@V?$allocator@D@2@@2@H@Z ENDP ; std::_Generic_error_category::message
_TEXT	ENDS
; Function compile flags: /Odtp
; File c:\program files (x86)\microsoft visual studio\2017\community\vc\tools\msvc\14.16.27023\include\system_error
;	COMDAT ?name@_Generic_error_category@std@@UBEPBDXZ
_TEXT	SEGMENT
_this$ = -4						; size = 4
?name@_Generic_error_category@std@@UBEPBDXZ PROC	; std::_Generic_error_category::name, COMDAT
; _this$ = ecx

; 490  : 		{	// get name of category

  00000	55		 push	 ebp
  00001	8b ec		 mov	 ebp, esp
  00003	51		 push	 ecx
  00004	89 4d fc	 mov	 DWORD PTR _this$[ebp], ecx

; 491  : 		return ("generic");

  00007	b8 00 00 00 00	 mov	 eax, OFFSET ??_C@_07DCLBNMLN@generic@

; 492  : 		}

  0000c	8b e5		 mov	 esp, ebp
  0000e	5d		 pop	 ebp
  0000f	c3		 ret	 0
?name@_Generic_error_category@std@@UBEPBDXZ ENDP	; std::_Generic_error_category::name
_TEXT	ENDS
; Function compile flags: /Odtp
; File c:\program files (x86)\microsoft visual studio\2017\community\vc\tools\msvc\14.16.27023\include\system_error
;	COMDAT ??0_Generic_error_category@std@@QAE@XZ
_TEXT	SEGMENT
_this$ = -4						; size = 4
??0_Generic_error_category@std@@QAE@XZ PROC		; std::_Generic_error_category::_Generic_error_category, COMDAT
; _this$ = ecx

; 484  : 	_Generic_error_category() noexcept

  00000	55		 push	 ebp
  00001	8b ec		 mov	 ebp, esp
  00003	51		 push	 ecx
  00004	89 4d fc	 mov	 DWORD PTR _this$[ebp], ecx
  00007	8b 4d fc	 mov	 ecx, DWORD PTR _this$[ebp]
  0000a	e8 00 00 00 00	 call	 ??0error_category@std@@QAE@XZ ; std::error_category::error_category
  0000f	8b 45 fc	 mov	 eax, DWORD PTR _this$[ebp]
  00012	c7 00 00 00 00
	00		 mov	 DWORD PTR [eax], OFFSET ??_7_Generic_error_category@std@@6B@

; 485  : 		{	// default constructor
; 486  : 		_Addr = _Generic_addr;

  00018	8b 4d fc	 mov	 ecx, DWORD PTR _this$[ebp]
  0001b	c7 41 04 03 00
	00 00		 mov	 DWORD PTR [ecx+4], 3

; 487  : 		}

  00022	8b 45 fc	 mov	 eax, DWORD PTR _this$[ebp]
  00025	8b e5		 mov	 esp, ebp
  00027	5d		 pop	 ebp
  00028	c3		 ret	 0
??0_Generic_error_category@std@@QAE@XZ ENDP		; std::_Generic_error_category::_Generic_error_category
_TEXT	ENDS
; Function compile flags: /Odtp
;	COMDAT ??_Gsystem_error@std@@UAEPAXI@Z
_TEXT	SEGMENT
_this$ = -4						; size = 4
___flags$ = 8						; size = 4
??_Gsystem_error@std@@UAEPAXI@Z PROC			; std::system_error::`scalar deleting destructor', COMDAT
; _this$ = ecx
  00000	55		 push	 ebp
  00001	8b ec		 mov	 ebp, esp
  00003	51		 push	 ecx
  00004	89 4d fc	 mov	 DWORD PTR _this$[ebp], ecx
  00007	8b 4d fc	 mov	 ecx, DWORD PTR _this$[ebp]
  0000a	e8 00 00 00 00	 call	 ??1system_error@std@@UAE@XZ
  0000f	8b 45 08	 mov	 eax, DWORD PTR ___flags$[ebp]
  00012	83 e0 01	 and	 eax, 1
  00015	74 0e		 je	 SHORT $LN2@scalar
  00017	6a 14		 push	 20			; 00000014H
  00019	8b 4d fc	 mov	 ecx, DWORD PTR _this$[ebp]
  0001c	51		 push	 ecx
  0001d	e8 00 00 00 00	 call	 ??3@YAXPAXI@Z		; operator delete
  00022	83 c4 08	 add	 esp, 8
$LN2@scalar:
  00025	8b 45 fc	 mov	 eax, DWORD PTR _this$[ebp]
  00028	8b e5		 mov	 esp, ebp
  0002a	5d		 pop	 ebp
  0002b	c2 04 00	 ret	 4
??_Gsystem_error@std@@UAEPAXI@Z ENDP			; std::system_error::`scalar deleting destructor'
_TEXT	ENDS
; Function compile flags: /Odtp
;	COMDAT ??0system_error@std@@QAE@ABV01@@Z
_TEXT	SEGMENT
_this$ = -4						; size = 4
___that$ = 8						; size = 4
??0system_error@std@@QAE@ABV01@@Z PROC			; std::system_error::system_error, COMDAT
; _this$ = ecx
  00000	55		 push	 ebp
  00001	8b ec		 mov	 ebp, esp
  00003	51		 push	 ecx
  00004	89 4d fc	 mov	 DWORD PTR _this$[ebp], ecx
  00007	8b 45 08	 mov	 eax, DWORD PTR ___that$[ebp]
  0000a	50		 push	 eax
  0000b	8b 4d fc	 mov	 ecx, DWORD PTR _this$[ebp]
  0000e	e8 00 00 00 00	 call	 ??0_System_error@std@@QAE@ABV01@@Z
  00013	8b 4d fc	 mov	 ecx, DWORD PTR _this$[ebp]
  00016	c7 01 00 00 00
	00		 mov	 DWORD PTR [ecx], OFFSET ??_7system_error@std@@6B@
  0001c	8b 45 fc	 mov	 eax, DWORD PTR _this$[ebp]
  0001f	8b e5		 mov	 esp, ebp
  00021	5d		 pop	 ebp
  00022	c2 04 00	 ret	 4
??0system_error@std@@QAE@ABV01@@Z ENDP			; std::system_error::system_error
_TEXT	ENDS
; Function compile flags: /Odtp
;	COMDAT ??1system_error@std@@UAE@XZ
_TEXT	SEGMENT
_this$ = -4						; size = 4
??1system_error@std@@UAE@XZ PROC			; std::system_error::~system_error, COMDAT
; _this$ = ecx
  00000	55		 push	 ebp
  00001	8b ec		 mov	 ebp, esp
  00003	51		 push	 ecx
  00004	89 4d fc	 mov	 DWORD PTR _this$[ebp], ecx
  00007	8b 4d fc	 mov	 ecx, DWORD PTR _this$[ebp]
  0000a	e8 00 00 00 00	 call	 ??1_System_error@std@@UAE@XZ
  0000f	8b e5		 mov	 esp, ebp
  00011	5d		 pop	 ebp
  00012	c3		 ret	 0
??1system_error@std@@UAE@XZ ENDP			; std::system_error::~system_error
_TEXT	ENDS
; Function compile flags: /Odtp
; File c:\program files (x86)\microsoft visual studio\2017\community\vc\tools\msvc\14.16.27023\include\system_error
;	COMDAT ??0system_error@std@@QAE@Verror_code@1@PBD@Z
_TEXT	SEGMENT
_this$ = -44						; size = 4
$T2 = -40						; size = 24
__$ArrayPad$ = -16					; size = 4
__$EHRec$ = -12						; size = 12
__Errcode$ = 8						; size = 8
__Message$ = 16						; size = 4
??0system_error@std@@QAE@Verror_code@1@PBD@Z PROC	; std::system_error::system_error, COMDAT
; _this$ = ecx

; 440  : 		{	// construct from error code and message string

  00000	55		 push	 ebp
  00001	8b ec		 mov	 ebp, esp
  00003	6a ff		 push	 -1
  00005	68 00 00 00 00	 push	 __ehhandler$??0system_error@std@@QAE@Verror_code@1@PBD@Z
  0000a	64 a1 00 00 00
	00		 mov	 eax, DWORD PTR fs:0
  00010	50		 push	 eax
  00011	83 ec 20	 sub	 esp, 32			; 00000020H
  00014	a1 00 00 00 00	 mov	 eax, DWORD PTR ___security_cookie
  00019	33 c5		 xor	 eax, ebp
  0001b	89 45 f0	 mov	 DWORD PTR __$ArrayPad$[ebp], eax
  0001e	50		 push	 eax
  0001f	8d 45 f4	 lea	 eax, DWORD PTR __$EHRec$[ebp]
  00022	64 a3 00 00 00
	00		 mov	 DWORD PTR fs:0, eax
  00028	89 4d d4	 mov	 DWORD PTR _this$[ebp], ecx

; 439  : 		: _Mybase(_Errcode, _Message)

  0002b	8b 45 10	 mov	 eax, DWORD PTR __Message$[ebp]
  0002e	50		 push	 eax
  0002f	8d 4d d8	 lea	 ecx, DWORD PTR $T2[ebp]
  00032	e8 00 00 00 00	 call	 ??0?$basic_string@DU?$char_traits@D@std@@V?$allocator@D@2@@std@@QAE@QBD@Z ; std::basic_string<char,std::char_traits<char>,std::allocator<char> >::basic_string<char,std::char_traits<char>,std::allocator<char> >
  00037	c7 45 fc 00 00
	00 00		 mov	 DWORD PTR __$EHRec$[ebp+8], 0
  0003e	8d 4d d8	 lea	 ecx, DWORD PTR $T2[ebp]
  00041	51		 push	 ecx
  00042	8b 55 0c	 mov	 edx, DWORD PTR __Errcode$[ebp+4]
  00045	52		 push	 edx
  00046	8b 45 08	 mov	 eax, DWORD PTR __Errcode$[ebp]
  00049	50		 push	 eax
  0004a	8b 4d d4	 mov	 ecx, DWORD PTR _this$[ebp]
  0004d	e8 00 00 00 00	 call	 ??0_System_error@std@@IAE@Verror_code@1@ABV?$basic_string@DU?$char_traits@D@std@@V?$allocator@D@2@@1@@Z ; std::_System_error::_System_error
  00052	c7 45 fc ff ff
	ff ff		 mov	 DWORD PTR __$EHRec$[ebp+8], -1
  00059	8d 4d d8	 lea	 ecx, DWORD PTR $T2[ebp]
  0005c	e8 00 00 00 00	 call	 ??1?$basic_string@DU?$char_traits@D@std@@V?$allocator@D@2@@std@@QAE@XZ ; std::basic_string<char,std::char_traits<char>,std::allocator<char> >::~basic_string<char,std::char_traits<char>,std::allocator<char> >

; 440  : 		{	// construct from error code and message string

  00061	8b 4d d4	 mov	 ecx, DWORD PTR _this$[ebp]
  00064	c7 01 00 00 00
	00		 mov	 DWORD PTR [ecx], OFFSET ??_7system_error@std@@6B@

; 441  : 		}

  0006a	8b 45 d4	 mov	 eax, DWORD PTR _this$[ebp]
  0006d	8b 4d f4	 mov	 ecx, DWORD PTR __$EHRec$[ebp]
  00070	64 89 0d 00 00
	00 00		 mov	 DWORD PTR fs:0, ecx
  00077	59		 pop	 ecx
  00078	8b 4d f0	 mov	 ecx, DWORD PTR __$ArrayPad$[ebp]
  0007b	33 cd		 xor	 ecx, ebp
  0007d	e8 00 00 00 00	 call	 @__security_check_cookie@4
  00082	8b e5		 mov	 esp, ebp
  00084	5d		 pop	 ebp
  00085	c2 0c 00	 ret	 12			; 0000000cH
_TEXT	ENDS
;	COMDAT text$x
text$x	SEGMENT
__unwindfunclet$??0system_error@std@@QAE@Verror_code@1@PBD@Z$0:
  00000	8d 4d d8	 lea	 ecx, DWORD PTR $T2[ebp]
  00003	e9 00 00 00 00	 jmp	 ??1?$basic_string@DU?$char_traits@D@std@@V?$allocator@D@2@@std@@QAE@XZ ; std::basic_string<char,std::char_traits<char>,std::allocator<char> >::~basic_string<char,std::char_traits<char>,std::allocator<char> >
__ehhandler$??0system_error@std@@QAE@Verror_code@1@PBD@Z:
  00008	8b 54 24 08	 mov	 edx, DWORD PTR [esp+8]
  0000c	8d 42 0c	 lea	 eax, DWORD PTR [edx+12]
  0000f	8b 4a dc	 mov	 ecx, DWORD PTR [edx-36]
  00012	33 c8		 xor	 ecx, eax
  00014	e8 00 00 00 00	 call	 @__security_check_cookie@4
  00019	8b 4a fc	 mov	 ecx, DWORD PTR [edx-4]
  0001c	33 c8		 xor	 ecx, eax
  0001e	e8 00 00 00 00	 call	 @__security_check_cookie@4
  00023	b8 00 00 00 00	 mov	 eax, OFFSET __ehfuncinfo$??0system_error@std@@QAE@Verror_code@1@PBD@Z
  00028	e9 00 00 00 00	 jmp	 ___CxxFrameHandler3
text$x	ENDS
??0system_error@std@@QAE@Verror_code@1@PBD@Z ENDP	; std::system_error::system_error
; Function compile flags: /Odtp
;	COMDAT ??_G_System_error@std@@UAEPAXI@Z
_TEXT	SEGMENT
_this$ = -4						; size = 4
___flags$ = 8						; size = 4
??_G_System_error@std@@UAEPAXI@Z PROC			; std::_System_error::`scalar deleting destructor', COMDAT
; _this$ = ecx
  00000	55		 push	 ebp
  00001	8b ec		 mov	 ebp, esp
  00003	51		 push	 ecx
  00004	89 4d fc	 mov	 DWORD PTR _this$[ebp], ecx
  00007	8b 4d fc	 mov	 ecx, DWORD PTR _this$[ebp]
  0000a	e8 00 00 00 00	 call	 ??1_System_error@std@@UAE@XZ
  0000f	8b 45 08	 mov	 eax, DWORD PTR ___flags$[ebp]
  00012	83 e0 01	 and	 eax, 1
  00015	74 0e		 je	 SHORT $LN2@scalar
  00017	6a 14		 push	 20			; 00000014H
  00019	8b 4d fc	 mov	 ecx, DWORD PTR _this$[ebp]
  0001c	51		 push	 ecx
  0001d	e8 00 00 00 00	 call	 ??3@YAXPAXI@Z		; operator delete
  00022	83 c4 08	 add	 esp, 8
$LN2@scalar:
  00025	8b 45 fc	 mov	 eax, DWORD PTR _this$[ebp]
  00028	8b e5		 mov	 esp, ebp
  0002a	5d		 pop	 ebp
  0002b	c2 04 00	 ret	 4
??_G_System_error@std@@UAEPAXI@Z ENDP			; std::_System_error::`scalar deleting destructor'
_TEXT	ENDS
; Function compile flags: /Odtp
;	COMDAT ??0_System_error@std@@QAE@ABV01@@Z
_TEXT	SEGMENT
_this$ = -4						; size = 4
___that$ = 8						; size = 4
??0_System_error@std@@QAE@ABV01@@Z PROC			; std::_System_error::_System_error, COMDAT
; _this$ = ecx
  00000	55		 push	 ebp
  00001	8b ec		 mov	 ebp, esp
  00003	51		 push	 ecx
  00004	89 4d fc	 mov	 DWORD PTR _this$[ebp], ecx
  00007	8b 45 08	 mov	 eax, DWORD PTR ___that$[ebp]
  0000a	50		 push	 eax
  0000b	8b 4d fc	 mov	 ecx, DWORD PTR _this$[ebp]
  0000e	e8 00 00 00 00	 call	 ??0runtime_error@std@@QAE@ABV01@@Z
  00013	8b 4d fc	 mov	 ecx, DWORD PTR _this$[ebp]
  00016	c7 01 00 00 00
	00		 mov	 DWORD PTR [ecx], OFFSET ??_7_System_error@std@@6B@
  0001c	8b 55 08	 mov	 edx, DWORD PTR ___that$[ebp]
  0001f	8b 42 0c	 mov	 eax, DWORD PTR [edx+12]
  00022	8b 4a 10	 mov	 ecx, DWORD PTR [edx+16]
  00025	8b 55 fc	 mov	 edx, DWORD PTR _this$[ebp]
  00028	89 42 0c	 mov	 DWORD PTR [edx+12], eax
  0002b	89 4a 10	 mov	 DWORD PTR [edx+16], ecx
  0002e	8b 45 fc	 mov	 eax, DWORD PTR _this$[ebp]
  00031	8b e5		 mov	 esp, ebp
  00033	5d		 pop	 ebp
  00034	c2 04 00	 ret	 4
??0_System_error@std@@QAE@ABV01@@Z ENDP			; std::_System_error::_System_error
_TEXT	ENDS
; Function compile flags: /Odtp
;	COMDAT ??1_System_error@std@@UAE@XZ
_TEXT	SEGMENT
_this$ = -4						; size = 4
??1_System_error@std@@UAE@XZ PROC			; std::_System_error::~_System_error, COMDAT
; _this$ = ecx
  00000	55		 push	 ebp
  00001	8b ec		 mov	 ebp, esp
  00003	51		 push	 ecx
  00004	89 4d fc	 mov	 DWORD PTR _this$[ebp], ecx
  00007	8b 4d fc	 mov	 ecx, DWORD PTR _this$[ebp]
  0000a	e8 00 00 00 00	 call	 ??1runtime_error@std@@UAE@XZ
  0000f	8b e5		 mov	 esp, ebp
  00011	5d		 pop	 ebp
  00012	c3		 ret	 0
??1_System_error@std@@UAE@XZ ENDP			; std::_System_error::~_System_error
_TEXT	ENDS
; Function compile flags: /Odtp
; File c:\program files (x86)\microsoft visual studio\2017\community\vc\tools\msvc\14.16.27023\include\system_error
;	COMDAT ??0_System_error@std@@IAE@Verror_code@1@ABV?$basic_string@DU?$char_traits@D@std@@V?$allocator@D@2@@1@@Z
_TEXT	SEGMENT
$T2 = -56						; size = 4
tv137 = -52						; size = 4
tv135 = -48						; size = 4
_this$ = -44						; size = 4
$T3 = -40						; size = 24
__$ArrayPad$ = -16					; size = 4
__$EHRec$ = -12						; size = 12
__Errcode$ = 8						; size = 8
__Message$ = 16						; size = 4
??0_System_error@std@@IAE@Verror_code@1@ABV?$basic_string@DU?$char_traits@D@std@@V?$allocator@D@2@@1@@Z PROC ; std::_System_error::_System_error, COMDAT
; _this$ = ecx

; 415  : 		{	// construct from error code and message string

  00000	55		 push	 ebp
  00001	8b ec		 mov	 ebp, esp
  00003	6a ff		 push	 -1
  00005	68 00 00 00 00	 push	 __ehhandler$??0_System_error@std@@IAE@Verror_code@1@ABV?$basic_string@DU?$char_traits@D@std@@V?$allocator@D@2@@1@@Z
  0000a	64 a1 00 00 00
	00		 mov	 eax, DWORD PTR fs:0
  00010	50		 push	 eax
  00011	83 ec 2c	 sub	 esp, 44			; 0000002cH
  00014	a1 00 00 00 00	 mov	 eax, DWORD PTR ___security_cookie
  00019	33 c5		 xor	 eax, ebp
  0001b	89 45 f0	 mov	 DWORD PTR __$ArrayPad$[ebp], eax
  0001e	50		 push	 eax
  0001f	8d 45 f4	 lea	 eax, DWORD PTR __$EHRec$[ebp]
  00022	64 a3 00 00 00
	00		 mov	 DWORD PTR fs:0, eax
  00028	89 4d d4	 mov	 DWORD PTR _this$[ebp], ecx

; 413  : 		: runtime_error(_Makestr(_Errcode, _Message)),

  0002b	83 ec 18	 sub	 esp, 24			; 00000018H
  0002e	8b cc		 mov	 ecx, esp
  00030	89 65 c8	 mov	 DWORD PTR $T2[ebp], esp
  00033	8b 45 10	 mov	 eax, DWORD PTR __Message$[ebp]
  00036	50		 push	 eax
  00037	e8 00 00 00 00	 call	 ??0?$basic_string@DU?$char_traits@D@std@@V?$allocator@D@2@@std@@QAE@ABV01@@Z ; std::basic_string<char,std::char_traits<char>,std::allocator<char> >::basic_string<char,std::char_traits<char>,std::allocator<char> >
  0003c	8b 4d 0c	 mov	 ecx, DWORD PTR __Errcode$[ebp+4]
  0003f	51		 push	 ecx
  00040	8b 55 08	 mov	 edx, DWORD PTR __Errcode$[ebp]
  00043	52		 push	 edx
  00044	8d 45 d8	 lea	 eax, DWORD PTR $T3[ebp]
  00047	50		 push	 eax
  00048	e8 00 00 00 00	 call	 ?_Makestr@_System_error@std@@CA?AV?$basic_string@DU?$char_traits@D@std@@V?$allocator@D@2@@2@Verror_code@2@V32@@Z ; std::_System_error::_Makestr
  0004d	83 c4 24	 add	 esp, 36			; 00000024H
  00050	89 45 d0	 mov	 DWORD PTR tv135[ebp], eax
  00053	8b 4d d0	 mov	 ecx, DWORD PTR tv135[ebp]
  00056	89 4d cc	 mov	 DWORD PTR tv137[ebp], ecx
  00059	c7 45 fc 00 00
	00 00		 mov	 DWORD PTR __$EHRec$[ebp+8], 0
  00060	8b 55 cc	 mov	 edx, DWORD PTR tv137[ebp]
  00063	52		 push	 edx
  00064	8b 4d d4	 mov	 ecx, DWORD PTR _this$[ebp]
  00067	e8 00 00 00 00	 call	 ??0runtime_error@std@@QAE@ABV?$basic_string@DU?$char_traits@D@std@@V?$allocator@D@2@@1@@Z ; std::runtime_error::runtime_error
  0006c	c7 45 fc ff ff
	ff ff		 mov	 DWORD PTR __$EHRec$[ebp+8], -1
  00073	8d 4d d8	 lea	 ecx, DWORD PTR $T3[ebp]
  00076	e8 00 00 00 00	 call	 ??1?$basic_string@DU?$char_traits@D@std@@V?$allocator@D@2@@std@@QAE@XZ ; std::basic_string<char,std::char_traits<char>,std::allocator<char> >::~basic_string<char,std::char_traits<char>,std::allocator<char> >

; 415  : 		{	// construct from error code and message string

  0007b	8b 45 d4	 mov	 eax, DWORD PTR _this$[ebp]
  0007e	c7 00 00 00 00
	00		 mov	 DWORD PTR [eax], OFFSET ??_7_System_error@std@@6B@

; 414  : 		_Mycode(_Errcode)

  00084	8b 4d d4	 mov	 ecx, DWORD PTR _this$[ebp]
  00087	8b 55 08	 mov	 edx, DWORD PTR __Errcode$[ebp]
  0008a	89 51 0c	 mov	 DWORD PTR [ecx+12], edx
  0008d	8b 45 0c	 mov	 eax, DWORD PTR __Errcode$[ebp+4]
  00090	89 41 10	 mov	 DWORD PTR [ecx+16], eax

; 416  : 		}

  00093	8b 45 d4	 mov	 eax, DWORD PTR _this$[ebp]
  00096	8b 4d f4	 mov	 ecx, DWORD PTR __$EHRec$[ebp]
  00099	64 89 0d 00 00
	00 00		 mov	 DWORD PTR fs:0, ecx
  000a0	59		 pop	 ecx
  000a1	8b 4d f0	 mov	 ecx, DWORD PTR __$ArrayPad$[ebp]
  000a4	33 cd		 xor	 ecx, ebp
  000a6	e8 00 00 00 00	 call	 @__security_check_cookie@4
  000ab	8b e5		 mov	 esp, ebp
  000ad	5d		 pop	 ebp
  000ae	c2 0c 00	 ret	 12			; 0000000cH
_TEXT	ENDS
;	COMDAT text$x
text$x	SEGMENT
__unwindfunclet$??0_System_error@std@@IAE@Verror_code@1@ABV?$basic_string@DU?$char_traits@D@std@@V?$allocator@D@2@@1@@Z$1:
  00000	8d 4d d8	 lea	 ecx, DWORD PTR $T3[ebp]
  00003	e9 00 00 00 00	 jmp	 ??1?$basic_string@DU?$char_traits@D@std@@V?$allocator@D@2@@std@@QAE@XZ ; std::basic_string<char,std::char_traits<char>,std::allocator<char> >::~basic_string<char,std::char_traits<char>,std::allocator<char> >
__ehhandler$??0_System_error@std@@IAE@Verror_code@1@ABV?$basic_string@DU?$char_traits@D@std@@V?$allocator@D@2@@1@@Z:
  00008	8b 54 24 08	 mov	 edx, DWORD PTR [esp+8]
  0000c	8d 42 0c	 lea	 eax, DWORD PTR [edx+12]
  0000f	8b 4a d0	 mov	 ecx, DWORD PTR [edx-48]
  00012	33 c8		 xor	 ecx, eax
  00014	e8 00 00 00 00	 call	 @__security_check_cookie@4
  00019	8b 4a fc	 mov	 ecx, DWORD PTR [edx-4]
  0001c	33 c8		 xor	 ecx, eax
  0001e	e8 00 00 00 00	 call	 @__security_check_cookie@4
  00023	b8 00 00 00 00	 mov	 eax, OFFSET __ehfuncinfo$??0_System_error@std@@IAE@Verror_code@1@ABV?$basic_string@DU?$char_traits@D@std@@V?$allocator@D@2@@1@@Z
  00028	e9 00 00 00 00	 jmp	 ___CxxFrameHandler3
text$x	ENDS
??0_System_error@std@@IAE@Verror_code@1@ABV?$basic_string@DU?$char_traits@D@std@@V?$allocator@D@2@@1@@Z ENDP ; std::_System_error::_System_error
; Function compile flags: /Odtp
; File c:\program files (x86)\microsoft visual studio\2017\community\vc\tools\msvc\14.16.27023\include\system_error
;	COMDAT ?_Makestr@_System_error@std@@CA?AV?$basic_string@DU?$char_traits@D@std@@V?$allocator@D@2@@2@Verror_code@2@V32@@Z
_TEXT	SEGMENT
tv84 = -52						; size = 4
tv79 = -48						; size = 4
$T2 = -44						; size = 4
$T3 = -40						; size = 24
__$ArrayPad$ = -16					; size = 4
__$EHRec$ = -12						; size = 12
___$ReturnUdt$ = 8					; size = 4
__Errcode$ = 12						; size = 8
__Message$ = 20						; size = 24
?_Makestr@_System_error@std@@CA?AV?$basic_string@DU?$char_traits@D@std@@V?$allocator@D@2@@2@Verror_code@2@V32@@Z PROC ; std::_System_error::_Makestr, COMDAT

; 401  : 		{	// compose error message

  00000	55		 push	 ebp
  00001	8b ec		 mov	 ebp, esp
  00003	6a ff		 push	 -1
  00005	68 00 00 00 00	 push	 __ehhandler$?_Makestr@_System_error@std@@CA?AV?$basic_string@DU?$char_traits@D@std@@V?$allocator@D@2@@2@Verror_code@2@V32@@Z
  0000a	64 a1 00 00 00
	00		 mov	 eax, DWORD PTR fs:0
  00010	50		 push	 eax
  00011	83 ec 28	 sub	 esp, 40			; 00000028H
  00014	a1 00 00 00 00	 mov	 eax, DWORD PTR ___security_cookie
  00019	33 c5		 xor	 eax, ebp
  0001b	89 45 f0	 mov	 DWORD PTR __$ArrayPad$[ebp], eax
  0001e	50		 push	 eax
  0001f	8d 45 f4	 lea	 eax, DWORD PTR __$EHRec$[ebp]
  00022	64 a3 00 00 00
	00		 mov	 DWORD PTR fs:0, eax
  00028	c7 45 d4 00 00
	00 00		 mov	 DWORD PTR $T2[ebp], 0
  0002f	c7 45 fc 00 00
	00 00		 mov	 DWORD PTR __$EHRec$[ebp+8], 0

; 402  : 		if (!_Message.empty())

  00036	8d 4d 14	 lea	 ecx, DWORD PTR __Message$[ebp]
  00039	e8 00 00 00 00	 call	 ?empty@?$basic_string@DU?$char_traits@D@std@@V?$allocator@D@2@@std@@QBE_NXZ ; std::basic_string<char,std::char_traits<char>,std::allocator<char> >::empty
  0003e	0f b6 c0	 movzx	 eax, al
  00041	85 c0		 test	 eax, eax
  00043	75 0d		 jne	 SHORT $LN2@Makestr

; 403  : 			{
; 404  : 			_Message.append(": ");

  00045	68 00 00 00 00	 push	 OFFSET ??_C@_02LMMGGCAJ@?3?5@
  0004a	8d 4d 14	 lea	 ecx, DWORD PTR __Message$[ebp]
  0004d	e8 00 00 00 00	 call	 ?append@?$basic_string@DU?$char_traits@D@std@@V?$allocator@D@2@@std@@QAEAAV12@QBD@Z ; std::basic_string<char,std::char_traits<char>,std::allocator<char> >::append
$LN2@Makestr:

; 405  : 			}
; 406  : 
; 407  : 		_Message.append(_Errcode.message());

  00052	8d 4d d8	 lea	 ecx, DWORD PTR $T3[ebp]
  00055	51		 push	 ecx
  00056	8d 4d 0c	 lea	 ecx, DWORD PTR __Errcode$[ebp]
  00059	e8 00 00 00 00	 call	 ?message@error_code@std@@QBE?AV?$basic_string@DU?$char_traits@D@std@@V?$allocator@D@2@@2@XZ ; std::error_code::message
  0005e	89 45 d0	 mov	 DWORD PTR tv79[ebp], eax
  00061	8b 55 d0	 mov	 edx, DWORD PTR tv79[ebp]
  00064	89 55 cc	 mov	 DWORD PTR tv84[ebp], edx
  00067	c6 45 fc 01	 mov	 BYTE PTR __$EHRec$[ebp+8], 1
  0006b	8b 45 cc	 mov	 eax, DWORD PTR tv84[ebp]
  0006e	50		 push	 eax
  0006f	8d 4d 14	 lea	 ecx, DWORD PTR __Message$[ebp]
  00072	e8 00 00 00 00	 call	 ?append@?$basic_string@DU?$char_traits@D@std@@V?$allocator@D@2@@std@@QAEAAV12@ABV12@@Z ; std::basic_string<char,std::char_traits<char>,std::allocator<char> >::append
  00077	c6 45 fc 00	 mov	 BYTE PTR __$EHRec$[ebp+8], 0
  0007b	8d 4d d8	 lea	 ecx, DWORD PTR $T3[ebp]
  0007e	e8 00 00 00 00	 call	 ??1?$basic_string@DU?$char_traits@D@std@@V?$allocator@D@2@@std@@QAE@XZ ; std::basic_string<char,std::char_traits<char>,std::allocator<char> >::~basic_string<char,std::char_traits<char>,std::allocator<char> >

; 408  : 		return (_Message);

  00083	8d 4d 14	 lea	 ecx, DWORD PTR __Message$[ebp]
  00086	51		 push	 ecx
  00087	8b 4d 08	 mov	 ecx, DWORD PTR ___$ReturnUdt$[ebp]
  0008a	e8 00 00 00 00	 call	 ??0?$basic_string@DU?$char_traits@D@std@@V?$allocator@D@2@@std@@QAE@$$QAV01@@Z ; std::basic_string<char,std::char_traits<char>,std::allocator<char> >::basic_string<char,std::char_traits<char>,std::allocator<char> >
  0008f	8b 55 d4	 mov	 edx, DWORD PTR $T2[ebp]
  00092	83 ca 01	 or	 edx, 1
  00095	89 55 d4	 mov	 DWORD PTR $T2[ebp], edx
  00098	c7 45 fc ff ff
	ff ff		 mov	 DWORD PTR __$EHRec$[ebp+8], -1
  0009f	8d 4d 14	 lea	 ecx, DWORD PTR __Message$[ebp]
  000a2	e8 00 00 00 00	 call	 ??1?$basic_string@DU?$char_traits@D@std@@V?$allocator@D@2@@std@@QAE@XZ ; std::basic_string<char,std::char_traits<char>,std::allocator<char> >::~basic_string<char,std::char_traits<char>,std::allocator<char> >
  000a7	8b 45 08	 mov	 eax, DWORD PTR ___$ReturnUdt$[ebp]

; 409  : 		}

  000aa	8b 4d f4	 mov	 ecx, DWORD PTR __$EHRec$[ebp]
  000ad	64 89 0d 00 00
	00 00		 mov	 DWORD PTR fs:0, ecx
  000b4	59		 pop	 ecx
  000b5	8b 4d f0	 mov	 ecx, DWORD PTR __$ArrayPad$[ebp]
  000b8	33 cd		 xor	 ecx, ebp
  000ba	e8 00 00 00 00	 call	 @__security_check_cookie@4
  000bf	8b e5		 mov	 esp, ebp
  000c1	5d		 pop	 ebp
  000c2	c3		 ret	 0
_TEXT	ENDS
;	COMDAT text$x
text$x	SEGMENT
__unwindfunclet$?_Makestr@_System_error@std@@CA?AV?$basic_string@DU?$char_traits@D@std@@V?$allocator@D@2@@2@Verror_code@2@V32@@Z$0:
  00000	8d 4d 14	 lea	 ecx, DWORD PTR __Message$[ebp]
  00003	e9 00 00 00 00	 jmp	 ??1?$basic_string@DU?$char_traits@D@std@@V?$allocator@D@2@@std@@QAE@XZ ; std::basic_string<char,std::char_traits<char>,std::allocator<char> >::~basic_string<char,std::char_traits<char>,std::allocator<char> >
__unwindfunclet$?_Makestr@_System_error@std@@CA?AV?$basic_string@DU?$char_traits@D@std@@V?$allocator@D@2@@2@Verror_code@2@V32@@Z$1:
  00008	8d 4d d8	 lea	 ecx, DWORD PTR $T3[ebp]
  0000b	e9 00 00 00 00	 jmp	 ??1?$basic_string@DU?$char_traits@D@std@@V?$allocator@D@2@@std@@QAE@XZ ; std::basic_string<char,std::char_traits<char>,std::allocator<char> >::~basic_string<char,std::char_traits<char>,std::allocator<char> >
__ehhandler$?_Makestr@_System_error@std@@CA?AV?$basic_string@DU?$char_traits@D@std@@V?$allocator@D@2@@2@Verror_code@2@V32@@Z:
  00010	8b 54 24 08	 mov	 edx, DWORD PTR [esp+8]
  00014	8d 42 0c	 lea	 eax, DWORD PTR [edx+12]
  00017	8b 4a d4	 mov	 ecx, DWORD PTR [edx-44]
  0001a	33 c8		 xor	 ecx, eax
  0001c	e8 00 00 00 00	 call	 @__security_check_cookie@4
  00021	8b 4a fc	 mov	 ecx, DWORD PTR [edx-4]
  00024	33 c8		 xor	 ecx, eax
  00026	e8 00 00 00 00	 call	 @__security_check_cookie@4
  0002b	b8 00 00 00 00	 mov	 eax, OFFSET __ehfuncinfo$?_Makestr@_System_error@std@@CA?AV?$basic_string@DU?$char_traits@D@std@@V?$allocator@D@2@@2@Verror_code@2@V32@@Z
  00030	e9 00 00 00 00	 jmp	 ___CxxFrameHandler3
text$x	ENDS
?_Makestr@_System_error@std@@CA?AV?$basic_string@DU?$char_traits@D@std@@V?$allocator@D@2@@2@Verror_code@2@V32@@Z ENDP ; std::_System_error::_Makestr
; Function compile flags: /Odtp
; File c:\program files (x86)\microsoft visual studio\2017\community\vc\tools\msvc\14.16.27023\include\system_error
;	COMDAT ??8std@@YA_NABVerror_condition@0@0@Z
_TEXT	SEGMENT
tv78 = -4						; size = 4
__Left$ = 8						; size = 4
__Right$ = 12						; size = 4
??8std@@YA_NABVerror_condition@0@0@Z PROC		; std::operator==, COMDAT

; 285  : 	{	// test errors for equality

  00000	55		 push	 ebp
  00001	8b ec		 mov	 ebp, esp
  00003	51		 push	 ecx
  00004	56		 push	 esi

; 286  : 	return (_Left.category() == _Right.category()

  00005	8b 4d 0c	 mov	 ecx, DWORD PTR __Right$[ebp]
  00008	e8 00 00 00 00	 call	 ?category@error_condition@std@@QBEABVerror_category@2@XZ ; std::error_condition::category
  0000d	50		 push	 eax
  0000e	8b 4d 08	 mov	 ecx, DWORD PTR __Left$[ebp]
  00011	e8 00 00 00 00	 call	 ?category@error_condition@std@@QBEABVerror_category@2@XZ ; std::error_condition::category
  00016	8b c8		 mov	 ecx, eax
  00018	e8 00 00 00 00	 call	 ??8error_category@std@@QBE_NABV01@@Z ; std::error_category::operator==
  0001d	0f b6 c0	 movzx	 eax, al
  00020	85 c0		 test	 eax, eax
  00022	74 1f		 je	 SHORT $LN3@operator
  00024	8b 4d 08	 mov	 ecx, DWORD PTR __Left$[ebp]
  00027	e8 00 00 00 00	 call	 ?value@error_condition@std@@QBEHXZ ; std::error_condition::value
  0002c	8b f0		 mov	 esi, eax
  0002e	8b 4d 0c	 mov	 ecx, DWORD PTR __Right$[ebp]
  00031	e8 00 00 00 00	 call	 ?value@error_condition@std@@QBEHXZ ; std::error_condition::value
  00036	3b f0		 cmp	 esi, eax
  00038	75 09		 jne	 SHORT $LN3@operator
  0003a	c7 45 fc 01 00
	00 00		 mov	 DWORD PTR tv78[ebp], 1
  00041	eb 07		 jmp	 SHORT $LN4@operator
$LN3@operator:
  00043	c7 45 fc 00 00
	00 00		 mov	 DWORD PTR tv78[ebp], 0
$LN4@operator:
  0004a	8a 45 fc	 mov	 al, BYTE PTR tv78[ebp]

; 287  : 		&& _Left.value() == _Right.value());
; 288  : 	}

  0004d	5e		 pop	 esi
  0004e	8b e5		 mov	 esp, ebp
  00050	5d		 pop	 ebp
  00051	c3		 ret	 0
??8std@@YA_NABVerror_condition@0@0@Z ENDP		; std::operator==
_TEXT	ENDS
; Function compile flags: /Odtp
; File c:\program files (x86)\microsoft visual studio\2017\community\vc\tools\msvc\14.16.27023\include\system_error
;	COMDAT ?category@error_condition@std@@QBEABVerror_category@2@XZ
_TEXT	SEGMENT
_this$ = -4						; size = 4
?category@error_condition@std@@QBEABVerror_category@2@XZ PROC ; std::error_condition::category, COMDAT
; _this$ = ecx

; 246  : 		{	// get category

  00000	55		 push	 ebp
  00001	8b ec		 mov	 ebp, esp
  00003	51		 push	 ecx
  00004	89 4d fc	 mov	 DWORD PTR _this$[ebp], ecx

; 247  : 		return (*_Mycat);

  00007	8b 45 fc	 mov	 eax, DWORD PTR _this$[ebp]
  0000a	8b 40 04	 mov	 eax, DWORD PTR [eax+4]

; 248  : 		}

  0000d	8b e5		 mov	 esp, ebp
  0000f	5d		 pop	 ebp
  00010	c3		 ret	 0
?category@error_condition@std@@QBEABVerror_category@2@XZ ENDP ; std::error_condition::category
_TEXT	ENDS
; Function compile flags: /Odtp
; File c:\program files (x86)\microsoft visual studio\2017\community\vc\tools\msvc\14.16.27023\include\system_error
;	COMDAT ?value@error_condition@std@@QBEHXZ
_TEXT	SEGMENT
_this$ = -4						; size = 4
?value@error_condition@std@@QBEHXZ PROC			; std::error_condition::value, COMDAT
; _this$ = ecx

; 241  : 		{	// get error code

  00000	55		 push	 ebp
  00001	8b ec		 mov	 ebp, esp
  00003	51		 push	 ecx
  00004	89 4d fc	 mov	 DWORD PTR _this$[ebp], ecx

; 242  : 		return (_Myval);

  00007	8b 45 fc	 mov	 eax, DWORD PTR _this$[ebp]
  0000a	8b 00		 mov	 eax, DWORD PTR [eax]

; 243  : 		}

  0000c	8b e5		 mov	 esp, ebp
  0000e	5d		 pop	 ebp
  0000f	c3		 ret	 0
?value@error_condition@std@@QBEHXZ ENDP			; std::error_condition::value
_TEXT	ENDS
; Function compile flags: /Odtp
; File c:\program files (x86)\microsoft visual studio\2017\community\vc\tools\msvc\14.16.27023\include\system_error
;	COMDAT ??0error_condition@std@@QAE@HABVerror_category@1@@Z
_TEXT	SEGMENT
_this$ = -4						; size = 4
__Val$ = 8						; size = 4
__Cat$ = 12						; size = 4
??0error_condition@std@@QAE@HABVerror_category@1@@Z PROC ; std::error_condition::error_condition, COMDAT
; _this$ = ecx

; 208  : 		{	// construct from error code and category

  00000	55		 push	 ebp
  00001	8b ec		 mov	 ebp, esp
  00003	51		 push	 ecx
  00004	89 4d fc	 mov	 DWORD PTR _this$[ebp], ecx

; 206  : 		: _Myval(_Val),

  00007	8b 45 fc	 mov	 eax, DWORD PTR _this$[ebp]
  0000a	8b 4d 08	 mov	 ecx, DWORD PTR __Val$[ebp]
  0000d	89 08		 mov	 DWORD PTR [eax], ecx

; 207  : 		_Mycat(&_Cat)

  0000f	8b 55 fc	 mov	 edx, DWORD PTR _this$[ebp]
  00012	8b 45 0c	 mov	 eax, DWORD PTR __Cat$[ebp]
  00015	89 42 04	 mov	 DWORD PTR [edx+4], eax

; 209  : 		}

  00018	8b 45 fc	 mov	 eax, DWORD PTR _this$[ebp]
  0001b	8b e5		 mov	 esp, ebp
  0001d	5d		 pop	 ebp
  0001e	c2 08 00	 ret	 8
??0error_condition@std@@QAE@HABVerror_category@1@@Z ENDP ; std::error_condition::error_condition
_TEXT	ENDS
; Function compile flags: /Odtp
; File c:\program files (x86)\microsoft visual studio\2017\community\vc\tools\msvc\14.16.27023\include\system_error
;	COMDAT ?message@error_code@std@@QBE?AV?$basic_string@DU?$char_traits@D@std@@V?$allocator@D@2@@2@XZ
_TEXT	SEGMENT
$T1 = -12						; size = 4
tv67 = -8						; size = 4
_this$ = -4						; size = 4
___$ReturnUdt$ = 8					; size = 4
?message@error_code@std@@QBE?AV?$basic_string@DU?$char_traits@D@std@@V?$allocator@D@2@@2@XZ PROC ; std::error_code::message, COMDAT
; _this$ = ecx

; 181  : 		{	// get name of error code

  00000	55		 push	 ebp
  00001	8b ec		 mov	 ebp, esp
  00003	83 ec 0c	 sub	 esp, 12			; 0000000cH
  00006	89 4d fc	 mov	 DWORD PTR _this$[ebp], ecx
  00009	c7 45 f4 00 00
	00 00		 mov	 DWORD PTR $T1[ebp], 0

; 182  : 		return (category().message(value()));

  00010	8b 4d fc	 mov	 ecx, DWORD PTR _this$[ebp]
  00013	e8 00 00 00 00	 call	 ?category@error_code@std@@QBEABVerror_category@2@XZ ; std::error_code::category
  00018	89 45 f8	 mov	 DWORD PTR tv67[ebp], eax
  0001b	8b 4d fc	 mov	 ecx, DWORD PTR _this$[ebp]
  0001e	e8 00 00 00 00	 call	 ?value@error_code@std@@QBEHXZ ; std::error_code::value
  00023	50		 push	 eax
  00024	8b 45 08	 mov	 eax, DWORD PTR ___$ReturnUdt$[ebp]
  00027	50		 push	 eax
  00028	8b 4d f8	 mov	 ecx, DWORD PTR tv67[ebp]
  0002b	8b 11		 mov	 edx, DWORD PTR [ecx]
  0002d	8b 4d f8	 mov	 ecx, DWORD PTR tv67[ebp]
  00030	8b 42 08	 mov	 eax, DWORD PTR [edx+8]
  00033	ff d0		 call	 eax
  00035	8b 4d f4	 mov	 ecx, DWORD PTR $T1[ebp]
  00038	83 c9 01	 or	 ecx, 1
  0003b	89 4d f4	 mov	 DWORD PTR $T1[ebp], ecx
  0003e	8b 45 08	 mov	 eax, DWORD PTR ___$ReturnUdt$[ebp]

; 183  : 		}

  00041	8b e5		 mov	 esp, ebp
  00043	5d		 pop	 ebp
  00044	c2 04 00	 ret	 4
?message@error_code@std@@QBE?AV?$basic_string@DU?$char_traits@D@std@@V?$allocator@D@2@@2@XZ ENDP ; std::error_code::message
_TEXT	ENDS
; Function compile flags: /Odtp
; File c:\program files (x86)\microsoft visual studio\2017\community\vc\tools\msvc\14.16.27023\include\system_error
;	COMDAT ?category@error_code@std@@QBEABVerror_category@2@XZ
_TEXT	SEGMENT
_this$ = -4						; size = 4
?category@error_code@std@@QBEABVerror_category@2@XZ PROC ; std::error_code::category, COMDAT
; _this$ = ecx

; 174  : 		{	// get category

  00000	55		 push	 ebp
  00001	8b ec		 mov	 ebp, esp
  00003	51		 push	 ecx
  00004	89 4d fc	 mov	 DWORD PTR _this$[ebp], ecx

; 175  : 		return (*_Mycat);

  00007	8b 45 fc	 mov	 eax, DWORD PTR _this$[ebp]
  0000a	8b 40 04	 mov	 eax, DWORD PTR [eax+4]

; 176  : 		}

  0000d	8b e5		 mov	 esp, ebp
  0000f	5d		 pop	 ebp
  00010	c3		 ret	 0
?category@error_code@std@@QBEABVerror_category@2@XZ ENDP ; std::error_code::category
_TEXT	ENDS
; Function compile flags: /Odtp
; File c:\program files (x86)\microsoft visual studio\2017\community\vc\tools\msvc\14.16.27023\include\system_error
;	COMDAT ?value@error_code@std@@QBEHXZ
_TEXT	SEGMENT
_this$ = -4						; size = 4
?value@error_code@std@@QBEHXZ PROC			; std::error_code::value, COMDAT
; _this$ = ecx

; 169  : 		{	// get error code

  00000	55		 push	 ebp
  00001	8b ec		 mov	 ebp, esp
  00003	51		 push	 ecx
  00004	89 4d fc	 mov	 DWORD PTR _this$[ebp], ecx

; 170  : 		return (_Myval);

  00007	8b 45 fc	 mov	 eax, DWORD PTR _this$[ebp]
  0000a	8b 00		 mov	 eax, DWORD PTR [eax]

; 171  : 		}

  0000c	8b e5		 mov	 esp, ebp
  0000e	5d		 pop	 ebp
  0000f	c3		 ret	 0
?value@error_code@std@@QBEHXZ ENDP			; std::error_code::value
_TEXT	ENDS
; Function compile flags: /Odtp
; File c:\program files (x86)\microsoft visual studio\2017\community\vc\tools\msvc\14.16.27023\include\system_error
;	COMDAT ??0error_code@std@@QAE@HABVerror_category@1@@Z
_TEXT	SEGMENT
_this$ = -4						; size = 4
__Val$ = 8						; size = 4
__Cat$ = 12						; size = 4
??0error_code@std@@QAE@HABVerror_category@1@@Z PROC	; std::error_code::error_code, COMDAT
; _this$ = ecx

; 136  : 		{	// construct from error code and category

  00000	55		 push	 ebp
  00001	8b ec		 mov	 ebp, esp
  00003	51		 push	 ecx
  00004	89 4d fc	 mov	 DWORD PTR _this$[ebp], ecx

; 134  : 		: _Myval(_Val),

  00007	8b 45 fc	 mov	 eax, DWORD PTR _this$[ebp]
  0000a	8b 4d 08	 mov	 ecx, DWORD PTR __Val$[ebp]
  0000d	89 08		 mov	 DWORD PTR [eax], ecx

; 135  : 		_Mycat(&_Cat)

  0000f	8b 55 fc	 mov	 edx, DWORD PTR _this$[ebp]
  00012	8b 45 0c	 mov	 eax, DWORD PTR __Cat$[ebp]
  00015	89 42 04	 mov	 DWORD PTR [edx+4], eax

; 137  : 		}

  00018	8b 45 fc	 mov	 eax, DWORD PTR _this$[ebp]
  0001b	8b e5		 mov	 esp, ebp
  0001d	5d		 pop	 ebp
  0001e	c2 08 00	 ret	 8
??0error_code@std@@QAE@HABVerror_category@1@@Z ENDP	; std::error_code::error_code
_TEXT	ENDS
; Function compile flags: /Odtp
; File c:\program files (x86)\microsoft visual studio\2017\community\vc\tools\msvc\14.16.27023\include\system_error
;	COMDAT ??8error_category@std@@QBE_NABV01@@Z
_TEXT	SEGMENT
_this$ = -8						; size = 4
tv67 = -4						; size = 4
__Right$ = 8						; size = 4
??8error_category@std@@QBE_NABV01@@Z PROC		; std::error_category::operator==, COMDAT
; _this$ = ecx

; 94   : 		{	// compare categories for equality

  00000	55		 push	 ebp
  00001	8b ec		 mov	 ebp, esp
  00003	83 ec 08	 sub	 esp, 8
  00006	89 4d f8	 mov	 DWORD PTR _this$[ebp], ecx

; 95   : 		return (_Addr == _Right._Addr);

  00009	8b 45 f8	 mov	 eax, DWORD PTR _this$[ebp]
  0000c	8b 4d 08	 mov	 ecx, DWORD PTR __Right$[ebp]
  0000f	8b 50 04	 mov	 edx, DWORD PTR [eax+4]
  00012	3b 51 04	 cmp	 edx, DWORD PTR [ecx+4]
  00015	75 09		 jne	 SHORT $LN3@operator
  00017	c7 45 fc 01 00
	00 00		 mov	 DWORD PTR tv67[ebp], 1
  0001e	eb 07		 jmp	 SHORT $LN4@operator
$LN3@operator:
  00020	c7 45 fc 00 00
	00 00		 mov	 DWORD PTR tv67[ebp], 0
$LN4@operator:
  00027	8a 45 fc	 mov	 al, BYTE PTR tv67[ebp]

; 96   : 		}

  0002a	8b e5		 mov	 esp, ebp
  0002c	5d		 pop	 ebp
  0002d	c2 04 00	 ret	 4
??8error_category@std@@QBE_NABV01@@Z ENDP		; std::error_category::operator==
_TEXT	ENDS
; Function compile flags: /Odtp
; File c:\program files (x86)\microsoft visual studio\2017\community\vc\tools\msvc\14.16.27023\include\system_error
;	COMDAT ?equivalent@error_category@std@@UBE_NABVerror_code@2@H@Z
_TEXT	SEGMENT
_this$ = -8						; size = 4
tv74 = -4						; size = 4
__Code$ = 8						; size = 4
__Errval$ = 12						; size = 4
?equivalent@error_category@std@@UBE_NABVerror_code@2@H@Z PROC ; std::error_category::equivalent, COMDAT
; _this$ = ecx

; 338  : 	{	// test if conditions same for this category

  00000	55		 push	 ebp
  00001	8b ec		 mov	 ebp, esp
  00003	83 ec 08	 sub	 esp, 8
  00006	89 4d f8	 mov	 DWORD PTR _this$[ebp], ecx

; 339  : 	return (*this == _Code.category() && _Code.value() == _Errval);

  00009	8b 4d 08	 mov	 ecx, DWORD PTR __Code$[ebp]
  0000c	e8 00 00 00 00	 call	 ?category@error_code@std@@QBEABVerror_category@2@XZ ; std::error_code::category
  00011	50		 push	 eax
  00012	8b 4d f8	 mov	 ecx, DWORD PTR _this$[ebp]
  00015	e8 00 00 00 00	 call	 ??8error_category@std@@QBE_NABV01@@Z ; std::error_category::operator==
  0001a	0f b6 c0	 movzx	 eax, al
  0001d	85 c0		 test	 eax, eax
  0001f	74 16		 je	 SHORT $LN3@equivalent
  00021	8b 4d 08	 mov	 ecx, DWORD PTR __Code$[ebp]
  00024	e8 00 00 00 00	 call	 ?value@error_code@std@@QBEHXZ ; std::error_code::value
  00029	3b 45 0c	 cmp	 eax, DWORD PTR __Errval$[ebp]
  0002c	75 09		 jne	 SHORT $LN3@equivalent
  0002e	c7 45 fc 01 00
	00 00		 mov	 DWORD PTR tv74[ebp], 1
  00035	eb 07		 jmp	 SHORT $LN4@equivalent
$LN3@equivalent:
  00037	c7 45 fc 00 00
	00 00		 mov	 DWORD PTR tv74[ebp], 0
$LN4@equivalent:
  0003e	8a 45 fc	 mov	 al, BYTE PTR tv74[ebp]

; 340  : 	}

  00041	8b e5		 mov	 esp, ebp
  00043	5d		 pop	 ebp
  00044	c2 08 00	 ret	 8
?equivalent@error_category@std@@UBE_NABVerror_code@2@H@Z ENDP ; std::error_category::equivalent
_TEXT	ENDS
; Function compile flags: /Odtp
; File c:\program files (x86)\microsoft visual studio\2017\community\vc\tools\msvc\14.16.27023\include\system_error
;	COMDAT ?equivalent@error_category@std@@UBE_NHABVerror_condition@2@@Z
_TEXT	SEGMENT
$T1 = -12						; size = 8
_this$ = -4						; size = 4
__Errval$ = 8						; size = 4
__Cond$ = 12						; size = 4
?equivalent@error_category@std@@UBE_NHABVerror_condition@2@@Z PROC ; std::error_category::equivalent, COMDAT
; _this$ = ecx

; 333  : 	{	// test if error code same condition

  00000	55		 push	 ebp
  00001	8b ec		 mov	 ebp, esp
  00003	83 ec 0c	 sub	 esp, 12			; 0000000cH
  00006	89 4d fc	 mov	 DWORD PTR _this$[ebp], ecx

; 334  : 	return (default_error_condition(_Errval) == _Cond);

  00009	8b 45 0c	 mov	 eax, DWORD PTR __Cond$[ebp]
  0000c	50		 push	 eax
  0000d	8b 4d 08	 mov	 ecx, DWORD PTR __Errval$[ebp]
  00010	51		 push	 ecx
  00011	8d 55 f4	 lea	 edx, DWORD PTR $T1[ebp]
  00014	52		 push	 edx
  00015	8b 45 fc	 mov	 eax, DWORD PTR _this$[ebp]
  00018	8b 10		 mov	 edx, DWORD PTR [eax]
  0001a	8b 4d fc	 mov	 ecx, DWORD PTR _this$[ebp]
  0001d	8b 42 0c	 mov	 eax, DWORD PTR [edx+12]
  00020	ff d0		 call	 eax
  00022	50		 push	 eax
  00023	e8 00 00 00 00	 call	 ??8std@@YA_NABVerror_condition@0@0@Z ; std::operator==
  00028	83 c4 08	 add	 esp, 8

; 335  : 	}

  0002b	8b e5		 mov	 esp, ebp
  0002d	5d		 pop	 ebp
  0002e	c2 08 00	 ret	 8
?equivalent@error_category@std@@UBE_NHABVerror_condition@2@@Z ENDP ; std::error_category::equivalent
_TEXT	ENDS
; Function compile flags: /Odtp
; File c:\program files (x86)\microsoft visual studio\2017\community\vc\tools\msvc\14.16.27023\include\system_error
;	COMDAT ?default_error_condition@error_category@std@@UBE?AVerror_condition@2@H@Z
_TEXT	SEGMENT
_this$ = -4						; size = 4
___$ReturnUdt$ = 8					; size = 4
__Errval$ = 12						; size = 4
?default_error_condition@error_category@std@@UBE?AVerror_condition@2@H@Z PROC ; std::error_category::default_error_condition, COMDAT
; _this$ = ecx

; 328  : 	{	// make error_condition for error code

  00000	55		 push	 ebp
  00001	8b ec		 mov	 ebp, esp
  00003	51		 push	 ecx
  00004	89 4d fc	 mov	 DWORD PTR _this$[ebp], ecx

; 329  : 	return (error_condition(_Errval, *this));

  00007	8b 45 fc	 mov	 eax, DWORD PTR _this$[ebp]
  0000a	50		 push	 eax
  0000b	8b 4d 0c	 mov	 ecx, DWORD PTR __Errval$[ebp]
  0000e	51		 push	 ecx
  0000f	8b 4d 08	 mov	 ecx, DWORD PTR ___$ReturnUdt$[ebp]
  00012	e8 00 00 00 00	 call	 ??0error_condition@std@@QAE@HABVerror_category@1@@Z ; std::error_condition::error_condition
  00017	8b 45 08	 mov	 eax, DWORD PTR ___$ReturnUdt$[ebp]

; 330  : 	}

  0001a	8b e5		 mov	 esp, ebp
  0001c	5d		 pop	 ebp
  0001d	c2 08 00	 ret	 8
?default_error_condition@error_category@std@@UBE?AVerror_condition@2@H@Z ENDP ; std::error_category::default_error_condition
_TEXT	ENDS
; Function compile flags: /Odtp
; File c:\program files (x86)\microsoft visual studio\2017\community\vc\tools\msvc\14.16.27023\include\system_error
;	COMDAT ??1error_category@std@@UAE@XZ
_TEXT	SEGMENT
_this$ = -4						; size = 4
??1error_category@std@@UAE@XZ PROC			; std::error_category::~error_category, COMDAT
; _this$ = ecx

; 80   : 		{

  00000	55		 push	 ebp
  00001	8b ec		 mov	 ebp, esp
  00003	51		 push	 ecx
  00004	89 4d fc	 mov	 DWORD PTR _this$[ebp], ecx

; 81   : 		}

  00007	8b e5		 mov	 esp, ebp
  00009	5d		 pop	 ebp
  0000a	c3		 ret	 0
??1error_category@std@@UAE@XZ ENDP			; std::error_category::~error_category
_TEXT	ENDS
; Function compile flags: /Odtp
; File c:\program files (x86)\microsoft visual studio\2017\community\vc\tools\msvc\14.16.27023\include\system_error
;	COMDAT ??0error_category@std@@QAE@XZ
_TEXT	SEGMENT
_this$ = -4						; size = 4
??0error_category@std@@QAE@XZ PROC			; std::error_category::error_category, COMDAT
; _this$ = ecx

; 74   : 	/* constexpr */ error_category() noexcept	// TRANSITION

  00000	55		 push	 ebp
  00001	8b ec		 mov	 ebp, esp
  00003	51		 push	 ecx
  00004	89 4d fc	 mov	 DWORD PTR _this$[ebp], ecx

; 75   : 		{	// default constructor
; 76   : 		_Addr = reinterpret_cast<uintptr_t>(this);

  00007	8b 45 fc	 mov	 eax, DWORD PTR _this$[ebp]
  0000a	8b 4d fc	 mov	 ecx, DWORD PTR _this$[ebp]
  0000d	89 48 04	 mov	 DWORD PTR [eax+4], ecx

; 77   : 		}

  00010	8b 45 fc	 mov	 eax, DWORD PTR _this$[ebp]
  00013	8b e5		 mov	 esp, ebp
  00015	5d		 pop	 ebp
  00016	c3		 ret	 0
??0error_category@std@@QAE@XZ ENDP			; std::error_category::error_category
_TEXT	ENDS
; Function compile flags: /Odtp
; File c:\program files (x86)\microsoft visual studio\2017\community\vc\tools\msvc\14.16.27023\include\system_error
;	COMDAT ?iostream_category@std@@YAABVerror_category@1@XZ
_TEXT	SEGMENT
__$EHRec$ = -12						; size = 12
?iostream_category@std@@YAABVerror_category@1@XZ PROC	; std::iostream_category, COMDAT

; 627  : 	{	// get iostream_category

  00000	55		 push	 ebp
  00001	8b ec		 mov	 ebp, esp
  00003	6a ff		 push	 -1
  00005	68 00 00 00 00	 push	 __ehhandler$?iostream_category@std@@YAABVerror_category@1@XZ
  0000a	64 a1 00 00 00
	00		 mov	 eax, DWORD PTR fs:0
  00010	50		 push	 eax
  00011	a1 00 00 00 00	 mov	 eax, DWORD PTR ___security_cookie
  00016	33 c5		 xor	 eax, ebp
  00018	50		 push	 eax
  00019	8d 45 f4	 lea	 eax, DWORD PTR __$EHRec$[ebp]
  0001c	64 a3 00 00 00
	00		 mov	 DWORD PTR fs:0, eax

; 628  : 	return (_Immortalize<_Iostream_error_category>());

  00022	e8 00 00 00 00	 call	 ??$_Immortalize@V_Iostream_error_category@std@@@std@@YAAAV_Iostream_error_category@0@XZ ; std::_Immortalize<std::_Iostream_error_category>

; 629  : 	}

  00027	8b 4d f4	 mov	 ecx, DWORD PTR __$EHRec$[ebp]
  0002a	64 89 0d 00 00
	00 00		 mov	 DWORD PTR fs:0, ecx
  00031	59		 pop	 ecx
  00032	8b e5		 mov	 esp, ebp
  00034	5d		 pop	 ebp
  00035	c3		 ret	 0
_TEXT	ENDS
;	COMDAT text$x
text$x	SEGMENT
__ehhandler$?iostream_category@std@@YAABVerror_category@1@XZ:
  00000	8b 54 24 08	 mov	 edx, DWORD PTR [esp+8]
  00004	8d 42 0c	 lea	 eax, DWORD PTR [edx+12]
  00007	8b 4a fc	 mov	 ecx, DWORD PTR [edx-4]
  0000a	33 c8		 xor	 ecx, eax
  0000c	e8 00 00 00 00	 call	 @__security_check_cookie@4
  00011	b8 00 00 00 00	 mov	 eax, OFFSET __ehfuncinfo$?iostream_category@std@@YAABVerror_category@1@XZ
  00016	e9 00 00 00 00	 jmp	 ___CxxFrameHandler3
text$x	ENDS
?iostream_category@std@@YAABVerror_category@1@XZ ENDP	; std::iostream_category
; Function compile flags: /Odtp
; File c:\program files (x86)\microsoft visual studio\2017\community\vc\tools\msvc\14.16.27023\include\system_error
;	COMDAT ?make_error_code@std@@YA?AVerror_code@1@W4io_errc@1@@Z
_TEXT	SEGMENT
___$ReturnUdt$ = 8					; size = 4
__Errno$ = 12						; size = 4
?make_error_code@std@@YA?AVerror_code@1@W4io_errc@1@@Z PROC ; std::make_error_code, COMDAT

; 355  : 	{	// make an error_code

  00000	55		 push	 ebp
  00001	8b ec		 mov	 ebp, esp

; 356  : 	return (error_code((int)_Errno, iostream_category()));

  00003	e8 00 00 00 00	 call	 ?iostream_category@std@@YAABVerror_category@1@XZ ; std::iostream_category
  00008	50		 push	 eax
  00009	8b 45 0c	 mov	 eax, DWORD PTR __Errno$[ebp]
  0000c	50		 push	 eax
  0000d	8b 4d 08	 mov	 ecx, DWORD PTR ___$ReturnUdt$[ebp]
  00010	e8 00 00 00 00	 call	 ??0error_code@std@@QAE@HABVerror_category@1@@Z ; std::error_code::error_code
  00015	8b 45 08	 mov	 eax, DWORD PTR ___$ReturnUdt$[ebp]

; 357  : 	}

  00018	5d		 pop	 ebp
  00019	c3		 ret	 0
?make_error_code@std@@YA?AVerror_code@1@W4io_errc@1@@Z ENDP ; std::make_error_code
_TEXT	ENDS
; Function compile flags: /Odtp
; File c:\program files (x86)\microsoft visual studio\2017\community\vc\tools\msvc\14.16.27023\include\utility
;	COMDAT ??$_Min_value@I@std@@YAABIABI0@Z
_TEXT	SEGMENT
$T1 = -8						; size = 4
tv65 = -4						; size = 4
__Left$ = 8						; size = 4
__Right$ = 12						; size = 4
??$_Min_value@I@std@@YAABIABI0@Z PROC			; std::_Min_value<unsigned int>, COMDAT

; 23   : 	{	// return smaller of _Left and _Right

  00000	55		 push	 ebp
  00001	8b ec		 mov	 ebp, esp
  00003	83 ec 08	 sub	 esp, 8

; 24   : 	return (_Right < _Left ? _Right : _Left);

  00006	8b 45 0c	 mov	 eax, DWORD PTR __Right$[ebp]
  00009	8b 4d 08	 mov	 ecx, DWORD PTR __Left$[ebp]
  0000c	8b 10		 mov	 edx, DWORD PTR [eax]
  0000e	3b 11		 cmp	 edx, DWORD PTR [ecx]
  00010	73 08		 jae	 SHORT $LN3@Min_value
  00012	8b 45 0c	 mov	 eax, DWORD PTR __Right$[ebp]
  00015	89 45 fc	 mov	 DWORD PTR tv65[ebp], eax
  00018	eb 06		 jmp	 SHORT $LN4@Min_value
$LN3@Min_value:
  0001a	8b 4d 08	 mov	 ecx, DWORD PTR __Left$[ebp]
  0001d	89 4d fc	 mov	 DWORD PTR tv65[ebp], ecx
$LN4@Min_value:
  00020	8b 55 fc	 mov	 edx, DWORD PTR tv65[ebp]
  00023	89 55 f8	 mov	 DWORD PTR $T1[ebp], edx
  00026	8b 45 f8	 mov	 eax, DWORD PTR $T1[ebp]

; 25   : 	}

  00029	8b e5		 mov	 esp, ebp
  0002b	5d		 pop	 ebp
  0002c	c3		 ret	 0
??$_Min_value@I@std@@YAABIABI0@Z ENDP			; std::_Min_value<unsigned int>
_TEXT	ENDS
; Function compile flags: /Odtp
;	COMDAT ??_Gruntime_error@std@@UAEPAXI@Z
_TEXT	SEGMENT
_this$ = -4						; size = 4
___flags$ = 8						; size = 4
??_Gruntime_error@std@@UAEPAXI@Z PROC			; std::runtime_error::`scalar deleting destructor', COMDAT
; _this$ = ecx
  00000	55		 push	 ebp
  00001	8b ec		 mov	 ebp, esp
  00003	51		 push	 ecx
  00004	89 4d fc	 mov	 DWORD PTR _this$[ebp], ecx
  00007	8b 4d fc	 mov	 ecx, DWORD PTR _this$[ebp]
  0000a	e8 00 00 00 00	 call	 ??1runtime_error@std@@UAE@XZ
  0000f	8b 45 08	 mov	 eax, DWORD PTR ___flags$[ebp]
  00012	83 e0 01	 and	 eax, 1
  00015	74 0e		 je	 SHORT $LN2@scalar
  00017	6a 0c		 push	 12			; 0000000cH
  00019	8b 4d fc	 mov	 ecx, DWORD PTR _this$[ebp]
  0001c	51		 push	 ecx
  0001d	e8 00 00 00 00	 call	 ??3@YAXPAXI@Z		; operator delete
  00022	83 c4 08	 add	 esp, 8
$LN2@scalar:
  00025	8b 45 fc	 mov	 eax, DWORD PTR _this$[ebp]
  00028	8b e5		 mov	 esp, ebp
  0002a	5d		 pop	 ebp
  0002b	c2 04 00	 ret	 4
??_Gruntime_error@std@@UAEPAXI@Z ENDP			; std::runtime_error::`scalar deleting destructor'
_TEXT	ENDS
; Function compile flags: /Odtp
;	COMDAT ??0runtime_error@std@@QAE@ABV01@@Z
_TEXT	SEGMENT
_this$ = -4						; size = 4
___that$ = 8						; size = 4
??0runtime_error@std@@QAE@ABV01@@Z PROC			; std::runtime_error::runtime_error, COMDAT
; _this$ = ecx
  00000	55		 push	 ebp
  00001	8b ec		 mov	 ebp, esp
  00003	51		 push	 ecx
  00004	89 4d fc	 mov	 DWORD PTR _this$[ebp], ecx
  00007	8b 45 08	 mov	 eax, DWORD PTR ___that$[ebp]
  0000a	50		 push	 eax
  0000b	8b 4d fc	 mov	 ecx, DWORD PTR _this$[ebp]
  0000e	e8 00 00 00 00	 call	 ??0exception@std@@QAE@ABV01@@Z ; std::exception::exception
  00013	8b 4d fc	 mov	 ecx, DWORD PTR _this$[ebp]
  00016	c7 01 00 00 00
	00		 mov	 DWORD PTR [ecx], OFFSET ??_7runtime_error@std@@6B@
  0001c	8b 45 fc	 mov	 eax, DWORD PTR _this$[ebp]
  0001f	8b e5		 mov	 esp, ebp
  00021	5d		 pop	 ebp
  00022	c2 04 00	 ret	 4
??0runtime_error@std@@QAE@ABV01@@Z ENDP			; std::runtime_error::runtime_error
_TEXT	ENDS
; Function compile flags: /Odtp
;	COMDAT ??1runtime_error@std@@UAE@XZ
_TEXT	SEGMENT
_this$ = -4						; size = 4
??1runtime_error@std@@UAE@XZ PROC			; std::runtime_error::~runtime_error, COMDAT
; _this$ = ecx
  00000	55		 push	 ebp
  00001	8b ec		 mov	 ebp, esp
  00003	51		 push	 ecx
  00004	89 4d fc	 mov	 DWORD PTR _this$[ebp], ecx
  00007	8b 4d fc	 mov	 ecx, DWORD PTR _this$[ebp]
  0000a	e8 00 00 00 00	 call	 ??1exception@std@@UAE@XZ ; std::exception::~exception
  0000f	8b e5		 mov	 esp, ebp
  00011	5d		 pop	 ebp
  00012	c3		 ret	 0
??1runtime_error@std@@UAE@XZ ENDP			; std::runtime_error::~runtime_error
_TEXT	ENDS
; Function compile flags: /Odtp
; File c:\program files (x86)\microsoft visual studio\2017\community\vc\tools\msvc\14.16.27023\include\stdexcept
;	COMDAT ??0runtime_error@std@@QAE@ABV?$basic_string@DU?$char_traits@D@std@@V?$allocator@D@2@@1@@Z
_TEXT	SEGMENT
_this$ = -4						; size = 4
__Message$ = 8						; size = 4
??0runtime_error@std@@QAE@ABV?$basic_string@DU?$char_traits@D@std@@V?$allocator@D@2@@1@@Z PROC ; std::runtime_error::runtime_error, COMDAT
; _this$ = ecx

; 165  : 		{	// construct from message string

  00000	55		 push	 ebp
  00001	8b ec		 mov	 ebp, esp
  00003	51		 push	 ecx
  00004	89 4d fc	 mov	 DWORD PTR _this$[ebp], ecx

; 164  : 		: _Mybase(_Message.c_str())

  00007	8b 4d 08	 mov	 ecx, DWORD PTR __Message$[ebp]
  0000a	e8 00 00 00 00	 call	 ?c_str@?$basic_string@DU?$char_traits@D@std@@V?$allocator@D@2@@std@@QBEPBDXZ ; std::basic_string<char,std::char_traits<char>,std::allocator<char> >::c_str
  0000f	50		 push	 eax
  00010	8b 4d fc	 mov	 ecx, DWORD PTR _this$[ebp]
  00013	e8 00 00 00 00	 call	 ??0exception@std@@QAE@QBD@Z ; std::exception::exception

; 165  : 		{	// construct from message string

  00018	8b 45 fc	 mov	 eax, DWORD PTR _this$[ebp]
  0001b	c7 00 00 00 00
	00		 mov	 DWORD PTR [eax], OFFSET ??_7runtime_error@std@@6B@

; 166  : 		}

  00021	8b 45 fc	 mov	 eax, DWORD PTR _this$[ebp]
  00024	8b e5		 mov	 esp, ebp
  00026	5d		 pop	 ebp
  00027	c2 04 00	 ret	 4
??0runtime_error@std@@QAE@ABV?$basic_string@DU?$char_traits@D@std@@V?$allocator@D@2@@1@@Z ENDP ; std::runtime_error::runtime_error
_TEXT	ENDS
; Function compile flags: /Odtp
; File c:\program files (x86)\microsoft visual studio\2017\community\vc\tools\msvc\14.16.27023\include\xstring
;	COMDAT ?_Xlen@?$basic_string@DU?$char_traits@D@std@@V?$allocator@D@2@@std@@SAXXZ
_TEXT	SEGMENT
?_Xlen@?$basic_string@DU?$char_traits@D@std@@V?$allocator@D@2@@std@@SAXXZ PROC ; std::basic_string<char,std::char_traits<char>,std::allocator<char> >::_Xlen, COMDAT

; 4003 : 		{	// report a length_error

  00000	55		 push	 ebp
  00001	8b ec		 mov	 ebp, esp

; 4004 : 		_Xlength_error("string too long");

  00003	68 00 00 00 00	 push	 OFFSET ??_C@_0BA@JFNIOLAK@string?5too?5long@
  00008	e8 00 00 00 00	 call	 ?_Xlength_error@std@@YAXPBD@Z ; std::_Xlength_error
$LN2@Xlen:

; 4005 : 		}

  0000d	5d		 pop	 ebp
  0000e	c3		 ret	 0
?_Xlen@?$basic_string@DU?$char_traits@D@std@@V?$allocator@D@2@@std@@SAXXZ ENDP ; std::basic_string<char,std::char_traits<char>,std::allocator<char> >::_Xlen
_TEXT	ENDS
; Function compile flags: /Odtp
; File c:\program files (x86)\microsoft visual studio\2017\community\vc\tools\msvc\14.16.27023\include\xstring
;	COMDAT ?_Tidy_deallocate@?$basic_string@DU?$char_traits@D@std@@V?$allocator@D@2@@std@@QAEXXZ
_TEXT	SEGMENT
__Ptr$1 = -20						; size = 4
__Al$2 = -16						; size = 4
_this$ = -12						; size = 4
__My_data$ = -8						; size = 4
$T3 = -1						; size = 1
?_Tidy_deallocate@?$basic_string@DU?$char_traits@D@std@@V?$allocator@D@2@@std@@QAEXXZ PROC ; std::basic_string<char,std::char_traits<char>,std::allocator<char> >::_Tidy_deallocate, COMDAT
; _this$ = ecx

; 3984 : 		{	// initialize buffer, deallocating any storage

  00000	55		 push	 ebp
  00001	8b ec		 mov	 ebp, esp
  00003	83 ec 14	 sub	 esp, 20			; 00000014H
  00006	89 4d f4	 mov	 DWORD PTR _this$[ebp], ecx

; 3985 : 		this->_Orphan_all();

  00009	8b 4d f4	 mov	 ecx, DWORD PTR _this$[ebp]
  0000c	e8 00 00 00 00	 call	 ?_Orphan_all@?$_String_alloc@U?$_String_base_types@DV?$allocator@D@std@@@std@@@std@@QAEXXZ ; std::_String_alloc<std::_String_base_types<char,std::allocator<char> > >::_Orphan_all

; 3986 : 		auto& _My_data = this->_Get_data();

  00011	8b 4d f4	 mov	 ecx, DWORD PTR _this$[ebp]
  00014	e8 00 00 00 00	 call	 ?_Get_data@?$_String_alloc@U?$_String_base_types@DV?$allocator@D@std@@@std@@@std@@QAEAAV?$_String_val@U?$_Simple_types@D@std@@@2@XZ ; std::_String_alloc<std::_String_base_types<char,std::allocator<char> > >::_Get_data
  00019	89 45 f8	 mov	 DWORD PTR __My_data$[ebp], eax

; 3987 : 		if (_My_data._Large_string_engaged())

  0001c	8b 4d f8	 mov	 ecx, DWORD PTR __My_data$[ebp]
  0001f	e8 00 00 00 00	 call	 ?_Large_string_engaged@?$_String_val@U?$_Simple_types@D@std@@@std@@QBE_NXZ ; std::_String_val<std::_Simple_types<char> >::_Large_string_engaged
  00024	0f b6 c0	 movzx	 eax, al
  00027	85 c0		 test	 eax, eax
  00029	74 42		 je	 SHORT $LN2@Tidy_deall

; 3988 : 			{
; 3989 : 			const pointer _Ptr = _My_data._Bx._Ptr;

  0002b	8b 4d f8	 mov	 ecx, DWORD PTR __My_data$[ebp]
  0002e	8b 11		 mov	 edx, DWORD PTR [ecx]
  00030	89 55 ec	 mov	 DWORD PTR __Ptr$1[ebp], edx

; 3990 : 			auto& _Al = this->_Getal();

  00033	8b 4d f4	 mov	 ecx, DWORD PTR _this$[ebp]
  00036	e8 00 00 00 00	 call	 ?_Getal@?$_String_alloc@U?$_String_base_types@DV?$allocator@D@std@@@std@@@std@@QAEAAV?$allocator@D@2@XZ ; std::_String_alloc<std::_String_base_types<char,std::allocator<char> > >::_Getal
  0003b	89 45 f0	 mov	 DWORD PTR __Al$2[ebp], eax

; 3991 : 			_Alty_traits::destroy(_Al, _STD addressof(_My_data._Bx._Ptr));

  0003e	8b 45 f8	 mov	 eax, DWORD PTR __My_data$[ebp]
  00041	50		 push	 eax
  00042	e8 00 00 00 00	 call	 ??$addressof@PAD@std@@YAPAPADAAPAD@Z ; std::addressof<char *>
  00047	83 c4 04	 add	 esp, 4
  0004a	50		 push	 eax
  0004b	8b 4d f0	 mov	 ecx, DWORD PTR __Al$2[ebp]
  0004e	51		 push	 ecx
  0004f	e8 00 00 00 00	 call	 ??$destroy@PAD@?$_Default_allocator_traits@V?$allocator@D@std@@@std@@SAXAAV?$allocator@D@1@QAPAD@Z ; std::_Default_allocator_traits<std::allocator<char> >::destroy<char *>
  00054	83 c4 08	 add	 esp, 8

; 3992 : 			_Al.deallocate(_Ptr, _My_data._Myres + 1);

  00057	8b 55 f8	 mov	 edx, DWORD PTR __My_data$[ebp]
  0005a	8b 42 14	 mov	 eax, DWORD PTR [edx+20]
  0005d	83 c0 01	 add	 eax, 1
  00060	50		 push	 eax
  00061	8b 4d ec	 mov	 ecx, DWORD PTR __Ptr$1[ebp]
  00064	51		 push	 ecx
  00065	8b 4d f0	 mov	 ecx, DWORD PTR __Al$2[ebp]
  00068	e8 00 00 00 00	 call	 ?deallocate@?$allocator@D@std@@QAEXQADI@Z ; std::allocator<char>::deallocate
$LN2@Tidy_deall:

; 3993 : 			}
; 3994 : 
; 3995 : 		_My_data._Mysize = 0;

  0006d	8b 55 f8	 mov	 edx, DWORD PTR __My_data$[ebp]
  00070	c7 42 10 00 00
	00 00		 mov	 DWORD PTR [edx+16], 0

; 3996 : 		_My_data._Myres = this->_BUF_SIZE - 1;

  00077	8b 45 f8	 mov	 eax, DWORD PTR __My_data$[ebp]
  0007a	c7 40 14 0f 00
	00 00		 mov	 DWORD PTR [eax+20], 15	; 0000000fH

; 3997 : 		// the _Traits::assign is last so the codegen doesn't think the char
; 3998 : 		// write can alias this
; 3999 : 		_Traits::assign(_My_data._Bx._Buf[0], _Elem());

  00081	c6 45 ff 00	 mov	 BYTE PTR $T3[ebp], 0
  00085	8d 4d ff	 lea	 ecx, DWORD PTR $T3[ebp]
  00088	51		 push	 ecx
  00089	ba 01 00 00 00	 mov	 edx, 1
  0008e	6b c2 00	 imul	 eax, edx, 0
  00091	03 45 f8	 add	 eax, DWORD PTR __My_data$[ebp]
  00094	50		 push	 eax
  00095	e8 00 00 00 00	 call	 ?assign@?$char_traits@D@std@@SAXAADABD@Z ; std::char_traits<char>::assign
  0009a	83 c4 08	 add	 esp, 8

; 4000 : 		}

  0009d	8b e5		 mov	 esp, ebp
  0009f	5d		 pop	 ebp
  000a0	c3		 ret	 0
?_Tidy_deallocate@?$basic_string@DU?$char_traits@D@std@@V?$allocator@D@2@@std@@QAEXXZ ENDP ; std::basic_string<char,std::char_traits<char>,std::allocator<char> >::_Tidy_deallocate
_TEXT	ENDS
; Function compile flags: /Odtp
; File c:\program files (x86)\microsoft visual studio\2017\community\vc\tools\msvc\14.16.27023\include\xstring
;	COMDAT ?_Tidy_init@?$basic_string@DU?$char_traits@D@std@@V?$allocator@D@2@@std@@QAEXXZ
_TEXT	SEGMENT
_this$ = -12						; size = 4
__My_data$ = -8						; size = 4
$T1 = -1						; size = 1
?_Tidy_init@?$basic_string@DU?$char_traits@D@std@@V?$allocator@D@2@@std@@QAEXXZ PROC ; std::basic_string<char,std::char_traits<char>,std::allocator<char> >::_Tidy_init, COMDAT
; _this$ = ecx

; 3974 : 		{	// initialize basic_string data members

  00000	55		 push	 ebp
  00001	8b ec		 mov	 ebp, esp
  00003	83 ec 0c	 sub	 esp, 12			; 0000000cH
  00006	89 4d f4	 mov	 DWORD PTR _this$[ebp], ecx

; 3975 : 		auto& _My_data = this->_Get_data();

  00009	8b 4d f4	 mov	 ecx, DWORD PTR _this$[ebp]
  0000c	e8 00 00 00 00	 call	 ?_Get_data@?$_String_alloc@U?$_String_base_types@DV?$allocator@D@std@@@std@@@std@@QAEAAV?$_String_val@U?$_Simple_types@D@std@@@2@XZ ; std::_String_alloc<std::_String_base_types<char,std::allocator<char> > >::_Get_data
  00011	89 45 f8	 mov	 DWORD PTR __My_data$[ebp], eax

; 3976 : 		_My_data._Mysize = 0;

  00014	8b 45 f8	 mov	 eax, DWORD PTR __My_data$[ebp]
  00017	c7 40 10 00 00
	00 00		 mov	 DWORD PTR [eax+16], 0

; 3977 : 		_My_data._Myres = this->_BUF_SIZE - 1;

  0001e	8b 4d f8	 mov	 ecx, DWORD PTR __My_data$[ebp]
  00021	c7 41 14 0f 00
	00 00		 mov	 DWORD PTR [ecx+20], 15	; 0000000fH

; 3978 : 		// the _Traits::assign is last so the codegen doesn't think the char
; 3979 : 		// write can alias this
; 3980 : 		_Traits::assign(_My_data._Bx._Buf[0], _Elem());

  00028	c6 45 ff 00	 mov	 BYTE PTR $T1[ebp], 0
  0002c	8d 55 ff	 lea	 edx, DWORD PTR $T1[ebp]
  0002f	52		 push	 edx
  00030	b8 01 00 00 00	 mov	 eax, 1
  00035	6b c8 00	 imul	 ecx, eax, 0
  00038	03 4d f8	 add	 ecx, DWORD PTR __My_data$[ebp]
  0003b	51		 push	 ecx
  0003c	e8 00 00 00 00	 call	 ?assign@?$char_traits@D@std@@SAXAADABD@Z ; std::char_traits<char>::assign
  00041	83 c4 08	 add	 esp, 8

; 3981 : 		}

  00044	8b e5		 mov	 esp, ebp
  00046	5d		 pop	 ebp
  00047	c3		 ret	 0
?_Tidy_init@?$basic_string@DU?$char_traits@D@std@@V?$allocator@D@2@@std@@QAEXXZ ENDP ; std::basic_string<char,std::char_traits<char>,std::allocator<char> >::_Tidy_init
_TEXT	ENDS
; Function compile flags: /Odtp
; File c:\program files (x86)\microsoft visual studio\2017\community\vc\tools\msvc\14.16.27023\include\xstring
;	COMDAT ?_Calculate_growth@?$basic_string@DU?$char_traits@D@std@@V?$allocator@D@2@@std@@QBEII@Z
_TEXT	SEGMENT
$T1 = -24						; size = 4
__My_data$ = -20					; size = 4
__Masked$ = -16						; size = 4
_this$ = -12						; size = 4
__Old$ = -8						; size = 4
__Max$ = -4						; size = 4
__Requested$ = 8					; size = 4
?_Calculate_growth@?$basic_string@DU?$char_traits@D@std@@V?$allocator@D@2@@std@@QBEII@Z PROC ; std::basic_string<char,std::char_traits<char>,std::allocator<char> >::_Calculate_growth, COMDAT
; _this$ = ecx

; 3866 : 		{	// determines the next array size to allocate

  00000	55		 push	 ebp
  00001	8b ec		 mov	 ebp, esp
  00003	83 ec 18	 sub	 esp, 24			; 00000018H
  00006	89 4d f4	 mov	 DWORD PTR _this$[ebp], ecx

; 3867 : 		const size_type _Max = max_size();

  00009	8b 4d f4	 mov	 ecx, DWORD PTR _this$[ebp]
  0000c	e8 00 00 00 00	 call	 ?max_size@?$basic_string@DU?$char_traits@D@std@@V?$allocator@D@2@@std@@QBEIXZ ; std::basic_string<char,std::char_traits<char>,std::allocator<char> >::max_size
  00011	89 45 fc	 mov	 DWORD PTR __Max$[ebp], eax

; 3868 : 		auto& _My_data = this->_Get_data();

  00014	8b 4d f4	 mov	 ecx, DWORD PTR _this$[ebp]
  00017	e8 00 00 00 00	 call	 ?_Get_data@?$_String_alloc@U?$_String_base_types@DV?$allocator@D@std@@@std@@@std@@QBEABV?$_String_val@U?$_Simple_types@D@std@@@2@XZ ; std::_String_alloc<std::_String_base_types<char,std::allocator<char> > >::_Get_data
  0001c	89 45 ec	 mov	 DWORD PTR __My_data$[ebp], eax

; 3869 : 		const size_type _Masked = _Requested | this->_ALLOC_MASK;

  0001f	8b 45 08	 mov	 eax, DWORD PTR __Requested$[ebp]
  00022	83 c8 0f	 or	 eax, 15			; 0000000fH
  00025	89 45 f0	 mov	 DWORD PTR __Masked$[ebp], eax

; 3870 : 		if (_Masked > _Max)

  00028	8b 4d f0	 mov	 ecx, DWORD PTR __Masked$[ebp]
  0002b	3b 4d fc	 cmp	 ecx, DWORD PTR __Max$[ebp]
  0002e	76 05		 jbe	 SHORT $LN2@Calculate_

; 3871 : 			{	// the mask overflows, settle for max_size()
; 3872 : 			return (_Max);

  00030	8b 45 fc	 mov	 eax, DWORD PTR __Max$[ebp]
  00033	eb 3a		 jmp	 SHORT $LN1@Calculate_
$LN2@Calculate_:

; 3873 : 			}
; 3874 : 
; 3875 : 		const size_type _Old = _My_data._Myres;

  00035	8b 55 ec	 mov	 edx, DWORD PTR __My_data$[ebp]
  00038	8b 42 14	 mov	 eax, DWORD PTR [edx+20]
  0003b	89 45 f8	 mov	 DWORD PTR __Old$[ebp], eax

; 3876 : 		if (_Old > _Max - _Old / 2)

  0003e	8b 4d f8	 mov	 ecx, DWORD PTR __Old$[ebp]
  00041	d1 e9		 shr	 ecx, 1
  00043	8b 55 fc	 mov	 edx, DWORD PTR __Max$[ebp]
  00046	2b d1		 sub	 edx, ecx
  00048	39 55 f8	 cmp	 DWORD PTR __Old$[ebp], edx
  0004b	76 05		 jbe	 SHORT $LN3@Calculate_

; 3877 : 			{	// similarly, geometric overflows
; 3878 : 			return (_Max);

  0004d	8b 45 fc	 mov	 eax, DWORD PTR __Max$[ebp]
  00050	eb 1d		 jmp	 SHORT $LN1@Calculate_
$LN3@Calculate_:

; 3879 : 			}
; 3880 : 
; 3881 : 		return (_Max_value(_Masked, _Old + _Old / 2));

  00052	8b 45 f8	 mov	 eax, DWORD PTR __Old$[ebp]
  00055	d1 e8		 shr	 eax, 1
  00057	03 45 f8	 add	 eax, DWORD PTR __Old$[ebp]
  0005a	89 45 e8	 mov	 DWORD PTR $T1[ebp], eax
  0005d	8d 4d e8	 lea	 ecx, DWORD PTR $T1[ebp]
  00060	51		 push	 ecx
  00061	8d 55 f0	 lea	 edx, DWORD PTR __Masked$[ebp]
  00064	52		 push	 edx
  00065	e8 00 00 00 00	 call	 ??$_Max_value@I@std@@YAABIABI0@Z ; std::_Max_value<unsigned int>
  0006a	83 c4 08	 add	 esp, 8
  0006d	8b 00		 mov	 eax, DWORD PTR [eax]
$LN1@Calculate_:

; 3882 : 		}

  0006f	8b e5		 mov	 esp, ebp
  00071	5d		 pop	 ebp
  00072	c2 04 00	 ret	 4
?_Calculate_growth@?$basic_string@DU?$char_traits@D@std@@V?$allocator@D@2@@std@@QBEII@Z ENDP ; std::basic_string<char,std::char_traits<char>,std::allocator<char> >::_Calculate_growth
_TEXT	ENDS
; Function compile flags: /Odtp
; File c:\program files (x86)\microsoft visual studio\2017\community\vc\tools\msvc\14.16.27023\include\xstring
;	COMDAT ?empty@?$basic_string@DU?$char_traits@D@std@@V?$allocator@D@2@@std@@QBE_NXZ
_TEXT	SEGMENT
_this$ = -8						; size = 4
tv67 = -4						; size = 4
?empty@?$basic_string@DU?$char_traits@D@std@@V?$allocator@D@2@@std@@QBE_NXZ PROC ; std::basic_string<char,std::char_traits<char>,std::allocator<char> >::empty, COMDAT
; _this$ = ecx

; 3370 : 		{	// test if sequence is empty

  00000	55		 push	 ebp
  00001	8b ec		 mov	 ebp, esp
  00003	83 ec 08	 sub	 esp, 8
  00006	89 4d f8	 mov	 DWORD PTR _this$[ebp], ecx

; 3371 : 		return (size() == 0);

  00009	8b 4d f8	 mov	 ecx, DWORD PTR _this$[ebp]
  0000c	e8 00 00 00 00	 call	 ?size@?$basic_string@DU?$char_traits@D@std@@V?$allocator@D@2@@std@@QBEIXZ ; std::basic_string<char,std::char_traits<char>,std::allocator<char> >::size
  00011	85 c0		 test	 eax, eax
  00013	75 09		 jne	 SHORT $LN3@empty
  00015	c7 45 fc 01 00
	00 00		 mov	 DWORD PTR tv67[ebp], 1
  0001c	eb 07		 jmp	 SHORT $LN4@empty
$LN3@empty:
  0001e	c7 45 fc 00 00
	00 00		 mov	 DWORD PTR tv67[ebp], 0
$LN4@empty:
  00025	8a 45 fc	 mov	 al, BYTE PTR tv67[ebp]

; 3372 : 		}

  00028	8b e5		 mov	 esp, ebp
  0002a	5d		 pop	 ebp
  0002b	c3		 ret	 0
?empty@?$basic_string@DU?$char_traits@D@std@@V?$allocator@D@2@@std@@QBE_NXZ ENDP ; std::basic_string<char,std::char_traits<char>,std::allocator<char> >::empty
_TEXT	ENDS
; Function compile flags: /Odtp
; File c:\program files (x86)\microsoft visual studio\2017\community\vc\tools\msvc\14.16.27023\include\xstring
;	COMDAT ?max_size@?$basic_string@DU?$char_traits@D@std@@V?$allocator@D@2@@std@@QBEIXZ
_TEXT	SEGMENT
$T1 = -24						; size = 4
$T2 = -20						; size = 4
__Storage_max$ = -16					; size = 4
__Alloc_max$ = -12					; size = 4
$T3 = -8						; size = 4
_this$ = -4						; size = 4
?max_size@?$basic_string@DU?$char_traits@D@std@@V?$allocator@D@2@@std@@QBEIXZ PROC ; std::basic_string<char,std::char_traits<char>,std::allocator<char> >::max_size, COMDAT
; _this$ = ecx

; 3306 : 		{	// return maximum possible length of sequence

  00000	55		 push	 ebp
  00001	8b ec		 mov	 ebp, esp
  00003	83 ec 18	 sub	 esp, 24			; 00000018H
  00006	89 4d fc	 mov	 DWORD PTR _this$[ebp], ecx

; 3307 : 		const size_type _Alloc_max = _Alty_traits::max_size(this->_Getal());

  00009	8b 4d fc	 mov	 ecx, DWORD PTR _this$[ebp]
  0000c	e8 00 00 00 00	 call	 ?_Getal@?$_String_alloc@U?$_String_base_types@DV?$allocator@D@std@@@std@@@std@@QBEABV?$allocator@D@2@XZ ; std::_String_alloc<std::_String_base_types<char,std::allocator<char> > >::_Getal
  00011	50		 push	 eax
  00012	e8 00 00 00 00	 call	 ?max_size@?$_Default_allocator_traits@V?$allocator@D@std@@@std@@SAIABV?$allocator@D@2@@Z ; std::_Default_allocator_traits<std::allocator<char> >::max_size
  00017	83 c4 04	 add	 esp, 4
  0001a	89 45 f4	 mov	 DWORD PTR __Alloc_max$[ebp], eax

; 3308 : 		const size_type _Storage_max = // can always store small string
; 3309 : 			_Max_value(_Alloc_max, static_cast<size_type>(this->_BUF_SIZE));

  0001d	c7 45 f8 10 00
	00 00		 mov	 DWORD PTR $T3[ebp], 16	; 00000010H
  00024	8d 45 f8	 lea	 eax, DWORD PTR $T3[ebp]
  00027	50		 push	 eax
  00028	8d 4d f4	 lea	 ecx, DWORD PTR __Alloc_max$[ebp]
  0002b	51		 push	 ecx
  0002c	e8 00 00 00 00	 call	 ??$_Max_value@I@std@@YAABIABI0@Z ; std::_Max_value<unsigned int>
  00031	83 c4 08	 add	 esp, 8
  00034	8b 10		 mov	 edx, DWORD PTR [eax]
  00036	89 55 f0	 mov	 DWORD PTR __Storage_max$[ebp], edx

; 3310 : 		return (_Min_value(

  00039	8b 45 f0	 mov	 eax, DWORD PTR __Storage_max$[ebp]
  0003c	83 e8 01	 sub	 eax, 1
  0003f	89 45 ec	 mov	 DWORD PTR $T2[ebp], eax
  00042	e8 00 00 00 00	 call	 ?max@?$numeric_limits@H@std@@SAHXZ ; std::numeric_limits<int>::max
  00047	89 45 e8	 mov	 DWORD PTR $T1[ebp], eax
  0004a	8d 4d ec	 lea	 ecx, DWORD PTR $T2[ebp]
  0004d	51		 push	 ecx
  0004e	8d 55 e8	 lea	 edx, DWORD PTR $T1[ebp]
  00051	52		 push	 edx
  00052	e8 00 00 00 00	 call	 ??$_Min_value@I@std@@YAABIABI0@Z ; std::_Min_value<unsigned int>
  00057	83 c4 08	 add	 esp, 8
  0005a	8b 00		 mov	 eax, DWORD PTR [eax]

; 3311 : 			static_cast<size_type>((numeric_limits<difference_type>::max)()),
; 3312 : 			_Storage_max - 1 // -1 is for null terminator and/or npos
; 3313 : 			));
; 3314 : 
; 3315 : 		}

  0005c	8b e5		 mov	 esp, ebp
  0005e	5d		 pop	 ebp
  0005f	c3		 ret	 0
?max_size@?$basic_string@DU?$char_traits@D@std@@V?$allocator@D@2@@std@@QBEIXZ ENDP ; std::basic_string<char,std::char_traits<char>,std::allocator<char> >::max_size
_TEXT	ENDS
; Function compile flags: /Odtp
; File c:\program files (x86)\microsoft visual studio\2017\community\vc\tools\msvc\14.16.27023\include\xstring
;	COMDAT ?size@?$basic_string@DU?$char_traits@D@std@@V?$allocator@D@2@@std@@QBEIXZ
_TEXT	SEGMENT
_this$ = -4						; size = 4
?size@?$basic_string@DU?$char_traits@D@std@@V?$allocator@D@2@@std@@QBEIXZ PROC ; std::basic_string<char,std::char_traits<char>,std::allocator<char> >::size, COMDAT
; _this$ = ecx

; 3301 : 		{	// return length of sequence

  00000	55		 push	 ebp
  00001	8b ec		 mov	 ebp, esp
  00003	51		 push	 ecx
  00004	89 4d fc	 mov	 DWORD PTR _this$[ebp], ecx

; 3302 : 		return (this->_Get_data()._Mysize);

  00007	8b 4d fc	 mov	 ecx, DWORD PTR _this$[ebp]
  0000a	e8 00 00 00 00	 call	 ?_Get_data@?$_String_alloc@U?$_String_base_types@DV?$allocator@D@std@@@std@@@std@@QBEABV?$_String_val@U?$_Simple_types@D@std@@@2@XZ ; std::_String_alloc<std::_String_base_types<char,std::allocator<char> > >::_Get_data
  0000f	8b 40 10	 mov	 eax, DWORD PTR [eax+16]

; 3303 : 		}

  00012	8b e5		 mov	 esp, ebp
  00014	5d		 pop	 ebp
  00015	c3		 ret	 0
?size@?$basic_string@DU?$char_traits@D@std@@V?$allocator@D@2@@std@@QBEIXZ ENDP ; std::basic_string<char,std::char_traits<char>,std::allocator<char> >::size
_TEXT	ENDS
; Function compile flags: /Odtp
; File c:\program files (x86)\microsoft visual studio\2017\community\vc\tools\msvc\14.16.27023\include\xstring
;	COMDAT ?c_str@?$basic_string@DU?$char_traits@D@std@@V?$allocator@D@2@@std@@QBEPBDXZ
_TEXT	SEGMENT
_this$ = -16						; size = 4
__$EHRec$ = -12						; size = 12
?c_str@?$basic_string@DU?$char_traits@D@std@@V?$allocator@D@2@@std@@QBEPBDXZ PROC ; std::basic_string<char,std::char_traits<char>,std::allocator<char> >::c_str, COMDAT
; _this$ = ecx

; 3279 : 		{	// return pointer to null-terminated immutable array

  00000	55		 push	 ebp
  00001	8b ec		 mov	 ebp, esp
  00003	6a ff		 push	 -1
  00005	68 00 00 00 00	 push	 __ehhandler$?c_str@?$basic_string@DU?$char_traits@D@std@@V?$allocator@D@2@@std@@QBEPBDXZ
  0000a	64 a1 00 00 00
	00		 mov	 eax, DWORD PTR fs:0
  00010	50		 push	 eax
  00011	51		 push	 ecx
  00012	a1 00 00 00 00	 mov	 eax, DWORD PTR ___security_cookie
  00017	33 c5		 xor	 eax, ebp
  00019	50		 push	 eax
  0001a	8d 45 f4	 lea	 eax, DWORD PTR __$EHRec$[ebp]
  0001d	64 a3 00 00 00
	00		 mov	 DWORD PTR fs:0, eax
  00023	89 4d f0	 mov	 DWORD PTR _this$[ebp], ecx

; 3280 : 		return (this->_Get_data()._Myptr());

  00026	8b 4d f0	 mov	 ecx, DWORD PTR _this$[ebp]
  00029	e8 00 00 00 00	 call	 ?_Get_data@?$_String_alloc@U?$_String_base_types@DV?$allocator@D@std@@@std@@@std@@QBEABV?$_String_val@U?$_Simple_types@D@std@@@2@XZ ; std::_String_alloc<std::_String_base_types<char,std::allocator<char> > >::_Get_data
  0002e	8b c8		 mov	 ecx, eax
  00030	e8 00 00 00 00	 call	 ?_Myptr@?$_String_val@U?$_Simple_types@D@std@@@std@@QBEPBDXZ ; std::_String_val<std::_Simple_types<char> >::_Myptr

; 3281 : 		}

  00035	8b 4d f4	 mov	 ecx, DWORD PTR __$EHRec$[ebp]
  00038	64 89 0d 00 00
	00 00		 mov	 DWORD PTR fs:0, ecx
  0003f	59		 pop	 ecx
  00040	8b e5		 mov	 esp, ebp
  00042	5d		 pop	 ebp
  00043	c3		 ret	 0
_TEXT	ENDS
;	COMDAT text$x
text$x	SEGMENT
__ehhandler$?c_str@?$basic_string@DU?$char_traits@D@std@@V?$allocator@D@2@@std@@QBEPBDXZ:
  00000	8b 54 24 08	 mov	 edx, DWORD PTR [esp+8]
  00004	8d 42 0c	 lea	 eax, DWORD PTR [edx+12]
  00007	8b 4a f8	 mov	 ecx, DWORD PTR [edx-8]
  0000a	33 c8		 xor	 ecx, eax
  0000c	e8 00 00 00 00	 call	 @__security_check_cookie@4
  00011	b8 00 00 00 00	 mov	 eax, OFFSET __ehfuncinfo$?c_str@?$basic_string@DU?$char_traits@D@std@@V?$allocator@D@2@@std@@QBEPBDXZ
  00016	e9 00 00 00 00	 jmp	 ___CxxFrameHandler3
text$x	ENDS
?c_str@?$basic_string@DU?$char_traits@D@std@@V?$allocator@D@2@@std@@QBEPBDXZ ENDP ; std::basic_string<char,std::char_traits<char>,std::allocator<char> >::c_str
; Function compile flags: /Odtp
; File c:\program files (x86)\microsoft visual studio\2017\community\vc\tools\msvc\14.16.27023\include\xstring
;	COMDAT ?assign@?$basic_string@DU?$char_traits@D@std@@V?$allocator@D@2@@std@@QAEAAV12@QBD@Z
_TEXT	SEGMENT
_this$ = -4						; size = 4
__Ptr$ = 8						; size = 4
?assign@?$basic_string@DU?$char_traits@D@std@@V?$allocator@D@2@@std@@QAEAAV12@QBD@Z PROC ; std::basic_string<char,std::char_traits<char>,std::allocator<char> >::assign, COMDAT
; _this$ = ecx

; 2675 : 		{	// assign [_Ptr, <null>)

  00000	55		 push	 ebp
  00001	8b ec		 mov	 ebp, esp
  00003	51		 push	 ecx
  00004	89 4d fc	 mov	 DWORD PTR _this$[ebp], ecx

; 2676 : 		return (assign(_Ptr, _Convert_size<size_type>(_Traits::length(_Ptr))));

  00007	8b 45 08	 mov	 eax, DWORD PTR __Ptr$[ebp]
  0000a	50		 push	 eax
  0000b	e8 00 00 00 00	 call	 ?length@?$char_traits@D@std@@SAIQBD@Z ; std::char_traits<char>::length
  00010	83 c4 04	 add	 esp, 4
  00013	50		 push	 eax
  00014	e8 00 00 00 00	 call	 ??$_Convert_size@I@std@@YAII@Z ; std::_Convert_size<unsigned int>
  00019	83 c4 04	 add	 esp, 4
  0001c	50		 push	 eax
  0001d	8b 4d 08	 mov	 ecx, DWORD PTR __Ptr$[ebp]
  00020	51		 push	 ecx
  00021	8b 4d fc	 mov	 ecx, DWORD PTR _this$[ebp]
  00024	e8 00 00 00 00	 call	 ?assign@?$basic_string@DU?$char_traits@D@std@@V?$allocator@D@2@@std@@QAEAAV12@QBDI@Z ; std::basic_string<char,std::char_traits<char>,std::allocator<char> >::assign

; 2677 : 		}

  00029	8b e5		 mov	 esp, ebp
  0002b	5d		 pop	 ebp
  0002c	c2 04 00	 ret	 4
?assign@?$basic_string@DU?$char_traits@D@std@@V?$allocator@D@2@@std@@QAEAAV12@QBD@Z ENDP ; std::basic_string<char,std::char_traits<char>,std::allocator<char> >::assign
_TEXT	ENDS
; Function compile flags: /Odtp
; File c:\program files (x86)\microsoft visual studio\2017\community\vc\tools\msvc\14.16.27023\include\xstring
;	COMDAT ?assign@?$basic_string@DU?$char_traits@D@std@@V?$allocator@D@2@@std@@QAEAAV12@QBDI@Z
_TEXT	SEGMENT
__Old_ptr$1 = -16					; size = 4
_this$ = -12						; size = 4
__My_data$ = -8						; size = 4
$T2 = -2						; size = 1
$T3 = -1						; size = 1
__Ptr$ = 8						; size = 4
__Count$ = 12						; size = 4
?assign@?$basic_string@DU?$char_traits@D@std@@V?$allocator@D@2@@std@@QAEAAV12@QBDI@Z PROC ; std::basic_string<char,std::char_traits<char>,std::allocator<char> >::assign, COMDAT
; _this$ = ecx

; 2657 : 		{	// assign [_Ptr, _Ptr + _Count)

  00000	55		 push	 ebp
  00001	8b ec		 mov	 ebp, esp
  00003	83 ec 10	 sub	 esp, 16			; 00000010H
  00006	89 4d f4	 mov	 DWORD PTR _this$[ebp], ecx

; 2658 : 		auto& _My_data = this->_Get_data();

  00009	8b 4d f4	 mov	 ecx, DWORD PTR _this$[ebp]
  0000c	e8 00 00 00 00	 call	 ?_Get_data@?$_String_alloc@U?$_String_base_types@DV?$allocator@D@std@@@std@@@std@@QAEAAV?$_String_val@U?$_Simple_types@D@std@@@2@XZ ; std::_String_alloc<std::_String_base_types<char,std::allocator<char> > >::_Get_data
  00011	89 45 f8	 mov	 DWORD PTR __My_data$[ebp], eax

; 2659 : 		if (_Count <= _My_data._Myres)

  00014	8b 45 f8	 mov	 eax, DWORD PTR __My_data$[ebp]
  00017	8b 4d 0c	 mov	 ecx, DWORD PTR __Count$[ebp]
  0001a	3b 48 14	 cmp	 ecx, DWORD PTR [eax+20]
  0001d	77 44		 ja	 SHORT $LN2@assign

; 2660 : 			{
; 2661 : 			_Elem * const _Old_ptr = _My_data._Myptr();

  0001f	8b 4d f8	 mov	 ecx, DWORD PTR __My_data$[ebp]
  00022	e8 00 00 00 00	 call	 ?_Myptr@?$_String_val@U?$_Simple_types@D@std@@@std@@QAEPADXZ ; std::_String_val<std::_Simple_types<char> >::_Myptr
  00027	89 45 f0	 mov	 DWORD PTR __Old_ptr$1[ebp], eax

; 2662 : 			_My_data._Mysize = _Count;

  0002a	8b 55 f8	 mov	 edx, DWORD PTR __My_data$[ebp]
  0002d	8b 45 0c	 mov	 eax, DWORD PTR __Count$[ebp]
  00030	89 42 10	 mov	 DWORD PTR [edx+16], eax

; 2663 : 			_Traits::move(_Old_ptr, _Ptr, _Count);

  00033	8b 4d 0c	 mov	 ecx, DWORD PTR __Count$[ebp]
  00036	51		 push	 ecx
  00037	8b 55 08	 mov	 edx, DWORD PTR __Ptr$[ebp]
  0003a	52		 push	 edx
  0003b	8b 45 f0	 mov	 eax, DWORD PTR __Old_ptr$1[ebp]
  0003e	50		 push	 eax
  0003f	e8 00 00 00 00	 call	 ?move@?$char_traits@D@std@@SAPADQADQBDI@Z ; std::char_traits<char>::move
  00044	83 c4 0c	 add	 esp, 12			; 0000000cH

; 2664 : 			_Traits::assign(_Old_ptr[_Count], _Elem());

  00047	c6 45 ff 00	 mov	 BYTE PTR $T3[ebp], 0
  0004b	8d 4d ff	 lea	 ecx, DWORD PTR $T3[ebp]
  0004e	51		 push	 ecx
  0004f	8b 55 f0	 mov	 edx, DWORD PTR __Old_ptr$1[ebp]
  00052	03 55 0c	 add	 edx, DWORD PTR __Count$[ebp]
  00055	52		 push	 edx
  00056	e8 00 00 00 00	 call	 ?assign@?$char_traits@D@std@@SAXAADABD@Z ; std::char_traits<char>::assign
  0005b	83 c4 08	 add	 esp, 8

; 2665 : 			return (*this);

  0005e	8b 45 f4	 mov	 eax, DWORD PTR _this$[ebp]
  00061	eb 1a		 jmp	 SHORT $LN1@assign
$LN2@assign:

; 2666 : 			}
; 2667 : 
; 2668 : 		return (_Reallocate_for(_Count, [](_Elem * const _New_ptr, const size_type _Count, const _Elem * const _Ptr) {

  00063	33 c0		 xor	 eax, eax
  00065	88 45 fe	 mov	 BYTE PTR $T2[ebp], al
  00068	8b 4d 08	 mov	 ecx, DWORD PTR __Ptr$[ebp]
  0006b	51		 push	 ecx
  0006c	0f b6 55 fe	 movzx	 edx, BYTE PTR $T2[ebp]
  00070	52		 push	 edx
  00071	8b 45 0c	 mov	 eax, DWORD PTR __Count$[ebp]
  00074	50		 push	 eax
  00075	8b 4d f4	 mov	 ecx, DWORD PTR _this$[ebp]
  00078	e8 00 00 00 00	 call	 ??$_Reallocate_for@V<lambda_9366063389c5f42a00a5088cf24e69de>@@PBD@?$basic_string@DU?$char_traits@D@std@@V?$allocator@D@2@@std@@QAEAAV01@IV<lambda_9366063389c5f42a00a5088cf24e69de>@@PBD@Z ; std::basic_string<char,std::char_traits<char>,std::allocator<char> >::_Reallocate_for<<lambda_9366063389c5f42a00a5088cf24e69de>,char const *>
$LN1@assign:

; 2669 : 			_Traits::copy(_New_ptr, _Ptr, _Count);
; 2670 : 			_Traits::assign(_New_ptr[_Count], _Elem());
; 2671 : 			}, _Ptr));
; 2672 : 		}

  0007d	8b e5		 mov	 esp, ebp
  0007f	5d		 pop	 ebp
  00080	c2 08 00	 ret	 8
?assign@?$basic_string@DU?$char_traits@D@std@@V?$allocator@D@2@@std@@QAEAAV12@QBDI@Z ENDP ; std::basic_string<char,std::char_traits<char>,std::allocator<char> >::assign
_TEXT	ENDS
; Function compile flags: /Odtp
; File c:\program files (x86)\microsoft visual studio\2017\community\vc\tools\msvc\14.16.27023\include\xstring
;	COMDAT ?append@?$basic_string@DU?$char_traits@D@std@@V?$allocator@D@2@@std@@QAEAAV12@QBD@Z
_TEXT	SEGMENT
_this$ = -4						; size = 4
__Ptr$ = 8						; size = 4
?append@?$basic_string@DU?$char_traits@D@std@@V?$allocator@D@2@@std@@QAEAAV12@QBD@Z PROC ; std::basic_string<char,std::char_traits<char>,std::allocator<char> >::append, COMDAT
; _this$ = ecx

; 2591 : 		{	// append [_Ptr, <null>)

  00000	55		 push	 ebp
  00001	8b ec		 mov	 ebp, esp
  00003	51		 push	 ecx
  00004	89 4d fc	 mov	 DWORD PTR _this$[ebp], ecx

; 2592 : 		return (append(_Ptr, _Convert_size<size_type>(_Traits::length(_Ptr))));

  00007	8b 45 08	 mov	 eax, DWORD PTR __Ptr$[ebp]
  0000a	50		 push	 eax
  0000b	e8 00 00 00 00	 call	 ?length@?$char_traits@D@std@@SAIQBD@Z ; std::char_traits<char>::length
  00010	83 c4 04	 add	 esp, 4
  00013	50		 push	 eax
  00014	e8 00 00 00 00	 call	 ??$_Convert_size@I@std@@YAII@Z ; std::_Convert_size<unsigned int>
  00019	83 c4 04	 add	 esp, 4
  0001c	50		 push	 eax
  0001d	8b 4d 08	 mov	 ecx, DWORD PTR __Ptr$[ebp]
  00020	51		 push	 ecx
  00021	8b 4d fc	 mov	 ecx, DWORD PTR _this$[ebp]
  00024	e8 00 00 00 00	 call	 ?append@?$basic_string@DU?$char_traits@D@std@@V?$allocator@D@2@@std@@QAEAAV12@QBDI@Z ; std::basic_string<char,std::char_traits<char>,std::allocator<char> >::append

; 2593 : 		}

  00029	8b e5		 mov	 esp, ebp
  0002b	5d		 pop	 ebp
  0002c	c2 04 00	 ret	 4
?append@?$basic_string@DU?$char_traits@D@std@@V?$allocator@D@2@@std@@QAEAAV12@QBD@Z ENDP ; std::basic_string<char,std::char_traits<char>,std::allocator<char> >::append
_TEXT	ENDS
; Function compile flags: /Odtp
; File c:\program files (x86)\microsoft visual studio\2017\community\vc\tools\msvc\14.16.27023\include\xstring
;	COMDAT ?append@?$basic_string@DU?$char_traits@D@std@@V?$allocator@D@2@@std@@QAEAAV12@QBDI@Z
_TEXT	SEGMENT
__Old_ptr$1 = -20					; size = 4
_this$ = -16						; size = 4
__Old_size$ = -12					; size = 4
__My_data$ = -8						; size = 4
$T2 = -2						; size = 1
$T3 = -1						; size = 1
__Ptr$ = 8						; size = 4
__Count$ = 12						; size = 4
?append@?$basic_string@DU?$char_traits@D@std@@V?$allocator@D@2@@std@@QAEAAV12@QBDI@Z PROC ; std::basic_string<char,std::char_traits<char>,std::allocator<char> >::append, COMDAT
; _this$ = ecx

; 2569 : 		{	// append [_Ptr, _Ptr + _Count)

  00000	55		 push	 ebp
  00001	8b ec		 mov	 ebp, esp
  00003	83 ec 14	 sub	 esp, 20			; 00000014H
  00006	89 4d f0	 mov	 DWORD PTR _this$[ebp], ecx

; 2570 : 		auto& _My_data = this->_Get_data();

  00009	8b 4d f0	 mov	 ecx, DWORD PTR _this$[ebp]
  0000c	e8 00 00 00 00	 call	 ?_Get_data@?$_String_alloc@U?$_String_base_types@DV?$allocator@D@std@@@std@@@std@@QAEAAV?$_String_val@U?$_Simple_types@D@std@@@2@XZ ; std::_String_alloc<std::_String_base_types<char,std::allocator<char> > >::_Get_data
  00011	89 45 f8	 mov	 DWORD PTR __My_data$[ebp], eax

; 2571 : 		const size_type _Old_size = _My_data._Mysize;

  00014	8b 45 f8	 mov	 eax, DWORD PTR __My_data$[ebp]
  00017	8b 48 10	 mov	 ecx, DWORD PTR [eax+16]
  0001a	89 4d f4	 mov	 DWORD PTR __Old_size$[ebp], ecx

; 2572 : 		if (_Count <= _My_data._Myres - _Old_size)

  0001d	8b 55 f8	 mov	 edx, DWORD PTR __My_data$[ebp]
  00020	8b 42 14	 mov	 eax, DWORD PTR [edx+20]
  00023	2b 45 f4	 sub	 eax, DWORD PTR __Old_size$[ebp]
  00026	39 45 0c	 cmp	 DWORD PTR __Count$[ebp], eax
  00029	77 4d		 ja	 SHORT $LN2@append

; 2573 : 			{
; 2574 : 			_My_data._Mysize = _Old_size + _Count;

  0002b	8b 4d f4	 mov	 ecx, DWORD PTR __Old_size$[ebp]
  0002e	03 4d 0c	 add	 ecx, DWORD PTR __Count$[ebp]
  00031	8b 55 f8	 mov	 edx, DWORD PTR __My_data$[ebp]
  00034	89 4a 10	 mov	 DWORD PTR [edx+16], ecx

; 2575 : 			_Elem * const _Old_ptr = _My_data._Myptr();

  00037	8b 4d f8	 mov	 ecx, DWORD PTR __My_data$[ebp]
  0003a	e8 00 00 00 00	 call	 ?_Myptr@?$_String_val@U?$_Simple_types@D@std@@@std@@QAEPADXZ ; std::_String_val<std::_Simple_types<char> >::_Myptr
  0003f	89 45 ec	 mov	 DWORD PTR __Old_ptr$1[ebp], eax

; 2576 : 			_Traits::move(_Old_ptr + _Old_size, _Ptr, _Count);

  00042	8b 45 0c	 mov	 eax, DWORD PTR __Count$[ebp]
  00045	50		 push	 eax
  00046	8b 4d 08	 mov	 ecx, DWORD PTR __Ptr$[ebp]
  00049	51		 push	 ecx
  0004a	8b 55 ec	 mov	 edx, DWORD PTR __Old_ptr$1[ebp]
  0004d	03 55 f4	 add	 edx, DWORD PTR __Old_size$[ebp]
  00050	52		 push	 edx
  00051	e8 00 00 00 00	 call	 ?move@?$char_traits@D@std@@SAPADQADQBDI@Z ; std::char_traits<char>::move
  00056	83 c4 0c	 add	 esp, 12			; 0000000cH

; 2577 : 			_Traits::assign(_Old_ptr[_Old_size + _Count], _Elem());

  00059	c6 45 ff 00	 mov	 BYTE PTR $T3[ebp], 0
  0005d	8d 45 ff	 lea	 eax, DWORD PTR $T3[ebp]
  00060	50		 push	 eax
  00061	8b 4d f4	 mov	 ecx, DWORD PTR __Old_size$[ebp]
  00064	03 4d 0c	 add	 ecx, DWORD PTR __Count$[ebp]
  00067	03 4d ec	 add	 ecx, DWORD PTR __Old_ptr$1[ebp]
  0006a	51		 push	 ecx
  0006b	e8 00 00 00 00	 call	 ?assign@?$char_traits@D@std@@SAXAADABD@Z ; std::char_traits<char>::assign
  00070	83 c4 08	 add	 esp, 8

; 2578 : 			return (*this);

  00073	8b 45 f0	 mov	 eax, DWORD PTR _this$[ebp]
  00076	eb 1e		 jmp	 SHORT $LN1@append
$LN2@append:

; 2579 : 			}
; 2580 : 
; 2581 : 		return (_Reallocate_grow_by(_Count,

  00078	33 d2		 xor	 edx, edx
  0007a	88 55 fe	 mov	 BYTE PTR $T2[ebp], dl
  0007d	8b 45 0c	 mov	 eax, DWORD PTR __Count$[ebp]
  00080	50		 push	 eax
  00081	8b 4d 08	 mov	 ecx, DWORD PTR __Ptr$[ebp]
  00084	51		 push	 ecx
  00085	0f b6 55 fe	 movzx	 edx, BYTE PTR $T2[ebp]
  00089	52		 push	 edx
  0008a	8b 45 0c	 mov	 eax, DWORD PTR __Count$[ebp]
  0008d	50		 push	 eax
  0008e	8b 4d f0	 mov	 ecx, DWORD PTR _this$[ebp]
  00091	e8 00 00 00 00	 call	 ??$_Reallocate_grow_by@V<lambda_ab246b20b9526e2ef7792587e4298a77>@@PBDI@?$basic_string@DU?$char_traits@D@std@@V?$allocator@D@2@@std@@QAEAAV01@IV<lambda_ab246b20b9526e2ef7792587e4298a77>@@PBDI@Z ; std::basic_string<char,std::char_traits<char>,std::allocator<char> >::_Reallocate_grow_by<<lambda_ab246b20b9526e2ef7792587e4298a77>,char const *,unsigned int>
$LN1@append:

; 2582 : 			[](_Elem * const _New_ptr, const _Elem * const _Old_ptr, const size_type _Old_size,
; 2583 : 				const _Elem * const _Ptr, const size_type _Count) {
; 2584 : 			_Traits::copy(_New_ptr, _Old_ptr, _Old_size);
; 2585 : 			_Traits::copy(_New_ptr + _Old_size, _Ptr, _Count);
; 2586 : 			_Traits::assign(_New_ptr[_Old_size + _Count], _Elem());
; 2587 : 			}, _Ptr, _Count));
; 2588 : 		}

  00096	8b e5		 mov	 esp, ebp
  00098	5d		 pop	 ebp
  00099	c2 08 00	 ret	 8
?append@?$basic_string@DU?$char_traits@D@std@@V?$allocator@D@2@@std@@QAEAAV12@QBDI@Z ENDP ; std::basic_string<char,std::char_traits<char>,std::allocator<char> >::append
_TEXT	ENDS
; Function compile flags: /Odtp
; File c:\program files (x86)\microsoft visual studio\2017\community\vc\tools\msvc\14.16.27023\include\xstring
;	COMDAT ?append@?$basic_string@DU?$char_traits@D@std@@V?$allocator@D@2@@std@@QAEAAV12@ABV12@@Z
_TEXT	SEGMENT
_this$ = -8						; size = 4
__Right_data$ = -4					; size = 4
__Right$ = 8						; size = 4
?append@?$basic_string@DU?$char_traits@D@std@@V?$allocator@D@2@@std@@QAEAAV12@ABV12@@Z PROC ; std::basic_string<char,std::char_traits<char>,std::allocator<char> >::append, COMDAT
; _this$ = ecx

; 2537 : 		{	// append _Right

  00000	55		 push	 ebp
  00001	8b ec		 mov	 ebp, esp
  00003	83 ec 08	 sub	 esp, 8
  00006	89 4d f8	 mov	 DWORD PTR _this$[ebp], ecx

; 2538 : 		auto& _Right_data = _Right._Get_data();

  00009	8b 4d 08	 mov	 ecx, DWORD PTR __Right$[ebp]
  0000c	e8 00 00 00 00	 call	 ?_Get_data@?$_String_alloc@U?$_String_base_types@DV?$allocator@D@std@@@std@@@std@@QBEABV?$_String_val@U?$_Simple_types@D@std@@@2@XZ ; std::_String_alloc<std::_String_base_types<char,std::allocator<char> > >::_Get_data
  00011	89 45 fc	 mov	 DWORD PTR __Right_data$[ebp], eax

; 2539 : 		return (append(_Right_data._Myptr(), _Right_data._Mysize));

  00014	8b 45 fc	 mov	 eax, DWORD PTR __Right_data$[ebp]
  00017	8b 48 10	 mov	 ecx, DWORD PTR [eax+16]
  0001a	51		 push	 ecx
  0001b	8b 4d fc	 mov	 ecx, DWORD PTR __Right_data$[ebp]
  0001e	e8 00 00 00 00	 call	 ?_Myptr@?$_String_val@U?$_Simple_types@D@std@@@std@@QBEPBDXZ ; std::_String_val<std::_Simple_types<char> >::_Myptr
  00023	50		 push	 eax
  00024	8b 4d f8	 mov	 ecx, DWORD PTR _this$[ebp]
  00027	e8 00 00 00 00	 call	 ?append@?$basic_string@DU?$char_traits@D@std@@V?$allocator@D@2@@std@@QAEAAV12@QBDI@Z ; std::basic_string<char,std::char_traits<char>,std::allocator<char> >::append

; 2540 : 		}

  0002c	8b e5		 mov	 esp, ebp
  0002e	5d		 pop	 ebp
  0002f	c2 04 00	 ret	 4
?append@?$basic_string@DU?$char_traits@D@std@@V?$allocator@D@2@@std@@QAEAAV12@ABV12@@Z ENDP ; std::basic_string<char,std::char_traits<char>,std::allocator<char> >::append
_TEXT	ENDS
; Function compile flags: /Odtp
; File c:\program files (x86)\microsoft visual studio\2017\community\vc\tools\msvc\14.16.27023\include\xstring
;	COMDAT ??1?$basic_string@DU?$char_traits@D@std@@V?$allocator@D@2@@std@@QAE@XZ
_TEXT	SEGMENT
_this$ = -16						; size = 4
__$EHRec$ = -12						; size = 12
??1?$basic_string@DU?$char_traits@D@std@@V?$allocator@D@2@@std@@QAE@XZ PROC ; std::basic_string<char,std::char_traits<char>,std::allocator<char> >::~basic_string<char,std::char_traits<char>,std::allocator<char> >, COMDAT
; _this$ = ecx

; 2459 : 		{	// destroy the string

  00000	55		 push	 ebp
  00001	8b ec		 mov	 ebp, esp
  00003	6a ff		 push	 -1
  00005	68 00 00 00 00	 push	 __ehhandler$??1?$basic_string@DU?$char_traits@D@std@@V?$allocator@D@2@@std@@QAE@XZ
  0000a	64 a1 00 00 00
	00		 mov	 eax, DWORD PTR fs:0
  00010	50		 push	 eax
  00011	51		 push	 ecx
  00012	a1 00 00 00 00	 mov	 eax, DWORD PTR ___security_cookie
  00017	33 c5		 xor	 eax, ebp
  00019	50		 push	 eax
  0001a	8d 45 f4	 lea	 eax, DWORD PTR __$EHRec$[ebp]
  0001d	64 a3 00 00 00
	00		 mov	 DWORD PTR fs:0, eax
  00023	89 4d f0	 mov	 DWORD PTR _this$[ebp], ecx

; 2460 : 		_Tidy_deallocate();

  00026	8b 4d f0	 mov	 ecx, DWORD PTR _this$[ebp]
  00029	e8 00 00 00 00	 call	 ?_Tidy_deallocate@?$basic_string@DU?$char_traits@D@std@@V?$allocator@D@2@@std@@QAEXXZ ; std::basic_string<char,std::char_traits<char>,std::allocator<char> >::_Tidy_deallocate

; 2461 : 		}

  0002e	8b 4d f0	 mov	 ecx, DWORD PTR _this$[ebp]
  00031	e8 00 00 00 00	 call	 ??1?$_String_alloc@U?$_String_base_types@DV?$allocator@D@std@@@std@@@std@@QAE@XZ
  00036	8b 4d f4	 mov	 ecx, DWORD PTR __$EHRec$[ebp]
  00039	64 89 0d 00 00
	00 00		 mov	 DWORD PTR fs:0, ecx
  00040	59		 pop	 ecx
  00041	8b e5		 mov	 esp, ebp
  00043	5d		 pop	 ebp
  00044	c3		 ret	 0
_TEXT	ENDS
;	COMDAT text$x
text$x	SEGMENT
__ehhandler$??1?$basic_string@DU?$char_traits@D@std@@V?$allocator@D@2@@std@@QAE@XZ:
  00000	8b 54 24 08	 mov	 edx, DWORD PTR [esp+8]
  00004	8d 42 0c	 lea	 eax, DWORD PTR [edx+12]
  00007	8b 4a f8	 mov	 ecx, DWORD PTR [edx-8]
  0000a	33 c8		 xor	 ecx, eax
  0000c	e8 00 00 00 00	 call	 @__security_check_cookie@4
  00011	b8 00 00 00 00	 mov	 eax, OFFSET __ehfuncinfo$??1?$basic_string@DU?$char_traits@D@std@@V?$allocator@D@2@@std@@QAE@XZ
  00016	e9 00 00 00 00	 jmp	 ___CxxFrameHandler3
text$x	ENDS
??1?$basic_string@DU?$char_traits@D@std@@V?$allocator@D@2@@std@@QAE@XZ ENDP ; std::basic_string<char,std::char_traits<char>,std::allocator<char> >::~basic_string<char,std::char_traits<char>,std::allocator<char> >
; Function compile flags: /Odtp
; File c:\program files (x86)\microsoft visual studio\2017\community\vc\tools\msvc\14.16.27023\include\xstring
;	COMDAT ?_Construct_lv_contents@?$basic_string@DU?$char_traits@D@std@@V?$allocator@D@2@@std@@QAEXABV12@@Z
_TEXT	SEGMENT
$T1 = -40						; size = 4
$T2 = -36						; size = 4
__New_capacity$ = -32					; size = 4
__New_array$ = -28					; size = 4
__Right_ptr$ = -24					; size = 4
__Al$ = -20						; size = 4
__Right_data$ = -16					; size = 4
_this$ = -12						; size = 4
__Right_size$ = -8					; size = 4
__My_data$ = -4						; size = 4
__Right$ = 8						; size = 4
?_Construct_lv_contents@?$basic_string@DU?$char_traits@D@std@@V?$allocator@D@2@@std@@QAEXABV12@@Z PROC ; std::basic_string<char,std::char_traits<char>,std::allocator<char> >::_Construct_lv_contents, COMDAT
; _this$ = ecx

; 2394 : 		{	// assign by copying data stored in _Right

  00000	55		 push	 ebp
  00001	8b ec		 mov	 ebp, esp
  00003	83 ec 28	 sub	 esp, 40			; 00000028H
  00006	89 4d f4	 mov	 DWORD PTR _this$[ebp], ecx

; 2395 : 			// pre: this != &_Right
; 2396 : 			// pre: *this owns no memory, iterators orphaned (note: _Buf/_Ptr/_Mysize/_Myres may be garbage init)
; 2397 : 		auto& _My_data = this->_Get_data();

  00009	8b 4d f4	 mov	 ecx, DWORD PTR _this$[ebp]
  0000c	e8 00 00 00 00	 call	 ?_Get_data@?$_String_alloc@U?$_String_base_types@DV?$allocator@D@std@@@std@@@std@@QAEAAV?$_String_val@U?$_Simple_types@D@std@@@2@XZ ; std::_String_alloc<std::_String_base_types<char,std::allocator<char> > >::_Get_data
  00011	89 45 fc	 mov	 DWORD PTR __My_data$[ebp], eax

; 2398 : 		auto& _Right_data = _Right._Get_data();

  00014	8b 4d 08	 mov	 ecx, DWORD PTR __Right$[ebp]
  00017	e8 00 00 00 00	 call	 ?_Get_data@?$_String_alloc@U?$_String_base_types@DV?$allocator@D@std@@@std@@@std@@QBEABV?$_String_val@U?$_Simple_types@D@std@@@2@XZ ; std::_String_alloc<std::_String_base_types<char,std::allocator<char> > >::_Get_data
  0001c	89 45 f0	 mov	 DWORD PTR __Right_data$[ebp], eax

; 2399 : 		const size_type _Right_size = _Right_data._Mysize;

  0001f	8b 45 f0	 mov	 eax, DWORD PTR __Right_data$[ebp]
  00022	8b 48 10	 mov	 ecx, DWORD PTR [eax+16]
  00025	89 4d f8	 mov	 DWORD PTR __Right_size$[ebp], ecx

; 2400 : 		const _Elem * const _Right_ptr = _Right_data._Myptr();

  00028	8b 4d f0	 mov	 ecx, DWORD PTR __Right_data$[ebp]
  0002b	e8 00 00 00 00	 call	 ?_Myptr@?$_String_val@U?$_Simple_types@D@std@@@std@@QBEPBDXZ ; std::_String_val<std::_Simple_types<char> >::_Myptr
  00030	89 45 e8	 mov	 DWORD PTR __Right_ptr$[ebp], eax

; 2401 : 		if (_Right_size < this->_BUF_SIZE)

  00033	83 7d f8 10	 cmp	 DWORD PTR __Right_size$[ebp], 16 ; 00000010H
  00037	73 2a		 jae	 SHORT $LN2@Construct_

; 2402 : 			{	// stay small, don't allocate
; 2403 : 			_Traits::copy(_My_data._Bx._Buf, _Right_ptr, this->_BUF_SIZE);

  00039	6a 10		 push	 16			; 00000010H
  0003b	8b 55 e8	 mov	 edx, DWORD PTR __Right_ptr$[ebp]
  0003e	52		 push	 edx
  0003f	8b 45 fc	 mov	 eax, DWORD PTR __My_data$[ebp]
  00042	50		 push	 eax
  00043	e8 00 00 00 00	 call	 ?copy@?$char_traits@D@std@@SAPADQADQBDI@Z ; std::char_traits<char>::copy
  00048	83 c4 0c	 add	 esp, 12			; 0000000cH

; 2404 : 			_My_data._Mysize = _Right_size;

  0004b	8b 4d fc	 mov	 ecx, DWORD PTR __My_data$[ebp]
  0004e	8b 55 f8	 mov	 edx, DWORD PTR __Right_size$[ebp]
  00051	89 51 10	 mov	 DWORD PTR [ecx+16], edx

; 2405 : 			_My_data._Myres = this->_BUF_SIZE - 1;

  00054	8b 45 fc	 mov	 eax, DWORD PTR __My_data$[ebp]
  00057	c7 40 14 0f 00
	00 00		 mov	 DWORD PTR [eax+20], 15	; 0000000fH

; 2406 : 			return;

  0005e	e9 95 00 00 00	 jmp	 $LN1@Construct_
$LN2@Construct_:

; 2407 : 			}
; 2408 : 
; 2409 : 		auto& _Al = this->_Getal();

  00063	8b 4d f4	 mov	 ecx, DWORD PTR _this$[ebp]
  00066	e8 00 00 00 00	 call	 ?_Getal@?$_String_alloc@U?$_String_base_types@DV?$allocator@D@std@@@std@@@std@@QAEAAV?$allocator@D@2@XZ ; std::_String_alloc<std::_String_base_types<char,std::allocator<char> > >::_Getal
  0006b	89 45 ec	 mov	 DWORD PTR __Al$[ebp], eax

; 2410 : 		const size_type _New_capacity = _Min_value(_Right_size | this->_ALLOC_MASK, max_size());

  0006e	8b 4d f4	 mov	 ecx, DWORD PTR _this$[ebp]
  00071	e8 00 00 00 00	 call	 ?max_size@?$basic_string@DU?$char_traits@D@std@@V?$allocator@D@2@@std@@QBEIXZ ; std::basic_string<char,std::char_traits<char>,std::allocator<char> >::max_size
  00076	89 45 dc	 mov	 DWORD PTR $T2[ebp], eax
  00079	8b 4d f8	 mov	 ecx, DWORD PTR __Right_size$[ebp]
  0007c	83 c9 0f	 or	 ecx, 15			; 0000000fH
  0007f	89 4d d8	 mov	 DWORD PTR $T1[ebp], ecx
  00082	8d 55 dc	 lea	 edx, DWORD PTR $T2[ebp]
  00085	52		 push	 edx
  00086	8d 45 d8	 lea	 eax, DWORD PTR $T1[ebp]
  00089	50		 push	 eax
  0008a	e8 00 00 00 00	 call	 ??$_Min_value@I@std@@YAABIABI0@Z ; std::_Min_value<unsigned int>
  0008f	83 c4 08	 add	 esp, 8
  00092	8b 08		 mov	 ecx, DWORD PTR [eax]
  00094	89 4d e0	 mov	 DWORD PTR __New_capacity$[ebp], ecx

; 2411 : 		const pointer _New_array = _Al.allocate(_New_capacity + 1); // throws

  00097	8b 55 e0	 mov	 edx, DWORD PTR __New_capacity$[ebp]
  0009a	83 c2 01	 add	 edx, 1
  0009d	52		 push	 edx
  0009e	8b 4d ec	 mov	 ecx, DWORD PTR __Al$[ebp]
  000a1	e8 00 00 00 00	 call	 ?allocate@?$allocator@D@std@@QAEPADI@Z ; std::allocator<char>::allocate
  000a6	89 45 e4	 mov	 DWORD PTR __New_array$[ebp], eax

; 2412 : 		_Alty_traits::construct(_Al, _STD addressof(_My_data._Bx._Ptr), _New_array);

  000a9	8d 45 e4	 lea	 eax, DWORD PTR __New_array$[ebp]
  000ac	50		 push	 eax
  000ad	8b 4d fc	 mov	 ecx, DWORD PTR __My_data$[ebp]
  000b0	51		 push	 ecx
  000b1	e8 00 00 00 00	 call	 ??$addressof@PAD@std@@YAPAPADAAPAD@Z ; std::addressof<char *>
  000b6	83 c4 04	 add	 esp, 4
  000b9	50		 push	 eax
  000ba	8b 55 ec	 mov	 edx, DWORD PTR __Al$[ebp]
  000bd	52		 push	 edx
  000be	e8 00 00 00 00	 call	 ??$construct@PADABQAD@?$_Default_allocator_traits@V?$allocator@D@std@@@std@@SAXAAV?$allocator@D@1@QAPADABQAD@Z ; std::_Default_allocator_traits<std::allocator<char> >::construct<char *,char * const &>
  000c3	83 c4 0c	 add	 esp, 12			; 0000000cH

; 2413 : 		_Traits::copy(_Unfancy(_New_array), _Right_ptr, _Right_size + 1);

  000c6	8b 45 f8	 mov	 eax, DWORD PTR __Right_size$[ebp]
  000c9	83 c0 01	 add	 eax, 1
  000cc	50		 push	 eax
  000cd	8b 4d e8	 mov	 ecx, DWORD PTR __Right_ptr$[ebp]
  000d0	51		 push	 ecx
  000d1	8b 55 e4	 mov	 edx, DWORD PTR __New_array$[ebp]
  000d4	52		 push	 edx
  000d5	e8 00 00 00 00	 call	 ??$_Unfancy@D@std@@YAPADPAD@Z ; std::_Unfancy<char>
  000da	83 c4 04	 add	 esp, 4
  000dd	50		 push	 eax
  000de	e8 00 00 00 00	 call	 ?copy@?$char_traits@D@std@@SAPADQADQBDI@Z ; std::char_traits<char>::copy
  000e3	83 c4 0c	 add	 esp, 12			; 0000000cH

; 2414 : 		_My_data._Mysize = _Right_size;

  000e6	8b 45 fc	 mov	 eax, DWORD PTR __My_data$[ebp]
  000e9	8b 4d f8	 mov	 ecx, DWORD PTR __Right_size$[ebp]
  000ec	89 48 10	 mov	 DWORD PTR [eax+16], ecx

; 2415 : 		_My_data._Myres = _New_capacity;

  000ef	8b 55 fc	 mov	 edx, DWORD PTR __My_data$[ebp]
  000f2	8b 45 e0	 mov	 eax, DWORD PTR __New_capacity$[ebp]
  000f5	89 42 14	 mov	 DWORD PTR [edx+20], eax
$LN1@Construct_:

; 2416 : 		}

  000f8	8b e5		 mov	 esp, ebp
  000fa	5d		 pop	 ebp
  000fb	c2 04 00	 ret	 4
?_Construct_lv_contents@?$basic_string@DU?$char_traits@D@std@@V?$allocator@D@2@@std@@QAEXABV12@@Z ENDP ; std::basic_string<char,std::char_traits<char>,std::allocator<char> >::_Construct_lv_contents
_TEXT	ENDS
; Function compile flags: /Odtp
; File c:\program files (x86)\microsoft visual studio\2017\community\vc\tools\msvc\14.16.27023\include\xstring
;	COMDAT ?_Assign_rv_contents_with_alloc_always_equal@?$basic_string@DU?$char_traits@D@std@@V?$allocator@D@2@@std@@QAEX$$QAV12@U?$integral_constant@_N$00@2@@Z
_TEXT	SEGMENT
__My_data_mem$ = -28					; size = 4
__Right_data_mem$ = -24					; size = 4
__Right_data$ = -20					; size = 4
_this$ = -16						; size = 4
__$EHRec$ = -12						; size = 12
__Right$ = 8						; size = 4
___formal$ = 12						; size = 1
?_Assign_rv_contents_with_alloc_always_equal@?$basic_string@DU?$char_traits@D@std@@V?$allocator@D@2@@std@@QAEX$$QAV12@U?$integral_constant@_N$00@2@@Z PROC ; std::basic_string<char,std::char_traits<char>,std::allocator<char> >::_Assign_rv_contents_with_alloc_always_equal, COMDAT
; _this$ = ecx

; 2344 : 		{	// assign by stealing _Right's buffer, memcpy optimization

  00000	55		 push	 ebp
  00001	8b ec		 mov	 ebp, esp
  00003	6a ff		 push	 -1
  00005	68 00 00 00 00	 push	 __ehhandler$?_Assign_rv_contents_with_alloc_always_equal@?$basic_string@DU?$char_traits@D@std@@V?$allocator@D@2@@std@@QAEX$$QAV12@U?$integral_constant@_N$00@2@@Z
  0000a	64 a1 00 00 00
	00		 mov	 eax, DWORD PTR fs:0
  00010	50		 push	 eax
  00011	83 ec 10	 sub	 esp, 16			; 00000010H
  00014	a1 00 00 00 00	 mov	 eax, DWORD PTR ___security_cookie
  00019	33 c5		 xor	 eax, ebp
  0001b	50		 push	 eax
  0001c	8d 45 f4	 lea	 eax, DWORD PTR __$EHRec$[ebp]
  0001f	64 a3 00 00 00
	00		 mov	 DWORD PTR fs:0, eax
  00025	89 4d f0	 mov	 DWORD PTR _this$[ebp], ecx

; 2345 : 			// pre: this != &_Right
; 2346 : 			// pre: allocator propagation (POCMA) from _Right, if necessary, is complete
; 2347 : 			// pre: *this owns no memory, iterators orphaned (note: _Buf/_Ptr/_Mysize/_Myres may be garbage init)
; 2348 : 		auto& _Right_data = _Right._Get_data();

  00028	8b 4d 08	 mov	 ecx, DWORD PTR __Right$[ebp]
  0002b	e8 00 00 00 00	 call	 ?_Get_data@?$_String_alloc@U?$_String_base_types@DV?$allocator@D@std@@@std@@@std@@QAEAAV?$_String_val@U?$_Simple_types@D@std@@@2@XZ ; std::_String_alloc<std::_String_base_types<char,std::allocator<char> > >::_Get_data
  00030	89 45 ec	 mov	 DWORD PTR __Right_data$[ebp], eax

; 2349 : 
; 2350 : #if _ITERATOR_DEBUG_LEVEL != 0
; 2351 : 		if (_Right_data._Large_string_engaged())
; 2352 : 			{	// take ownership of _Right's iterators along with its buffer
; 2353 : 			this->_Swap_all(_Right);
; 2354 : 			}
; 2355 : 		else
; 2356 : 			{
; 2357 : 			_Right._Orphan_all();
; 2358 : 			}
; 2359 : #endif /* _ITERATOR_DEBUG_LEVEL != 0 */
; 2360 : 
; 2361 : 		const auto _My_data_mem = reinterpret_cast<unsigned char *>(_STD addressof(this->_Get_data()))
; 2362 : 			+ _Memcpy_move_offset;

  00033	8b 4d f0	 mov	 ecx, DWORD PTR _this$[ebp]
  00036	e8 00 00 00 00	 call	 ?_Get_data@?$_String_alloc@U?$_String_base_types@DV?$allocator@D@std@@@std@@@std@@QAEAAV?$_String_val@U?$_Simple_types@D@std@@@2@XZ ; std::_String_alloc<std::_String_base_types<char,std::allocator<char> > >::_Get_data
  0003b	50		 push	 eax
  0003c	e8 00 00 00 00	 call	 ??$addressof@V?$_String_val@U?$_Simple_types@D@std@@@std@@@std@@YAPAV?$_String_val@U?$_Simple_types@D@std@@@0@AAV10@@Z ; std::addressof<std::_String_val<std::_Simple_types<char> > >
  00041	83 c4 04	 add	 esp, 4
  00044	89 45 e4	 mov	 DWORD PTR __My_data_mem$[ebp], eax

; 2363 : 		const auto _Right_data_mem = reinterpret_cast<unsigned char *>(_STD addressof(_Right_data))
; 2364 : 			+ _Memcpy_move_offset;

  00047	8b 45 ec	 mov	 eax, DWORD PTR __Right_data$[ebp]
  0004a	50		 push	 eax
  0004b	e8 00 00 00 00	 call	 ??$addressof@V?$_String_val@U?$_Simple_types@D@std@@@std@@@std@@YAPAV?$_String_val@U?$_Simple_types@D@std@@@0@AAV10@@Z ; std::addressof<std::_String_val<std::_Simple_types<char> > >
  00050	83 c4 04	 add	 esp, 4
  00053	89 45 e8	 mov	 DWORD PTR __Right_data_mem$[ebp], eax

; 2365 : 		_CSTD memcpy(_My_data_mem, _Right_data_mem, _Memcpy_move_size);

  00056	8b 4d e8	 mov	 ecx, DWORD PTR __Right_data_mem$[ebp]
  00059	8b 55 e4	 mov	 edx, DWORD PTR __My_data_mem$[ebp]
  0005c	8b 01		 mov	 eax, DWORD PTR [ecx]
  0005e	89 02		 mov	 DWORD PTR [edx], eax
  00060	8b 41 04	 mov	 eax, DWORD PTR [ecx+4]
  00063	89 42 04	 mov	 DWORD PTR [edx+4], eax
  00066	8b 41 08	 mov	 eax, DWORD PTR [ecx+8]
  00069	89 42 08	 mov	 DWORD PTR [edx+8], eax
  0006c	8b 41 0c	 mov	 eax, DWORD PTR [ecx+12]
  0006f	89 42 0c	 mov	 DWORD PTR [edx+12], eax
  00072	8b 41 10	 mov	 eax, DWORD PTR [ecx+16]
  00075	89 42 10	 mov	 DWORD PTR [edx+16], eax
  00078	8b 49 14	 mov	 ecx, DWORD PTR [ecx+20]
  0007b	89 4a 14	 mov	 DWORD PTR [edx+20], ecx

; 2366 : 		_Right._Tidy_init();

  0007e	8b 4d 08	 mov	 ecx, DWORD PTR __Right$[ebp]
  00081	e8 00 00 00 00	 call	 ?_Tidy_init@?$basic_string@DU?$char_traits@D@std@@V?$allocator@D@2@@std@@QAEXXZ ; std::basic_string<char,std::char_traits<char>,std::allocator<char> >::_Tidy_init

; 2367 : 		}

  00086	8b 4d f4	 mov	 ecx, DWORD PTR __$EHRec$[ebp]
  00089	64 89 0d 00 00
	00 00		 mov	 DWORD PTR fs:0, ecx
  00090	59		 pop	 ecx
  00091	8b e5		 mov	 esp, ebp
  00093	5d		 pop	 ebp
  00094	c2 08 00	 ret	 8
_TEXT	ENDS
;	COMDAT text$x
text$x	SEGMENT
__ehhandler$?_Assign_rv_contents_with_alloc_always_equal@?$basic_string@DU?$char_traits@D@std@@V?$allocator@D@2@@std@@QAEX$$QAV12@U?$integral_constant@_N$00@2@@Z:
  00000	8b 54 24 08	 mov	 edx, DWORD PTR [esp+8]
  00004	8d 42 0c	 lea	 eax, DWORD PTR [edx+12]
  00007	8b 4a ec	 mov	 ecx, DWORD PTR [edx-20]
  0000a	33 c8		 xor	 ecx, eax
  0000c	e8 00 00 00 00	 call	 @__security_check_cookie@4
  00011	b8 00 00 00 00	 mov	 eax, OFFSET __ehfuncinfo$?_Assign_rv_contents_with_alloc_always_equal@?$basic_string@DU?$char_traits@D@std@@V?$allocator@D@2@@std@@QAEX$$QAV12@U?$integral_constant@_N$00@2@@Z
  00016	e9 00 00 00 00	 jmp	 ___CxxFrameHandler3
text$x	ENDS
?_Assign_rv_contents_with_alloc_always_equal@?$basic_string@DU?$char_traits@D@std@@V?$allocator@D@2@@std@@QAEX$$QAV12@U?$integral_constant@_N$00@2@@Z ENDP ; std::basic_string<char,std::char_traits<char>,std::allocator<char> >::_Assign_rv_contents_with_alloc_always_equal
; Function compile flags: /Odtp
; File c:\program files (x86)\microsoft visual studio\2017\community\vc\tools\msvc\14.16.27023\include\xstring
;	COMDAT ??0?$basic_string@DU?$char_traits@D@std@@V?$allocator@D@2@@std@@QAE@$$QAV01@@Z
_TEXT	SEGMENT
_this$ = -20						; size = 4
$T2 = -13						; size = 1
__$EHRec$ = -12						; size = 12
__Right$ = 8						; size = 4
??0?$basic_string@DU?$char_traits@D@std@@V?$allocator@D@2@@std@@QAE@$$QAV01@@Z PROC ; std::basic_string<char,std::char_traits<char>,std::allocator<char> >::basic_string<char,std::char_traits<char>,std::allocator<char> >, COMDAT
; _this$ = ecx

; 2268 : 		{	// construct by moving _Right

  00000	55		 push	 ebp
  00001	8b ec		 mov	 ebp, esp
  00003	6a ff		 push	 -1
  00005	68 00 00 00 00	 push	 __ehhandler$??0?$basic_string@DU?$char_traits@D@std@@V?$allocator@D@2@@std@@QAE@$$QAV01@@Z
  0000a	64 a1 00 00 00
	00		 mov	 eax, DWORD PTR fs:0
  00010	50		 push	 eax
  00011	83 ec 08	 sub	 esp, 8
  00014	a1 00 00 00 00	 mov	 eax, DWORD PTR ___security_cookie
  00019	33 c5		 xor	 eax, ebp
  0001b	50		 push	 eax
  0001c	8d 45 f4	 lea	 eax, DWORD PTR __$EHRec$[ebp]
  0001f	64 a3 00 00 00
	00		 mov	 DWORD PTR fs:0, eax
  00025	89 4d ec	 mov	 DWORD PTR _this$[ebp], ecx

; 2267 : 		: _Mybase(_STD move(_Right._Getal()))

  00028	8b 4d 08	 mov	 ecx, DWORD PTR __Right$[ebp]
  0002b	e8 00 00 00 00	 call	 ?_Getal@?$_String_alloc@U?$_String_base_types@DV?$allocator@D@std@@@std@@@std@@QAEAAV?$allocator@D@2@XZ ; std::_String_alloc<std::_String_base_types<char,std::allocator<char> > >::_Getal
  00030	50		 push	 eax
  00031	e8 00 00 00 00	 call	 ??$move@AAV?$allocator@D@std@@@std@@YA$$QAV?$allocator@D@0@AAV10@@Z ; std::move<std::allocator<char> &>
  00036	83 c4 04	 add	 esp, 4
  00039	50		 push	 eax
  0003a	8b 4d ec	 mov	 ecx, DWORD PTR _this$[ebp]
  0003d	e8 00 00 00 00	 call	 ??$?0V?$allocator@D@std@@X@?$_String_alloc@U?$_String_base_types@DV?$allocator@D@std@@@std@@@std@@QAE@$$QAV?$allocator@D@1@@Z ; std::_String_alloc<std::_String_base_types<char,std::allocator<char> > >::_String_alloc<std::_String_base_types<char,std::allocator<char> > ><std::allocator<char>,void>

; 2269 : 		_Assign_rv_contents_with_alloc_always_equal(_STD move(_Right), _Use_memcpy_move{});

  00042	33 c0		 xor	 eax, eax
  00044	88 45 f3	 mov	 BYTE PTR $T2[ebp], al
  00047	0f b6 4d f3	 movzx	 ecx, BYTE PTR $T2[ebp]
  0004b	51		 push	 ecx
  0004c	8b 55 08	 mov	 edx, DWORD PTR __Right$[ebp]
  0004f	52		 push	 edx
  00050	e8 00 00 00 00	 call	 ??$move@AAV?$basic_string@DU?$char_traits@D@std@@V?$allocator@D@2@@std@@@std@@YA$$QAV?$basic_string@DU?$char_traits@D@std@@V?$allocator@D@2@@0@AAV10@@Z ; std::move<std::basic_string<char,std::char_traits<char>,std::allocator<char> > &>
  00055	83 c4 04	 add	 esp, 4
  00058	50		 push	 eax
  00059	8b 4d ec	 mov	 ecx, DWORD PTR _this$[ebp]
  0005c	e8 00 00 00 00	 call	 ?_Assign_rv_contents_with_alloc_always_equal@?$basic_string@DU?$char_traits@D@std@@V?$allocator@D@2@@std@@QAEX$$QAV12@U?$integral_constant@_N$00@2@@Z ; std::basic_string<char,std::char_traits<char>,std::allocator<char> >::_Assign_rv_contents_with_alloc_always_equal

; 2270 : 		}

  00061	8b 45 ec	 mov	 eax, DWORD PTR _this$[ebp]
  00064	8b 4d f4	 mov	 ecx, DWORD PTR __$EHRec$[ebp]
  00067	64 89 0d 00 00
	00 00		 mov	 DWORD PTR fs:0, ecx
  0006e	59		 pop	 ecx
  0006f	8b e5		 mov	 esp, ebp
  00071	5d		 pop	 ebp
  00072	c2 04 00	 ret	 4
_TEXT	ENDS
;	COMDAT text$x
text$x	SEGMENT
__ehhandler$??0?$basic_string@DU?$char_traits@D@std@@V?$allocator@D@2@@std@@QAE@$$QAV01@@Z:
  00000	8b 54 24 08	 mov	 edx, DWORD PTR [esp+8]
  00004	8d 42 0c	 lea	 eax, DWORD PTR [edx+12]
  00007	8b 4a f4	 mov	 ecx, DWORD PTR [edx-12]
  0000a	33 c8		 xor	 ecx, eax
  0000c	e8 00 00 00 00	 call	 @__security_check_cookie@4
  00011	b8 00 00 00 00	 mov	 eax, OFFSET __ehfuncinfo$??0?$basic_string@DU?$char_traits@D@std@@V?$allocator@D@2@@std@@QAE@$$QAV01@@Z
  00016	e9 00 00 00 00	 jmp	 ___CxxFrameHandler3
text$x	ENDS
??0?$basic_string@DU?$char_traits@D@std@@V?$allocator@D@2@@std@@QAE@$$QAV01@@Z ENDP ; std::basic_string<char,std::char_traits<char>,std::allocator<char> >::basic_string<char,std::char_traits<char>,std::allocator<char> >
; Function compile flags: /Odtp
; File c:\program files (x86)\microsoft visual studio\2017\community\vc\tools\msvc\14.16.27023\include\xstring
;	COMDAT ??0?$basic_string@DU?$char_traits@D@std@@V?$allocator@D@2@@std@@QAE@QBD@Z
_TEXT	SEGMENT
_this$ = -16						; size = 4
__$EHRec$ = -12						; size = 12
__Ptr$ = 8						; size = 4
??0?$basic_string@DU?$char_traits@D@std@@V?$allocator@D@2@@std@@QAE@QBD@Z PROC ; std::basic_string<char,std::char_traits<char>,std::allocator<char> >::basic_string<char,std::char_traits<char>,std::allocator<char> >, COMDAT
; _this$ = ecx

; 2183 : 		{	// construct from [_Ptr, <null>)

  00000	55		 push	 ebp
  00001	8b ec		 mov	 ebp, esp
  00003	6a ff		 push	 -1
  00005	68 00 00 00 00	 push	 __ehhandler$??0?$basic_string@DU?$char_traits@D@std@@V?$allocator@D@2@@std@@QAE@QBD@Z
  0000a	64 a1 00 00 00
	00		 mov	 eax, DWORD PTR fs:0
  00010	50		 push	 eax
  00011	51		 push	 ecx
  00012	a1 00 00 00 00	 mov	 eax, DWORD PTR ___security_cookie
  00017	33 c5		 xor	 eax, ebp
  00019	50		 push	 eax
  0001a	8d 45 f4	 lea	 eax, DWORD PTR __$EHRec$[ebp]
  0001d	64 a3 00 00 00
	00		 mov	 DWORD PTR fs:0, eax
  00023	89 4d f0	 mov	 DWORD PTR _this$[ebp], ecx

; 2182 : 		: _Mybase()

  00026	8b 4d f0	 mov	 ecx, DWORD PTR _this$[ebp]
  00029	e8 00 00 00 00	 call	 ??0?$_String_alloc@U?$_String_base_types@DV?$allocator@D@std@@@std@@@std@@QAE@XZ ; std::_String_alloc<std::_String_base_types<char,std::allocator<char> > >::_String_alloc<std::_String_base_types<char,std::allocator<char> > >
  0002e	c7 45 fc 00 00
	00 00		 mov	 DWORD PTR __$EHRec$[ebp+8], 0

; 2184 : 		_Tidy_init();

  00035	8b 4d f0	 mov	 ecx, DWORD PTR _this$[ebp]
  00038	e8 00 00 00 00	 call	 ?_Tidy_init@?$basic_string@DU?$char_traits@D@std@@V?$allocator@D@2@@std@@QAEXXZ ; std::basic_string<char,std::char_traits<char>,std::allocator<char> >::_Tidy_init

; 2185 : 		assign(_Ptr);

  0003d	8b 45 08	 mov	 eax, DWORD PTR __Ptr$[ebp]
  00040	50		 push	 eax
  00041	8b 4d f0	 mov	 ecx, DWORD PTR _this$[ebp]
  00044	e8 00 00 00 00	 call	 ?assign@?$basic_string@DU?$char_traits@D@std@@V?$allocator@D@2@@std@@QAEAAV12@QBD@Z ; std::basic_string<char,std::char_traits<char>,std::allocator<char> >::assign

; 2186 : 		}

  00049	c7 45 fc ff ff
	ff ff		 mov	 DWORD PTR __$EHRec$[ebp+8], -1
  00050	8b 45 f0	 mov	 eax, DWORD PTR _this$[ebp]
  00053	8b 4d f4	 mov	 ecx, DWORD PTR __$EHRec$[ebp]
  00056	64 89 0d 00 00
	00 00		 mov	 DWORD PTR fs:0, ecx
  0005d	59		 pop	 ecx
  0005e	8b e5		 mov	 esp, ebp
  00060	5d		 pop	 ebp
  00061	c2 04 00	 ret	 4
_TEXT	ENDS
;	COMDAT text$x
text$x	SEGMENT
__unwindfunclet$??0?$basic_string@DU?$char_traits@D@std@@V?$allocator@D@2@@std@@QAE@QBD@Z$0:
  00000	8b 4d f0	 mov	 ecx, DWORD PTR _this$[ebp]
  00003	e9 00 00 00 00	 jmp	 ??1?$_String_alloc@U?$_String_base_types@DV?$allocator@D@std@@@std@@@std@@QAE@XZ
__ehhandler$??0?$basic_string@DU?$char_traits@D@std@@V?$allocator@D@2@@std@@QAE@QBD@Z:
  00008	8b 54 24 08	 mov	 edx, DWORD PTR [esp+8]
  0000c	8d 42 0c	 lea	 eax, DWORD PTR [edx+12]
  0000f	8b 4a f8	 mov	 ecx, DWORD PTR [edx-8]
  00012	33 c8		 xor	 ecx, eax
  00014	e8 00 00 00 00	 call	 @__security_check_cookie@4
  00019	b8 00 00 00 00	 mov	 eax, OFFSET __ehfuncinfo$??0?$basic_string@DU?$char_traits@D@std@@V?$allocator@D@2@@std@@QAE@QBD@Z
  0001e	e9 00 00 00 00	 jmp	 ___CxxFrameHandler3
text$x	ENDS
??0?$basic_string@DU?$char_traits@D@std@@V?$allocator@D@2@@std@@QAE@QBD@Z ENDP ; std::basic_string<char,std::char_traits<char>,std::allocator<char> >::basic_string<char,std::char_traits<char>,std::allocator<char> >
; Function compile flags: /Odtp
; File c:\program files (x86)\microsoft visual studio\2017\community\vc\tools\msvc\14.16.27023\include\xstring
;	COMDAT ??0?$basic_string@DU?$char_traits@D@std@@V?$allocator@D@2@@std@@QAE@ABV01@@Z
_TEXT	SEGMENT
_this$ = -20						; size = 4
$T2 = -13						; size = 1
__$EHRec$ = -12						; size = 12
__Right$ = 8						; size = 4
??0?$basic_string@DU?$char_traits@D@std@@V?$allocator@D@2@@std@@QAE@ABV01@@Z PROC ; std::basic_string<char,std::char_traits<char>,std::allocator<char> >::basic_string<char,std::char_traits<char>,std::allocator<char> >, COMDAT
; _this$ = ecx

; 2130 : 		{	// construct by copying _Right

  00000	55		 push	 ebp
  00001	8b ec		 mov	 ebp, esp
  00003	6a ff		 push	 -1
  00005	68 00 00 00 00	 push	 __ehhandler$??0?$basic_string@DU?$char_traits@D@std@@V?$allocator@D@2@@std@@QAE@ABV01@@Z
  0000a	64 a1 00 00 00
	00		 mov	 eax, DWORD PTR fs:0
  00010	50		 push	 eax
  00011	83 ec 08	 sub	 esp, 8
  00014	a1 00 00 00 00	 mov	 eax, DWORD PTR ___security_cookie
  00019	33 c5		 xor	 eax, ebp
  0001b	50		 push	 eax
  0001c	8d 45 f4	 lea	 eax, DWORD PTR __$EHRec$[ebp]
  0001f	64 a3 00 00 00
	00		 mov	 DWORD PTR fs:0, eax
  00025	89 4d ec	 mov	 DWORD PTR _this$[ebp], ecx

; 2129 : 		: _Mybase(_Alty_traits::select_on_container_copy_construction(_Right._Getal()))

  00028	8b 4d 08	 mov	 ecx, DWORD PTR __Right$[ebp]
  0002b	e8 00 00 00 00	 call	 ?_Getal@?$_String_alloc@U?$_String_base_types@DV?$allocator@D@std@@@std@@@std@@QBEABV?$allocator@D@2@XZ ; std::_String_alloc<std::_String_base_types<char,std::allocator<char> > >::_Getal
  00030	50		 push	 eax
  00031	8d 45 f3	 lea	 eax, DWORD PTR $T2[ebp]
  00034	50		 push	 eax
  00035	e8 00 00 00 00	 call	 ?select_on_container_copy_construction@?$_Default_allocator_traits@V?$allocator@D@std@@@std@@SA?AV?$allocator@D@2@ABV32@@Z ; std::_Default_allocator_traits<std::allocator<char> >::select_on_container_copy_construction
  0003a	83 c4 08	 add	 esp, 8
  0003d	50		 push	 eax
  0003e	8b 4d ec	 mov	 ecx, DWORD PTR _this$[ebp]
  00041	e8 00 00 00 00	 call	 ??$?0V?$allocator@D@std@@X@?$_String_alloc@U?$_String_base_types@DV?$allocator@D@std@@@std@@@std@@QAE@$$QAV?$allocator@D@1@@Z ; std::_String_alloc<std::_String_base_types<char,std::allocator<char> > >::_String_alloc<std::_String_base_types<char,std::allocator<char> > ><std::allocator<char>,void>
  00046	c7 45 fc 00 00
	00 00		 mov	 DWORD PTR __$EHRec$[ebp+8], 0

; 2131 : 		_Construct_lv_contents(_Right);

  0004d	8b 4d 08	 mov	 ecx, DWORD PTR __Right$[ebp]
  00050	51		 push	 ecx
  00051	8b 4d ec	 mov	 ecx, DWORD PTR _this$[ebp]
  00054	e8 00 00 00 00	 call	 ?_Construct_lv_contents@?$basic_string@DU?$char_traits@D@std@@V?$allocator@D@2@@std@@QAEXABV12@@Z ; std::basic_string<char,std::char_traits<char>,std::allocator<char> >::_Construct_lv_contents

; 2132 : 		}

  00059	c7 45 fc ff ff
	ff ff		 mov	 DWORD PTR __$EHRec$[ebp+8], -1
  00060	8b 45 ec	 mov	 eax, DWORD PTR _this$[ebp]
  00063	8b 4d f4	 mov	 ecx, DWORD PTR __$EHRec$[ebp]
  00066	64 89 0d 00 00
	00 00		 mov	 DWORD PTR fs:0, ecx
  0006d	59		 pop	 ecx
  0006e	8b e5		 mov	 esp, ebp
  00070	5d		 pop	 ebp
  00071	c2 04 00	 ret	 4
_TEXT	ENDS
;	COMDAT text$x
text$x	SEGMENT
__unwindfunclet$??0?$basic_string@DU?$char_traits@D@std@@V?$allocator@D@2@@std@@QAE@ABV01@@Z$0:
  00000	8b 4d ec	 mov	 ecx, DWORD PTR _this$[ebp]
  00003	e9 00 00 00 00	 jmp	 ??1?$_String_alloc@U?$_String_base_types@DV?$allocator@D@std@@@std@@@std@@QAE@XZ
__ehhandler$??0?$basic_string@DU?$char_traits@D@std@@V?$allocator@D@2@@std@@QAE@ABV01@@Z:
  00008	8b 54 24 08	 mov	 edx, DWORD PTR [esp+8]
  0000c	8d 42 0c	 lea	 eax, DWORD PTR [edx+12]
  0000f	8b 4a f4	 mov	 ecx, DWORD PTR [edx-12]
  00012	33 c8		 xor	 ecx, eax
  00014	e8 00 00 00 00	 call	 @__security_check_cookie@4
  00019	b8 00 00 00 00	 mov	 eax, OFFSET __ehfuncinfo$??0?$basic_string@DU?$char_traits@D@std@@V?$allocator@D@2@@std@@QAE@ABV01@@Z
  0001e	e9 00 00 00 00	 jmp	 ___CxxFrameHandler3
text$x	ENDS
??0?$basic_string@DU?$char_traits@D@std@@V?$allocator@D@2@@std@@QAE@ABV01@@Z ENDP ; std::basic_string<char,std::char_traits<char>,std::allocator<char> >::basic_string<char,std::char_traits<char>,std::allocator<char> >
; Function compile flags: /Odtp
;	COMDAT ??1?$_String_alloc@U?$_String_base_types@DV?$allocator@D@std@@@std@@@std@@QAE@XZ
_TEXT	SEGMENT
_this$ = -4						; size = 4
??1?$_String_alloc@U?$_String_base_types@DV?$allocator@D@std@@@std@@@std@@QAE@XZ PROC ; std::_String_alloc<std::_String_base_types<char,std::allocator<char> > >::~_String_alloc<std::_String_base_types<char,std::allocator<char> > >, COMDAT
; _this$ = ecx
  00000	55		 push	 ebp
  00001	8b ec		 mov	 ebp, esp
  00003	51		 push	 ecx
  00004	89 4d fc	 mov	 DWORD PTR _this$[ebp], ecx
  00007	8b 4d fc	 mov	 ecx, DWORD PTR _this$[ebp]
  0000a	e8 00 00 00 00	 call	 ??1?$_Compressed_pair@V?$allocator@D@std@@V?$_String_val@U?$_Simple_types@D@std@@@2@$00@std@@QAE@XZ
  0000f	8b e5		 mov	 esp, ebp
  00011	5d		 pop	 ebp
  00012	c3		 ret	 0
??1?$_String_alloc@U?$_String_base_types@DV?$allocator@D@std@@@std@@@std@@QAE@XZ ENDP ; std::_String_alloc<std::_String_base_types<char,std::allocator<char> > >::~_String_alloc<std::_String_base_types<char,std::allocator<char> > >
_TEXT	ENDS
; Function compile flags: /Odtp
;	COMDAT ??1?$_Compressed_pair@V?$allocator@D@std@@V?$_String_val@U?$_Simple_types@D@std@@@2@$00@std@@QAE@XZ
_TEXT	SEGMENT
_this$ = -4						; size = 4
??1?$_Compressed_pair@V?$allocator@D@std@@V?$_String_val@U?$_Simple_types@D@std@@@2@$00@std@@QAE@XZ PROC ; std::_Compressed_pair<std::allocator<char>,std::_String_val<std::_Simple_types<char> >,1>::~_Compressed_pair<std::allocator<char>,std::_String_val<std::_Simple_types<char> >,1>, COMDAT
; _this$ = ecx
  00000	55		 push	 ebp
  00001	8b ec		 mov	 ebp, esp
  00003	51		 push	 ecx
  00004	89 4d fc	 mov	 DWORD PTR _this$[ebp], ecx
  00007	8b 4d fc	 mov	 ecx, DWORD PTR _this$[ebp]
  0000a	e8 00 00 00 00	 call	 ??1?$_String_val@U?$_Simple_types@D@std@@@std@@QAE@XZ
  0000f	8b e5		 mov	 esp, ebp
  00011	5d		 pop	 ebp
  00012	c3		 ret	 0
??1?$_Compressed_pair@V?$allocator@D@std@@V?$_String_val@U?$_Simple_types@D@std@@@2@$00@std@@QAE@XZ ENDP ; std::_Compressed_pair<std::allocator<char>,std::_String_val<std::_Simple_types<char> >,1>::~_Compressed_pair<std::allocator<char>,std::_String_val<std::_Simple_types<char> >,1>
_TEXT	ENDS
; Function compile flags: /Odtp
; File c:\program files (x86)\microsoft visual studio\2017\community\vc\tools\msvc\14.16.27023\include\xutility
;	COMDAT ?_Get_second@?$_Compressed_pair@V?$allocator@D@std@@V?$_String_val@U?$_Simple_types@D@std@@@2@$00@std@@QBEABV?$_String_val@U?$_Simple_types@D@std@@@2@XZ
_TEXT	SEGMENT
_this$ = -4						; size = 4
?_Get_second@?$_Compressed_pair@V?$allocator@D@std@@V?$_String_val@U?$_Simple_types@D@std@@@2@$00@std@@QBEABV?$_String_val@U?$_Simple_types@D@std@@@2@XZ PROC ; std::_Compressed_pair<std::allocator<char>,std::_String_val<std::_Simple_types<char> >,1>::_Get_second, COMDAT
; _this$ = ecx

; 306  : 		{	// return const reference to second

  00000	55		 push	 ebp
  00001	8b ec		 mov	 ebp, esp
  00003	51		 push	 ecx
  00004	89 4d fc	 mov	 DWORD PTR _this$[ebp], ecx

; 307  : 		return (_Myval2);

  00007	8b 45 fc	 mov	 eax, DWORD PTR _this$[ebp]

; 308  : 		}

  0000a	8b e5		 mov	 esp, ebp
  0000c	5d		 pop	 ebp
  0000d	c3		 ret	 0
?_Get_second@?$_Compressed_pair@V?$allocator@D@std@@V?$_String_val@U?$_Simple_types@D@std@@@2@$00@std@@QBEABV?$_String_val@U?$_Simple_types@D@std@@@2@XZ ENDP ; std::_Compressed_pair<std::allocator<char>,std::_String_val<std::_Simple_types<char> >,1>::_Get_second
_TEXT	ENDS
; Function compile flags: /Odtp
; File c:\program files (x86)\microsoft visual studio\2017\community\vc\tools\msvc\14.16.27023\include\xutility
;	COMDAT ?_Get_second@?$_Compressed_pair@V?$allocator@D@std@@V?$_String_val@U?$_Simple_types@D@std@@@2@$00@std@@QAEAAV?$_String_val@U?$_Simple_types@D@std@@@2@XZ
_TEXT	SEGMENT
_this$ = -4						; size = 4
?_Get_second@?$_Compressed_pair@V?$allocator@D@std@@V?$_String_val@U?$_Simple_types@D@std@@@2@$00@std@@QAEAAV?$_String_val@U?$_Simple_types@D@std@@@2@XZ PROC ; std::_Compressed_pair<std::allocator<char>,std::_String_val<std::_Simple_types<char> >,1>::_Get_second, COMDAT
; _this$ = ecx

; 301  : 		{	// return reference to second

  00000	55		 push	 ebp
  00001	8b ec		 mov	 ebp, esp
  00003	51		 push	 ecx
  00004	89 4d fc	 mov	 DWORD PTR _this$[ebp], ecx

; 302  : 		return (_Myval2);

  00007	8b 45 fc	 mov	 eax, DWORD PTR _this$[ebp]

; 303  : 		}

  0000a	8b e5		 mov	 esp, ebp
  0000c	5d		 pop	 ebp
  0000d	c3		 ret	 0
?_Get_second@?$_Compressed_pair@V?$allocator@D@std@@V?$_String_val@U?$_Simple_types@D@std@@@2@$00@std@@QAEAAV?$_String_val@U?$_Simple_types@D@std@@@2@XZ ENDP ; std::_Compressed_pair<std::allocator<char>,std::_String_val<std::_Simple_types<char> >,1>::_Get_second
_TEXT	ENDS
; Function compile flags: /Odtp
; File c:\program files (x86)\microsoft visual studio\2017\community\vc\tools\msvc\14.16.27023\include\xutility
;	COMDAT ?_Get_first@?$_Compressed_pair@V?$allocator@D@std@@V?$_String_val@U?$_Simple_types@D@std@@@2@$00@std@@QBEABV?$allocator@D@2@XZ
_TEXT	SEGMENT
_this$ = -4						; size = 4
?_Get_first@?$_Compressed_pair@V?$allocator@D@std@@V?$_String_val@U?$_Simple_types@D@std@@@2@$00@std@@QBEABV?$allocator@D@2@XZ PROC ; std::_Compressed_pair<std::allocator<char>,std::_String_val<std::_Simple_types<char> >,1>::_Get_first, COMDAT
; _this$ = ecx

; 296  : 		{	// return const reference to first

  00000	55		 push	 ebp
  00001	8b ec		 mov	 ebp, esp
  00003	51		 push	 ecx
  00004	89 4d fc	 mov	 DWORD PTR _this$[ebp], ecx

; 297  : 		return (*this);

  00007	8b 45 fc	 mov	 eax, DWORD PTR _this$[ebp]

; 298  : 		}

  0000a	8b e5		 mov	 esp, ebp
  0000c	5d		 pop	 ebp
  0000d	c3		 ret	 0
?_Get_first@?$_Compressed_pair@V?$allocator@D@std@@V?$_String_val@U?$_Simple_types@D@std@@@2@$00@std@@QBEABV?$allocator@D@2@XZ ENDP ; std::_Compressed_pair<std::allocator<char>,std::_String_val<std::_Simple_types<char> >,1>::_Get_first
_TEXT	ENDS
; Function compile flags: /Odtp
; File c:\program files (x86)\microsoft visual studio\2017\community\vc\tools\msvc\14.16.27023\include\xutility
;	COMDAT ?_Get_first@?$_Compressed_pair@V?$allocator@D@std@@V?$_String_val@U?$_Simple_types@D@std@@@2@$00@std@@QAEAAV?$allocator@D@2@XZ
_TEXT	SEGMENT
_this$ = -4						; size = 4
?_Get_first@?$_Compressed_pair@V?$allocator@D@std@@V?$_String_val@U?$_Simple_types@D@std@@@2@$00@std@@QAEAAV?$allocator@D@2@XZ PROC ; std::_Compressed_pair<std::allocator<char>,std::_String_val<std::_Simple_types<char> >,1>::_Get_first, COMDAT
; _this$ = ecx

; 291  : 		{	// return reference to first

  00000	55		 push	 ebp
  00001	8b ec		 mov	 ebp, esp
  00003	51		 push	 ecx
  00004	89 4d fc	 mov	 DWORD PTR _this$[ebp], ecx

; 292  : 		return (*this);

  00007	8b 45 fc	 mov	 eax, DWORD PTR _this$[ebp]

; 293  : 		}

  0000a	8b e5		 mov	 esp, ebp
  0000c	5d		 pop	 ebp
  0000d	c3		 ret	 0
?_Get_first@?$_Compressed_pair@V?$allocator@D@std@@V?$_String_val@U?$_Simple_types@D@std@@@2@$00@std@@QAEAAV?$allocator@D@2@XZ ENDP ; std::_Compressed_pair<std::allocator<char>,std::_String_val<std::_Simple_types<char> >,1>::_Get_first
_TEXT	ENDS
; Function compile flags: /Odtp
; File c:\program files (x86)\microsoft visual studio\2017\community\vc\tools\msvc\14.16.27023\include\xstring
;	COMDAT ?_Get_data@?$_String_alloc@U?$_String_base_types@DV?$allocator@D@std@@@std@@@std@@QBEABV?$_String_val@U?$_Simple_types@D@std@@@2@XZ
_TEXT	SEGMENT
_this$ = -4						; size = 4
?_Get_data@?$_String_alloc@U?$_String_base_types@DV?$allocator@D@std@@@std@@@std@@QBEABV?$_String_val@U?$_Simple_types@D@std@@@2@XZ PROC ; std::_String_alloc<std::_String_base_types<char,std::allocator<char> > >::_Get_data, COMDAT
; _this$ = ecx

; 2047 : 		{	// return const reference to _String_val

  00000	55		 push	 ebp
  00001	8b ec		 mov	 ebp, esp
  00003	51		 push	 ecx
  00004	89 4d fc	 mov	 DWORD PTR _this$[ebp], ecx

; 2048 : 		return (_Mypair._Get_second());

  00007	8b 4d fc	 mov	 ecx, DWORD PTR _this$[ebp]
  0000a	e8 00 00 00 00	 call	 ?_Get_second@?$_Compressed_pair@V?$allocator@D@std@@V?$_String_val@U?$_Simple_types@D@std@@@2@$00@std@@QBEABV?$_String_val@U?$_Simple_types@D@std@@@2@XZ ; std::_Compressed_pair<std::allocator<char>,std::_String_val<std::_Simple_types<char> >,1>::_Get_second

; 2049 : 		}

  0000f	8b e5		 mov	 esp, ebp
  00011	5d		 pop	 ebp
  00012	c3		 ret	 0
?_Get_data@?$_String_alloc@U?$_String_base_types@DV?$allocator@D@std@@@std@@@std@@QBEABV?$_String_val@U?$_Simple_types@D@std@@@2@XZ ENDP ; std::_String_alloc<std::_String_base_types<char,std::allocator<char> > >::_Get_data
_TEXT	ENDS
; Function compile flags: /Odtp
; File c:\program files (x86)\microsoft visual studio\2017\community\vc\tools\msvc\14.16.27023\include\xstring
;	COMDAT ?_Get_data@?$_String_alloc@U?$_String_base_types@DV?$allocator@D@std@@@std@@@std@@QAEAAV?$_String_val@U?$_Simple_types@D@std@@@2@XZ
_TEXT	SEGMENT
_this$ = -4						; size = 4
?_Get_data@?$_String_alloc@U?$_String_base_types@DV?$allocator@D@std@@@std@@@std@@QAEAAV?$_String_val@U?$_Simple_types@D@std@@@2@XZ PROC ; std::_String_alloc<std::_String_base_types<char,std::allocator<char> > >::_Get_data, COMDAT
; _this$ = ecx

; 2042 : 		{	// return reference to _String_val

  00000	55		 push	 ebp
  00001	8b ec		 mov	 ebp, esp
  00003	51		 push	 ecx
  00004	89 4d fc	 mov	 DWORD PTR _this$[ebp], ecx

; 2043 : 		return (_Mypair._Get_second());

  00007	8b 4d fc	 mov	 ecx, DWORD PTR _this$[ebp]
  0000a	e8 00 00 00 00	 call	 ?_Get_second@?$_Compressed_pair@V?$allocator@D@std@@V?$_String_val@U?$_Simple_types@D@std@@@2@$00@std@@QAEAAV?$_String_val@U?$_Simple_types@D@std@@@2@XZ ; std::_Compressed_pair<std::allocator<char>,std::_String_val<std::_Simple_types<char> >,1>::_Get_second

; 2044 : 		}

  0000f	8b e5		 mov	 esp, ebp
  00011	5d		 pop	 ebp
  00012	c3		 ret	 0
?_Get_data@?$_String_alloc@U?$_String_base_types@DV?$allocator@D@std@@@std@@@std@@QAEAAV?$_String_val@U?$_Simple_types@D@std@@@2@XZ ENDP ; std::_String_alloc<std::_String_base_types<char,std::allocator<char> > >::_Get_data
_TEXT	ENDS
; Function compile flags: /Odtp
; File c:\program files (x86)\microsoft visual studio\2017\community\vc\tools\msvc\14.16.27023\include\xstring
;	COMDAT ?_Getal@?$_String_alloc@U?$_String_base_types@DV?$allocator@D@std@@@std@@@std@@QBEABV?$allocator@D@2@XZ
_TEXT	SEGMENT
_this$ = -4						; size = 4
?_Getal@?$_String_alloc@U?$_String_base_types@DV?$allocator@D@std@@@std@@@std@@QBEABV?$allocator@D@2@XZ PROC ; std::_String_alloc<std::_String_base_types<char,std::allocator<char> > >::_Getal, COMDAT
; _this$ = ecx

; 2037 : 		{	// return const reference to allocator

  00000	55		 push	 ebp
  00001	8b ec		 mov	 ebp, esp
  00003	51		 push	 ecx
  00004	89 4d fc	 mov	 DWORD PTR _this$[ebp], ecx

; 2038 : 		return (_Mypair._Get_first());

  00007	8b 4d fc	 mov	 ecx, DWORD PTR _this$[ebp]
  0000a	e8 00 00 00 00	 call	 ?_Get_first@?$_Compressed_pair@V?$allocator@D@std@@V?$_String_val@U?$_Simple_types@D@std@@@2@$00@std@@QBEABV?$allocator@D@2@XZ ; std::_Compressed_pair<std::allocator<char>,std::_String_val<std::_Simple_types<char> >,1>::_Get_first

; 2039 : 		}

  0000f	8b e5		 mov	 esp, ebp
  00011	5d		 pop	 ebp
  00012	c3		 ret	 0
?_Getal@?$_String_alloc@U?$_String_base_types@DV?$allocator@D@std@@@std@@@std@@QBEABV?$allocator@D@2@XZ ENDP ; std::_String_alloc<std::_String_base_types<char,std::allocator<char> > >::_Getal
_TEXT	ENDS
; Function compile flags: /Odtp
; File c:\program files (x86)\microsoft visual studio\2017\community\vc\tools\msvc\14.16.27023\include\xstring
;	COMDAT ?_Getal@?$_String_alloc@U?$_String_base_types@DV?$allocator@D@std@@@std@@@std@@QAEAAV?$allocator@D@2@XZ
_TEXT	SEGMENT
_this$ = -4						; size = 4
?_Getal@?$_String_alloc@U?$_String_base_types@DV?$allocator@D@std@@@std@@@std@@QAEAAV?$allocator@D@2@XZ PROC ; std::_String_alloc<std::_String_base_types<char,std::allocator<char> > >::_Getal, COMDAT
; _this$ = ecx

; 2032 : 		{	// return reference to allocator

  00000	55		 push	 ebp
  00001	8b ec		 mov	 ebp, esp
  00003	51		 push	 ecx
  00004	89 4d fc	 mov	 DWORD PTR _this$[ebp], ecx

; 2033 : 		return (_Mypair._Get_first());

  00007	8b 4d fc	 mov	 ecx, DWORD PTR _this$[ebp]
  0000a	e8 00 00 00 00	 call	 ?_Get_first@?$_Compressed_pair@V?$allocator@D@std@@V?$_String_val@U?$_Simple_types@D@std@@@2@$00@std@@QAEAAV?$allocator@D@2@XZ ; std::_Compressed_pair<std::allocator<char>,std::_String_val<std::_Simple_types<char> >,1>::_Get_first

; 2034 : 		}

  0000f	8b e5		 mov	 esp, ebp
  00011	5d		 pop	 ebp
  00012	c3		 ret	 0
?_Getal@?$_String_alloc@U?$_String_base_types@DV?$allocator@D@std@@@std@@@std@@QAEAAV?$allocator@D@2@XZ ENDP ; std::_String_alloc<std::_String_base_types<char,std::allocator<char> > >::_Getal
_TEXT	ENDS
; Function compile flags: /Odtp
; File c:\program files (x86)\microsoft visual studio\2017\community\vc\tools\msvc\14.16.27023\include\xstring
;	COMDAT ?_Orphan_all@?$_String_alloc@U?$_String_base_types@DV?$allocator@D@std@@@std@@@std@@QAEXXZ
_TEXT	SEGMENT
_this$ = -4						; size = 4
?_Orphan_all@?$_String_alloc@U?$_String_base_types@DV?$allocator@D@std@@@std@@@std@@QAEXXZ PROC ; std::_String_alloc<std::_String_base_types<char,std::allocator<char> > >::_Orphan_all, COMDAT
; _this$ = ecx

; 2022 : 		{	// orphan all iterators

  00000	55		 push	 ebp
  00001	8b ec		 mov	 ebp, esp
  00003	51		 push	 ecx
  00004	89 4d fc	 mov	 DWORD PTR _this$[ebp], ecx

; 2023 : 		_Get_data()._Orphan_all();

  00007	8b 4d fc	 mov	 ecx, DWORD PTR _this$[ebp]
  0000a	e8 00 00 00 00	 call	 ?_Get_data@?$_String_alloc@U?$_String_base_types@DV?$allocator@D@std@@@std@@@std@@QAEAAV?$_String_val@U?$_Simple_types@D@std@@@2@XZ ; std::_String_alloc<std::_String_base_types<char,std::allocator<char> > >::_Get_data
  0000f	8b c8		 mov	 ecx, eax
  00011	e8 00 00 00 00	 call	 ?_Orphan_all@_Container_base0@std@@QAEXXZ ; std::_Container_base0::_Orphan_all

; 2024 : 		}

  00016	8b e5		 mov	 esp, ebp
  00018	5d		 pop	 ebp
  00019	c3		 ret	 0
?_Orphan_all@?$_String_alloc@U?$_String_base_types@DV?$allocator@D@std@@@std@@@std@@QAEXXZ ENDP ; std::_String_alloc<std::_String_base_types<char,std::allocator<char> > >::_Orphan_all
_TEXT	ENDS
; Function compile flags: /Odtp
; File c:\program files (x86)\microsoft visual studio\2017\community\vc\tools\msvc\14.16.27023\include\xstring
;	COMDAT ??0?$_String_alloc@U?$_String_base_types@DV?$allocator@D@std@@@std@@@std@@QAE@XZ
_TEXT	SEGMENT
_this$ = -8						; size = 4
$T1 = -1						; size = 1
??0?$_String_alloc@U?$_String_base_types@DV?$allocator@D@std@@@std@@@std@@QAE@XZ PROC ; std::_String_alloc<std::_String_base_types<char,std::allocator<char> > >::_String_alloc<std::_String_base_types<char,std::allocator<char> > >, COMDAT
; _this$ = ecx

; 1910 : 		{	// default construct allocator

  00000	55		 push	 ebp
  00001	8b ec		 mov	 ebp, esp
  00003	83 ec 08	 sub	 esp, 8
  00006	89 4d f8	 mov	 DWORD PTR _this$[ebp], ecx

; 1909 : 		: _Mypair(_Zero_then_variadic_args_t())

  00009	0f b6 45 ff	 movzx	 eax, BYTE PTR $T1[ebp]
  0000d	50		 push	 eax
  0000e	8b 4d f8	 mov	 ecx, DWORD PTR _this$[ebp]
  00011	e8 00 00 00 00	 call	 ??$?0$$V@?$_Compressed_pair@V?$allocator@D@std@@V?$_String_val@U?$_Simple_types@D@std@@@2@$00@std@@QAE@U_Zero_then_variadic_args_t@1@@Z ; std::_Compressed_pair<std::allocator<char>,std::_String_val<std::_Simple_types<char> >,1>::_Compressed_pair<std::allocator<char>,std::_String_val<std::_Simple_types<char> >,1><>

; 1911 : 		}

  00016	8b 45 f8	 mov	 eax, DWORD PTR _this$[ebp]
  00019	8b e5		 mov	 esp, ebp
  0001b	5d		 pop	 ebp
  0001c	c3		 ret	 0
??0?$_String_alloc@U?$_String_base_types@DV?$allocator@D@std@@@std@@@std@@QAE@XZ ENDP ; std::_String_alloc<std::_String_base_types<char,std::allocator<char> > >::_String_alloc<std::_String_base_types<char,std::allocator<char> > >
_TEXT	ENDS
; Function compile flags: /Odtp
;	COMDAT ??1?$_String_val@U?$_Simple_types@D@std@@@std@@QAE@XZ
_TEXT	SEGMENT
_this$ = -4						; size = 4
??1?$_String_val@U?$_Simple_types@D@std@@@std@@QAE@XZ PROC ; std::_String_val<std::_Simple_types<char> >::~_String_val<std::_Simple_types<char> >, COMDAT
; _this$ = ecx
  00000	55		 push	 ebp
  00001	8b ec		 mov	 ebp, esp
  00003	51		 push	 ecx
  00004	89 4d fc	 mov	 DWORD PTR _this$[ebp], ecx
  00007	8b 4d fc	 mov	 ecx, DWORD PTR _this$[ebp]
  0000a	e8 00 00 00 00	 call	 ??1_Bxty@?$_String_val@U?$_Simple_types@D@std@@@std@@QAE@XZ ; std::_String_val<std::_Simple_types<char> >::_Bxty::~_Bxty
  0000f	8b e5		 mov	 esp, ebp
  00011	5d		 pop	 ebp
  00012	c3		 ret	 0
??1?$_String_val@U?$_Simple_types@D@std@@@std@@QAE@XZ ENDP ; std::_String_val<std::_Simple_types<char> >::~_String_val<std::_Simple_types<char> >
_TEXT	ENDS
; Function compile flags: /Odtp
; File c:\program files (x86)\microsoft visual studio\2017\community\vc\tools\msvc\14.16.27023\include\xstring
;	COMDAT ??1_Bxty@?$_String_val@U?$_Simple_types@D@std@@@std@@QAE@XZ
_TEXT	SEGMENT
_this$ = -4						; size = 4
??1_Bxty@?$_String_val@U?$_Simple_types@D@std@@@std@@QAE@XZ PROC ; std::_String_val<std::_Simple_types<char> >::_Bxty::~_Bxty, COMDAT
; _this$ = ecx

; 1861 : 			{	// user-provided, for fancy pointers

  00000	55		 push	 ebp
  00001	8b ec		 mov	 ebp, esp
  00003	51		 push	 ecx
  00004	89 4d fc	 mov	 DWORD PTR _this$[ebp], ecx

; 1862 : 			}

  00007	8b e5		 mov	 esp, ebp
  00009	5d		 pop	 ebp
  0000a	c3		 ret	 0
??1_Bxty@?$_String_val@U?$_Simple_types@D@std@@@std@@QAE@XZ ENDP ; std::_String_val<std::_Simple_types<char> >::_Bxty::~_Bxty
_TEXT	ENDS
; Function compile flags: /Odtp
; File c:\program files (x86)\microsoft visual studio\2017\community\vc\tools\msvc\14.16.27023\include\xstring
;	COMDAT ??0_Bxty@?$_String_val@U?$_Simple_types@D@std@@@std@@QAE@XZ
_TEXT	SEGMENT
_this$ = -4						; size = 4
??0_Bxty@?$_String_val@U?$_Simple_types@D@std@@@std@@QAE@XZ PROC ; std::_String_val<std::_Simple_types<char> >::_Bxty::_Bxty, COMDAT
; _this$ = ecx

; 1856 : 		_Bxty()

  00000	55		 push	 ebp
  00001	8b ec		 mov	 ebp, esp
  00003	51		 push	 ecx
  00004	89 4d fc	 mov	 DWORD PTR _this$[ebp], ecx

; 1857 : 			{	// user-provided, for fancy pointers
; 1858 : 			}

  00007	8b 45 fc	 mov	 eax, DWORD PTR _this$[ebp]
  0000a	8b e5		 mov	 esp, ebp
  0000c	5d		 pop	 ebp
  0000d	c3		 ret	 0
??0_Bxty@?$_String_val@U?$_Simple_types@D@std@@@std@@QAE@XZ ENDP ; std::_String_val<std::_Simple_types<char> >::_Bxty::_Bxty
_TEXT	ENDS
; Function compile flags: /Odtp
; File c:\program files (x86)\microsoft visual studio\2017\community\vc\tools\msvc\14.16.27023\include\xstring
;	COMDAT ?_Large_string_engaged@?$_String_val@U?$_Simple_types@D@std@@@std@@QBE_NXZ
_TEXT	SEGMENT
_this$ = -8						; size = 4
tv66 = -4						; size = 4
?_Large_string_engaged@?$_String_val@U?$_Simple_types@D@std@@@std@@QBE_NXZ PROC ; std::_String_val<std::_Simple_types<char> >::_Large_string_engaged, COMDAT
; _this$ = ecx

; 1824 : 		{	// returns whether the large string mode (allocated memory) is engaged

  00000	55		 push	 ebp
  00001	8b ec		 mov	 ebp, esp
  00003	83 ec 08	 sub	 esp, 8
  00006	89 4d f8	 mov	 DWORD PTR _this$[ebp], ecx

; 1825 : 		return (_BUF_SIZE <= _Myres);

  00009	8b 45 f8	 mov	 eax, DWORD PTR _this$[ebp]
  0000c	83 78 14 10	 cmp	 DWORD PTR [eax+20], 16	; 00000010H
  00010	72 09		 jb	 SHORT $LN3@Large_stri
  00012	c7 45 fc 01 00
	00 00		 mov	 DWORD PTR tv66[ebp], 1
  00019	eb 07		 jmp	 SHORT $LN4@Large_stri
$LN3@Large_stri:
  0001b	c7 45 fc 00 00
	00 00		 mov	 DWORD PTR tv66[ebp], 0
$LN4@Large_stri:
  00022	8a 45 fc	 mov	 al, BYTE PTR tv66[ebp]

; 1826 : 		}

  00025	8b e5		 mov	 esp, ebp
  00027	5d		 pop	 ebp
  00028	c3		 ret	 0
?_Large_string_engaged@?$_String_val@U?$_Simple_types@D@std@@@std@@QBE_NXZ ENDP ; std::_String_val<std::_Simple_types<char> >::_Large_string_engaged
_TEXT	ENDS
; Function compile flags: /Odtp
; File c:\program files (x86)\microsoft visual studio\2017\community\vc\tools\msvc\14.16.27023\include\xstring
;	COMDAT ?_Myptr@?$_String_val@U?$_Simple_types@D@std@@@std@@QBEPBDXZ
_TEXT	SEGMENT
__Result$ = -8						; size = 4
_this$ = -4						; size = 4
?_Myptr@?$_String_val@U?$_Simple_types@D@std@@@std@@QBEPBDXZ PROC ; std::_String_val<std::_Simple_types<char> >::_Myptr, COMDAT
; _this$ = ecx

; 1813 : 		{	// determine current pointer to buffer for immutable string

  00000	55		 push	 ebp
  00001	8b ec		 mov	 ebp, esp
  00003	83 ec 08	 sub	 esp, 8
  00006	89 4d fc	 mov	 DWORD PTR _this$[ebp], ecx

; 1814 : 		const value_type * _Result = _Bx._Buf;

  00009	8b 45 fc	 mov	 eax, DWORD PTR _this$[ebp]
  0000c	89 45 f8	 mov	 DWORD PTR __Result$[ebp], eax

; 1815 : 		if (_Large_string_engaged())

  0000f	8b 4d fc	 mov	 ecx, DWORD PTR _this$[ebp]
  00012	e8 00 00 00 00	 call	 ?_Large_string_engaged@?$_String_val@U?$_Simple_types@D@std@@@std@@QBE_NXZ ; std::_String_val<std::_Simple_types<char> >::_Large_string_engaged
  00017	0f b6 c8	 movzx	 ecx, al
  0001a	85 c9		 test	 ecx, ecx
  0001c	74 11		 je	 SHORT $LN2@Myptr

; 1816 : 			{
; 1817 : 			_Result = _Unfancy(_Bx._Ptr);

  0001e	8b 55 fc	 mov	 edx, DWORD PTR _this$[ebp]
  00021	8b 02		 mov	 eax, DWORD PTR [edx]
  00023	50		 push	 eax
  00024	e8 00 00 00 00	 call	 ??$_Unfancy@D@std@@YAPADPAD@Z ; std::_Unfancy<char>
  00029	83 c4 04	 add	 esp, 4
  0002c	89 45 f8	 mov	 DWORD PTR __Result$[ebp], eax
$LN2@Myptr:

; 1818 : 			}
; 1819 : 
; 1820 : 		return (_Result);

  0002f	8b 45 f8	 mov	 eax, DWORD PTR __Result$[ebp]

; 1821 : 		}

  00032	8b e5		 mov	 esp, ebp
  00034	5d		 pop	 ebp
  00035	c3		 ret	 0
?_Myptr@?$_String_val@U?$_Simple_types@D@std@@@std@@QBEPBDXZ ENDP ; std::_String_val<std::_Simple_types<char> >::_Myptr
_TEXT	ENDS
; Function compile flags: /Odtp
; File c:\program files (x86)\microsoft visual studio\2017\community\vc\tools\msvc\14.16.27023\include\xstring
;	COMDAT ?_Myptr@?$_String_val@U?$_Simple_types@D@std@@@std@@QAEPADXZ
_TEXT	SEGMENT
__Result$ = -8						; size = 4
_this$ = -4						; size = 4
?_Myptr@?$_String_val@U?$_Simple_types@D@std@@@std@@QAEPADXZ PROC ; std::_String_val<std::_Simple_types<char> >::_Myptr, COMDAT
; _this$ = ecx

; 1802 : 		{	// determine current pointer to buffer for mutable string

  00000	55		 push	 ebp
  00001	8b ec		 mov	 ebp, esp
  00003	83 ec 08	 sub	 esp, 8
  00006	89 4d fc	 mov	 DWORD PTR _this$[ebp], ecx

; 1803 : 		value_type * _Result = _Bx._Buf;

  00009	8b 45 fc	 mov	 eax, DWORD PTR _this$[ebp]
  0000c	89 45 f8	 mov	 DWORD PTR __Result$[ebp], eax

; 1804 : 		if (_Large_string_engaged())

  0000f	8b 4d fc	 mov	 ecx, DWORD PTR _this$[ebp]
  00012	e8 00 00 00 00	 call	 ?_Large_string_engaged@?$_String_val@U?$_Simple_types@D@std@@@std@@QBE_NXZ ; std::_String_val<std::_Simple_types<char> >::_Large_string_engaged
  00017	0f b6 c8	 movzx	 ecx, al
  0001a	85 c9		 test	 ecx, ecx
  0001c	74 11		 je	 SHORT $LN2@Myptr

; 1805 : 			{
; 1806 : 			_Result = _Unfancy(_Bx._Ptr);

  0001e	8b 55 fc	 mov	 edx, DWORD PTR _this$[ebp]
  00021	8b 02		 mov	 eax, DWORD PTR [edx]
  00023	50		 push	 eax
  00024	e8 00 00 00 00	 call	 ??$_Unfancy@D@std@@YAPADPAD@Z ; std::_Unfancy<char>
  00029	83 c4 04	 add	 esp, 4
  0002c	89 45 f8	 mov	 DWORD PTR __Result$[ebp], eax
$LN2@Myptr:

; 1807 : 			}
; 1808 : 
; 1809 : 		return (_Result);

  0002f	8b 45 f8	 mov	 eax, DWORD PTR __Result$[ebp]

; 1810 : 		}

  00032	8b e5		 mov	 esp, ebp
  00034	5d		 pop	 ebp
  00035	c3		 ret	 0
?_Myptr@?$_String_val@U?$_Simple_types@D@std@@@std@@QAEPADXZ ENDP ; std::_String_val<std::_Simple_types<char> >::_Myptr
_TEXT	ENDS
; Function compile flags: /Odtp
; File c:\program files (x86)\microsoft visual studio\2017\community\vc\tools\msvc\14.16.27023\include\xstring
;	COMDAT ??0?$_String_val@U?$_Simple_types@D@std@@@std@@QAE@XZ
_TEXT	SEGMENT
_this$ = -4						; size = 4
??0?$_String_val@U?$_Simple_types@D@std@@@std@@QAE@XZ PROC ; std::_String_val<std::_Simple_types<char> >::_String_val<std::_Simple_types<char> >, COMDAT
; _this$ = ecx

; 1786 : 		{	// initialize values

  00000	55		 push	 ebp
  00001	8b ec		 mov	 ebp, esp
  00003	51		 push	 ecx
  00004	89 4d fc	 mov	 DWORD PTR _this$[ebp], ecx

; 1783 : 		: _Bx(),

  00007	8b 4d fc	 mov	 ecx, DWORD PTR _this$[ebp]
  0000a	e8 00 00 00 00	 call	 ??0_Bxty@?$_String_val@U?$_Simple_types@D@std@@@std@@QAE@XZ ; std::_String_val<std::_Simple_types<char> >::_Bxty::_Bxty

; 1784 : 		_Mysize(0),

  0000f	8b 45 fc	 mov	 eax, DWORD PTR _this$[ebp]
  00012	c7 40 10 00 00
	00 00		 mov	 DWORD PTR [eax+16], 0

; 1785 : 		_Myres(0)

  00019	8b 4d fc	 mov	 ecx, DWORD PTR _this$[ebp]
  0001c	c7 41 14 00 00
	00 00		 mov	 DWORD PTR [ecx+20], 0

; 1787 : 		}

  00023	8b 45 fc	 mov	 eax, DWORD PTR _this$[ebp]
  00026	8b e5		 mov	 esp, ebp
  00028	5d		 pop	 ebp
  00029	c3		 ret	 0
??0?$_String_val@U?$_Simple_types@D@std@@@std@@QAE@XZ ENDP ; std::_String_val<std::_Simple_types<char> >::_String_val<std::_Simple_types<char> >
_TEXT	ENDS
; Function compile flags: /Odtp
; File c:\program files (x86)\microsoft visual studio\2017\community\vc\tools\msvc\14.16.27023\include\xmemory0
;	COMDAT ?select_on_container_copy_construction@?$_Default_allocator_traits@V?$allocator@D@std@@@std@@SA?AV?$allocator@D@2@ABV32@@Z
_TEXT	SEGMENT
___$ReturnUdt$ = 8					; size = 4
__Al$ = 12						; size = 4
?select_on_container_copy_construction@?$_Default_allocator_traits@V?$allocator@D@std@@@std@@SA?AV?$allocator@D@2@ABV32@@Z PROC ; std::_Default_allocator_traits<std::allocator<char> >::select_on_container_copy_construction, COMDAT

; 896  : 		{	// get allocator to use

  00000	55		 push	 ebp
  00001	8b ec		 mov	 ebp, esp

; 897  : 		return (_Al);

  00003	8b 45 08	 mov	 eax, DWORD PTR ___$ReturnUdt$[ebp]

; 898  : 		}

  00006	5d		 pop	 ebp
  00007	c3		 ret	 0
?select_on_container_copy_construction@?$_Default_allocator_traits@V?$allocator@D@std@@@std@@SA?AV?$allocator@D@2@ABV32@@Z ENDP ; std::_Default_allocator_traits<std::allocator<char> >::select_on_container_copy_construction
_TEXT	ENDS
; Function compile flags: /Odtp
; File c:\program files (x86)\microsoft visual studio\2017\community\vc\tools\msvc\14.16.27023\include\xmemory0
;	COMDAT ?max_size@?$_Default_allocator_traits@V?$allocator@D@std@@@std@@SAIABV?$allocator@D@2@@Z
_TEXT	SEGMENT
___formal$ = 8						; size = 4
?max_size@?$_Default_allocator_traits@V?$allocator@D@std@@@std@@SAIABV?$allocator@D@2@@Z PROC ; std::_Default_allocator_traits<std::allocator<char> >::max_size, COMDAT

; 891  : 		{	// get maximum size

  00000	55		 push	 ebp
  00001	8b ec		 mov	 ebp, esp

; 892  : 		return (static_cast<size_t>(-1) / sizeof(value_type));

  00003	83 c8 ff	 or	 eax, -1

; 893  : 		}

  00006	5d		 pop	 ebp
  00007	c3		 ret	 0
?max_size@?$_Default_allocator_traits@V?$allocator@D@std@@@std@@SAIABV?$allocator@D@2@@Z ENDP ; std::_Default_allocator_traits<std::allocator<char> >::max_size
_TEXT	ENDS
; Function compile flags: /Odtp
; File c:\program files (x86)\microsoft visual studio\2017\community\vc\tools\msvc\14.16.27023\include\xmemory0
;	COMDAT ?allocate@?$allocator@D@std@@QAEPADI@Z
_TEXT	SEGMENT
_this$ = -4						; size = 4
__Count$ = 8						; size = 4
?allocate@?$allocator@D@std@@QAEPADI@Z PROC		; std::allocator<char>::allocate, COMDAT
; _this$ = ecx

; 996  : 		{	// allocate array of _Count elements

  00000	55		 push	 ebp
  00001	8b ec		 mov	 ebp, esp
  00003	51		 push	 ecx
  00004	89 4d fc	 mov	 DWORD PTR _this$[ebp], ecx

; 997  : 		return (static_cast<_Ty *>(_Allocate<_New_alignof<_Ty>>(_Get_size_of_n<sizeof(_Ty)>(_Count))));

  00007	8b 45 08	 mov	 eax, DWORD PTR __Count$[ebp]
  0000a	50		 push	 eax
  0000b	e8 00 00 00 00	 call	 ??$_Get_size_of_n@$00@std@@YAII@Z ; std::_Get_size_of_n<1>
  00010	83 c4 04	 add	 esp, 4
  00013	50		 push	 eax
  00014	e8 00 00 00 00	 call	 ??$_Allocate@$07U_Default_allocate_traits@std@@$0A@@std@@YAPAXI@Z ; std::_Allocate<8,std::_Default_allocate_traits,0>
  00019	83 c4 04	 add	 esp, 4

; 998  : 		}

  0001c	8b e5		 mov	 esp, ebp
  0001e	5d		 pop	 ebp
  0001f	c2 04 00	 ret	 4
?allocate@?$allocator@D@std@@QAEPADI@Z ENDP		; std::allocator<char>::allocate
_TEXT	ENDS
; Function compile flags: /Odtp
; File c:\program files (x86)\microsoft visual studio\2017\community\vc\tools\msvc\14.16.27023\include\xmemory0
;	COMDAT ?deallocate@?$allocator@D@std@@QAEXQADI@Z
_TEXT	SEGMENT
_this$ = -4						; size = 4
__Ptr$ = 8						; size = 4
__Count$ = 12						; size = 4
?deallocate@?$allocator@D@std@@QAEXQADI@Z PROC		; std::allocator<char>::deallocate, COMDAT
; _this$ = ecx

; 990  : 		{	// deallocate object at _Ptr

  00000	55		 push	 ebp
  00001	8b ec		 mov	 ebp, esp
  00003	51		 push	 ecx
  00004	89 4d fc	 mov	 DWORD PTR _this$[ebp], ecx

; 991  : 		// no overflow check on the following multiply; we assume _Allocate did that check
; 992  : 		_Deallocate<_New_alignof<_Ty>>(_Ptr, sizeof(_Ty) * _Count);

  00007	8b 45 0c	 mov	 eax, DWORD PTR __Count$[ebp]
  0000a	50		 push	 eax
  0000b	8b 4d 08	 mov	 ecx, DWORD PTR __Ptr$[ebp]
  0000e	51		 push	 ecx
  0000f	e8 00 00 00 00	 call	 ??$_Deallocate@$07$0A@@std@@YAXPAXI@Z ; std::_Deallocate<8,0>
  00014	83 c4 08	 add	 esp, 8

; 993  : 		}

  00017	8b e5		 mov	 esp, ebp
  00019	5d		 pop	 ebp
  0001a	c2 08 00	 ret	 8
?deallocate@?$allocator@D@std@@QAEXQADI@Z ENDP		; std::allocator<char>::deallocate
_TEXT	ENDS
; Function compile flags: /Odtp
; File c:\program files (x86)\microsoft visual studio\2017\community\vc\tools\msvc\14.16.27023\include\xmemory0
;	COMDAT ??0?$allocator@D@std@@QAE@XZ
_TEXT	SEGMENT
_this$ = -4						; size = 4
??0?$allocator@D@std@@QAE@XZ PROC			; std::allocator<char>::allocator<char>, COMDAT
; _this$ = ecx

; 979  : 	constexpr allocator() noexcept

  00000	55		 push	 ebp
  00001	8b ec		 mov	 ebp, esp
  00003	51		 push	 ecx
  00004	89 4d fc	 mov	 DWORD PTR _this$[ebp], ecx

; 980  : 		{	// construct default allocator (do nothing)
; 981  : 		}

  00007	8b 45 fc	 mov	 eax, DWORD PTR _this$[ebp]
  0000a	8b e5		 mov	 esp, ebp
  0000c	5d		 pop	 ebp
  0000d	c3		 ret	 0
??0?$allocator@D@std@@QAE@XZ ENDP			; std::allocator<char>::allocator<char>
_TEXT	ENDS
; Function compile flags: /Odtp
; File c:\program files (x86)\microsoft visual studio\2017\community\vc\tools\msvc\14.16.27023\include\xmemory0
;	COMDAT ??$_Convert_size@I@std@@YAII@Z
_TEXT	SEGMENT
__Len$ = 8						; size = 4
??$_Convert_size@I@std@@YAII@Z PROC			; std::_Convert_size<unsigned int>, COMDAT

; 1203 : 	{	// convert size_t to size_t, unchanged

  00000	55		 push	 ebp
  00001	8b ec		 mov	 ebp, esp

; 1204 : 	return (_Len);

  00003	8b 45 08	 mov	 eax, DWORD PTR __Len$[ebp]

; 1205 : 	}

  00006	5d		 pop	 ebp
  00007	c3		 ret	 0
??$_Convert_size@I@std@@YAII@Z ENDP			; std::_Convert_size<unsigned int>
_TEXT	ENDS
; Function compile flags: /Odtp
; File c:\program files (x86)\microsoft visual studio\2017\community\vc\tools\msvc\14.16.27023\include\xmemory0
;	COMDAT ?_Adjust_manually_vector_aligned@std@@YAXAAPAXAAI@Z
_TEXT	SEGMENT
__Min_back_shift$ = -16					; size = 4
__Ptr_user$ = -12					; size = 4
__Ptr_container$ = -8					; size = 4
__Back_shift$ = -4					; size = 4
__Ptr$ = 8						; size = 4
__Bytes$ = 12						; size = 4
?_Adjust_manually_vector_aligned@std@@YAXAAPAXAAI@Z PROC ; std::_Adjust_manually_vector_aligned, COMDAT

; 114  : 	{	// adjust parameters from _Allocate_manually_vector_aligned to pass to operator delete

  00000	55		 push	 ebp
  00001	8b ec		 mov	 ebp, esp
  00003	83 ec 10	 sub	 esp, 16			; 00000010H

; 115  : 	_Bytes += _Non_user_size;

  00006	8b 45 0c	 mov	 eax, DWORD PTR __Bytes$[ebp]
  00009	8b 08		 mov	 ecx, DWORD PTR [eax]
  0000b	83 c1 23	 add	 ecx, 35			; 00000023H
  0000e	8b 55 0c	 mov	 edx, DWORD PTR __Bytes$[ebp]
  00011	89 0a		 mov	 DWORD PTR [edx], ecx

; 116  : 
; 117  : 	const uintptr_t * const _Ptr_user = reinterpret_cast<uintptr_t *>(_Ptr);

  00013	8b 45 08	 mov	 eax, DWORD PTR __Ptr$[ebp]
  00016	8b 08		 mov	 ecx, DWORD PTR [eax]
  00018	89 4d f4	 mov	 DWORD PTR __Ptr_user$[ebp], ecx

; 118  : 	const uintptr_t _Ptr_container = _Ptr_user[-1];

  0001b	ba 04 00 00 00	 mov	 edx, 4
  00020	6b c2 ff	 imul	 eax, edx, -1
  00023	8b 4d f4	 mov	 ecx, DWORD PTR __Ptr_user$[ebp]
  00026	8b 14 01	 mov	 edx, DWORD PTR [ecx+eax]
  00029	89 55 f8	 mov	 DWORD PTR __Ptr_container$[ebp], edx

; 119  : 
; 120  : 	// If the following asserts, it likely means that we are performing
; 121  : 	// an aligned delete on memory coming from an unaligned allocation.
; 122  : 	_STL_ASSERT(_Ptr_user[-2] == _Big_allocation_sentinel, "invalid argument");
; 123  : 
; 124  : 	// Extra paranoia on aligned allocation/deallocation; ensure _Ptr_container is
; 125  : 	// in range [_Min_back_shift, _Non_user_size]
; 126  :   #ifdef _DEBUG
; 127  : 	constexpr uintptr_t _Min_back_shift = 2 * sizeof(void *);
; 128  :   #else /* ^^^ _DEBUG ^^^ // vvv !_DEBUG vvv */
; 129  : 	constexpr uintptr_t _Min_back_shift = sizeof(void *);

  0002c	c7 45 f0 04 00
	00 00		 mov	 DWORD PTR __Min_back_shift$[ebp], 4

; 130  :   #endif /* _DEBUG */
; 131  : 	const uintptr_t _Back_shift = reinterpret_cast<uintptr_t>(_Ptr) - _Ptr_container;

  00033	8b 45 08	 mov	 eax, DWORD PTR __Ptr$[ebp]
  00036	8b 08		 mov	 ecx, DWORD PTR [eax]
  00038	2b 4d f8	 sub	 ecx, DWORD PTR __Ptr_container$[ebp]
  0003b	89 4d fc	 mov	 DWORD PTR __Back_shift$[ebp], ecx
$LN4@Adjust_man:

; 132  : 	_STL_VERIFY(_Back_shift >= _Min_back_shift && _Back_shift <= _Non_user_size, "invalid argument");

  0003e	83 7d fc 04	 cmp	 DWORD PTR __Back_shift$[ebp], 4
  00042	72 08		 jb	 SHORT $LN7@Adjust_man
  00044	83 7d fc 23	 cmp	 DWORD PTR __Back_shift$[ebp], 35 ; 00000023H
  00048	77 02		 ja	 SHORT $LN7@Adjust_man
  0004a	eb 09		 jmp	 SHORT $LN2@Adjust_man
$LN7@Adjust_man:
  0004c	e8 00 00 00 00	 call	 __invalid_parameter_noinfo_noreturn
  00051	33 d2		 xor	 edx, edx
  00053	75 f7		 jne	 SHORT $LN7@Adjust_man
$LN2@Adjust_man:
  00055	33 c0		 xor	 eax, eax
  00057	75 e5		 jne	 SHORT $LN4@Adjust_man

; 133  : 	_Ptr = reinterpret_cast<void *>(_Ptr_container);

  00059	8b 4d 08	 mov	 ecx, DWORD PTR __Ptr$[ebp]
  0005c	8b 55 f8	 mov	 edx, DWORD PTR __Ptr_container$[ebp]
  0005f	89 11		 mov	 DWORD PTR [ecx], edx
$LN10@Adjust_man:

; 134  : 	}

  00061	8b e5		 mov	 esp, ebp
  00063	5d		 pop	 ebp
  00064	c3		 ret	 0
?_Adjust_manually_vector_aligned@std@@YAXAAPAXAAI@Z ENDP ; std::_Adjust_manually_vector_aligned
_TEXT	ENDS
; Function compile flags: /Odtp
; File c:\program files (x86)\microsoft visual studio\2017\community\vc\tools\msvc\14.16.27023\include\xmemory0
;	COMDAT ?_Allocate@_Default_allocate_traits@std@@SAPAXI@Z
_TEXT	SEGMENT
__Bytes$ = 8						; size = 4
?_Allocate@_Default_allocate_traits@std@@SAPAXI@Z PROC	; std::_Default_allocate_traits::_Allocate, COMDAT

; 51   : 		{

  00000	55		 push	 ebp
  00001	8b ec		 mov	 ebp, esp

; 52   : 		return (::operator new(_Bytes));

  00003	8b 45 08	 mov	 eax, DWORD PTR __Bytes$[ebp]
  00006	50		 push	 eax
  00007	e8 00 00 00 00	 call	 ??2@YAPAXI@Z		; operator new
  0000c	83 c4 04	 add	 esp, 4

; 53   : 		}

  0000f	5d		 pop	 ebp
  00010	c3		 ret	 0
?_Allocate@_Default_allocate_traits@std@@SAPAXI@Z ENDP	; std::_Default_allocate_traits::_Allocate
_TEXT	ENDS
; Function compile flags: /Odtp
; File c:\program files (x86)\microsoft visual studio\2017\community\vc\tools\msvc\14.16.27023\include\xmemory0
;	COMDAT ??$_Get_size_of_n@$00@std@@YAII@Z
_TEXT	SEGMENT
__Count$ = 8						; size = 4
??$_Get_size_of_n@$00@std@@YAII@Z PROC			; std::_Get_size_of_n<1>, COMDAT

; 37   : 	{	// gets the size of _Count copies of a type with size 1

  00000	55		 push	 ebp
  00001	8b ec		 mov	 ebp, esp

; 38   : 	return (_Count);

  00003	8b 45 08	 mov	 eax, DWORD PTR __Count$[ebp]

; 39   : 	}

  00006	5d		 pop	 ebp
  00007	c3		 ret	 0
??$_Get_size_of_n@$00@std@@YAII@Z ENDP			; std::_Get_size_of_n<1>
_TEXT	ENDS
; Function compile flags: /Odtp
; File c:\program files (x86)\microsoft visual studio\2017\community\vc\tools\msvc\14.16.27023\include\xutility
;	COMDAT ?_Orphan_all@_Container_base0@std@@QAEXXZ
_TEXT	SEGMENT
_this$ = -4						; size = 4
?_Orphan_all@_Container_base0@std@@QAEXXZ PROC		; std::_Container_base0::_Orphan_all, COMDAT
; _this$ = ecx

; 42   : 		{	// orphan all iterators

  00000	55		 push	 ebp
  00001	8b ec		 mov	 ebp, esp
  00003	51		 push	 ecx
  00004	89 4d fc	 mov	 DWORD PTR _this$[ebp], ecx

; 43   : 		}

  00007	8b e5		 mov	 esp, ebp
  00009	5d		 pop	 ebp
  0000a	c3		 ret	 0
?_Orphan_all@_Container_base0@std@@QAEXXZ ENDP		; std::_Container_base0::_Orphan_all
_TEXT	ENDS
; Function compile flags: /Odtp
; File c:\program files (x86)\microsoft visual studio\2017\community\vc\tools\msvc\14.16.27023\include\iosfwd
;	COMDAT ?eof@?$char_traits@D@std@@SAHXZ
_TEXT	SEGMENT
?eof@?$char_traits@D@std@@SAHXZ PROC			; std::char_traits<char>::eof, COMDAT

; 540  : 		{	// return end-of-file metacharacter

  00000	55		 push	 ebp
  00001	8b ec		 mov	 ebp, esp

; 541  : 		return (EOF);

  00003	83 c8 ff	 or	 eax, -1

; 542  : 		}

  00006	5d		 pop	 ebp
  00007	c3		 ret	 0
?eof@?$char_traits@D@std@@SAHXZ ENDP			; std::char_traits<char>::eof
_TEXT	ENDS
; Function compile flags: /Odtp
; File c:\program files (x86)\microsoft visual studio\2017\community\vc\tools\msvc\14.16.27023\include\iosfwd
;	COMDAT ?eq_int_type@?$char_traits@D@std@@SA_NABH0@Z
_TEXT	SEGMENT
tv65 = -4						; size = 4
__Left$ = 8						; size = 4
__Right$ = 12						; size = 4
?eq_int_type@?$char_traits@D@std@@SA_NABH0@Z PROC	; std::char_traits<char>::eq_int_type, COMDAT

; 530  : 		{	// test for metacharacter equality

  00000	55		 push	 ebp
  00001	8b ec		 mov	 ebp, esp
  00003	51		 push	 ecx

; 531  : 		return (_Left == _Right);

  00004	8b 45 08	 mov	 eax, DWORD PTR __Left$[ebp]
  00007	8b 4d 0c	 mov	 ecx, DWORD PTR __Right$[ebp]
  0000a	8b 10		 mov	 edx, DWORD PTR [eax]
  0000c	3b 11		 cmp	 edx, DWORD PTR [ecx]
  0000e	75 09		 jne	 SHORT $LN3@eq_int_typ
  00010	c7 45 fc 01 00
	00 00		 mov	 DWORD PTR tv65[ebp], 1
  00017	eb 07		 jmp	 SHORT $LN4@eq_int_typ
$LN3@eq_int_typ:
  00019	c7 45 fc 00 00
	00 00		 mov	 DWORD PTR tv65[ebp], 0
$LN4@eq_int_typ:
  00020	8a 45 fc	 mov	 al, BYTE PTR tv65[ebp]

; 532  : 		}

  00023	8b e5		 mov	 esp, ebp
  00025	5d		 pop	 ebp
  00026	c3		 ret	 0
?eq_int_type@?$char_traits@D@std@@SA_NABH0@Z ENDP	; std::char_traits<char>::eq_int_type
_TEXT	ENDS
; Function compile flags: /Odtp
; File c:\program files (x86)\microsoft visual studio\2017\community\vc\tools\msvc\14.16.27023\include\iosfwd
;	COMDAT ?to_int_type@?$char_traits@D@std@@SAHABD@Z
_TEXT	SEGMENT
__Ch$ = 8						; size = 4
?to_int_type@?$char_traits@D@std@@SAHABD@Z PROC		; std::char_traits<char>::to_int_type, COMDAT

; 525  : 		{	// convert character to metacharacter

  00000	55		 push	 ebp
  00001	8b ec		 mov	 ebp, esp

; 526  : 		return (static_cast<unsigned char>(_Ch));

  00003	8b 45 08	 mov	 eax, DWORD PTR __Ch$[ebp]
  00006	0f b6 00	 movzx	 eax, BYTE PTR [eax]

; 527  : 		}

  00009	5d		 pop	 ebp
  0000a	c3		 ret	 0
?to_int_type@?$char_traits@D@std@@SAHABD@Z ENDP		; std::char_traits<char>::to_int_type
_TEXT	ENDS
; Function compile flags: /Odtp
; File c:\program files (x86)\microsoft visual studio\2017\community\vc\tools\msvc\14.16.27023\include\iosfwd
;	COMDAT ?assign@?$char_traits@D@std@@SAXAADABD@Z
_TEXT	SEGMENT
__Left$ = 8						; size = 4
__Right$ = 12						; size = 4
?assign@?$char_traits@D@std@@SAXAADABD@Z PROC		; std::char_traits<char>::assign, COMDAT

; 505  : 		{	// assign an element

  00000	55		 push	 ebp
  00001	8b ec		 mov	 ebp, esp

; 506  : 		_Left = _Right;

  00003	8b 45 08	 mov	 eax, DWORD PTR __Left$[ebp]
  00006	8b 4d 0c	 mov	 ecx, DWORD PTR __Right$[ebp]
  00009	8a 11		 mov	 dl, BYTE PTR [ecx]
  0000b	88 10		 mov	 BYTE PTR [eax], dl

; 507  : 		}

  0000d	5d		 pop	 ebp
  0000e	c3		 ret	 0
?assign@?$char_traits@D@std@@SAXAADABD@Z ENDP		; std::char_traits<char>::assign
_TEXT	ENDS
; Function compile flags: /Odtp
; File c:\program files (x86)\microsoft visual studio\2017\community\vc\tools\msvc\14.16.27023\include\iosfwd
;	COMDAT ?move@?$char_traits@D@std@@SAPADQADQBDI@Z
_TEXT	SEGMENT
__First1$ = 8						; size = 4
__First2$ = 12						; size = 4
__Count$ = 16						; size = 4
?move@?$char_traits@D@std@@SAPADQADQBDI@Z PROC		; std::char_traits<char>::move, COMDAT

; 494  : 		{	// copy [_First2, _First2 + _Count) to [_First1, ...)

  00000	55		 push	 ebp
  00001	8b ec		 mov	 ebp, esp

; 495  : 		return (static_cast<char *>(_CSTD memmove(_First1, _First2, _Count)));

  00003	8b 45 10	 mov	 eax, DWORD PTR __Count$[ebp]
  00006	50		 push	 eax
  00007	8b 4d 0c	 mov	 ecx, DWORD PTR __First2$[ebp]
  0000a	51		 push	 ecx
  0000b	8b 55 08	 mov	 edx, DWORD PTR __First1$[ebp]
  0000e	52		 push	 edx
  0000f	e8 00 00 00 00	 call	 _memmove
  00014	83 c4 0c	 add	 esp, 12			; 0000000cH

; 496  : 		}

  00017	5d		 pop	 ebp
  00018	c3		 ret	 0
?move@?$char_traits@D@std@@SAPADQADQBDI@Z ENDP		; std::char_traits<char>::move
_TEXT	ENDS
; Function compile flags: /Odtp
; File c:\program files (x86)\microsoft visual studio\2017\community\vc\tools\msvc\14.16.27023\include\iosfwd
;	COMDAT ?copy@?$char_traits@D@std@@SAPADQADQBDI@Z
_TEXT	SEGMENT
__First1$ = 8						; size = 4
__First2$ = 12						; size = 4
__Count$ = 16						; size = 4
?copy@?$char_traits@D@std@@SAPADQADQBDI@Z PROC		; std::char_traits<char>::copy, COMDAT

; 470  : 		{	// copy [_First2, _First2 + _Count) to [_First1, ...)

  00000	55		 push	 ebp
  00001	8b ec		 mov	 ebp, esp

; 471  : 		return (static_cast<char *>(_CSTD memcpy(_First1, _First2, _Count)));

  00003	8b 45 10	 mov	 eax, DWORD PTR __Count$[ebp]
  00006	50		 push	 eax
  00007	8b 4d 0c	 mov	 ecx, DWORD PTR __First2$[ebp]
  0000a	51		 push	 ecx
  0000b	8b 55 08	 mov	 edx, DWORD PTR __First1$[ebp]
  0000e	52		 push	 edx
  0000f	e8 00 00 00 00	 call	 _memcpy
  00014	83 c4 0c	 add	 esp, 12			; 0000000cH

; 472  : 		}

  00017	5d		 pop	 ebp
  00018	c3		 ret	 0
?copy@?$char_traits@D@std@@SAPADQADQBDI@Z ENDP		; std::char_traits<char>::copy
_TEXT	ENDS
; Function compile flags: /Odtp
; File c:\program files (x86)\microsoft visual studio\2017\community\vc\tools\msvc\14.16.27023\include\iosfwd
;	COMDAT ?length@?$char_traits@D@std@@SAIQBD@Z
_TEXT	SEGMENT
tv66 = -16						; size = 4
tv71 = -12						; size = 4
tv68 = -8						; size = 4
tv74 = -1						; size = 1
__First$ = 8						; size = 4
?length@?$char_traits@D@std@@SAIQBD@Z PROC		; std::char_traits<char>::length, COMDAT

; 460  : 		{	// find length of null-terminated string

  00000	55		 push	 ebp
  00001	8b ec		 mov	 ebp, esp
  00003	83 ec 10	 sub	 esp, 16			; 00000010H

; 461  : #if _HAS_CXX17
; 462  : 		return (__builtin_strlen(_First));
; 463  : #else /* _HAS_CXX17 */
; 464  : 		return (_CSTD strlen(_First));

  00006	8b 45 08	 mov	 eax, DWORD PTR __First$[ebp]
  00009	89 45 f8	 mov	 DWORD PTR tv68[ebp], eax
  0000c	8b 4d f8	 mov	 ecx, DWORD PTR tv68[ebp]
  0000f	83 c1 01	 add	 ecx, 1
  00012	89 4d f4	 mov	 DWORD PTR tv71[ebp], ecx
$LL3@length:
  00015	8b 55 f8	 mov	 edx, DWORD PTR tv68[ebp]
  00018	8a 02		 mov	 al, BYTE PTR [edx]
  0001a	88 45 ff	 mov	 BYTE PTR tv74[ebp], al
  0001d	83 45 f8 01	 add	 DWORD PTR tv68[ebp], 1
  00021	80 7d ff 00	 cmp	 BYTE PTR tv74[ebp], 0
  00025	75 ee		 jne	 SHORT $LL3@length
  00027	8b 4d f8	 mov	 ecx, DWORD PTR tv68[ebp]
  0002a	2b 4d f4	 sub	 ecx, DWORD PTR tv71[ebp]
  0002d	89 4d f0	 mov	 DWORD PTR tv66[ebp], ecx
  00030	8b 45 f0	 mov	 eax, DWORD PTR tv66[ebp]

; 465  : #endif /* _HAS_CXX17 */
; 466  : 		}

  00033	8b e5		 mov	 esp, ebp
  00035	5d		 pop	 ebp
  00036	c3		 ret	 0
?length@?$char_traits@D@std@@SAIQBD@Z ENDP		; std::char_traits<char>::length
_TEXT	ENDS
; Function compile flags: /Odtp
; File c:\program files (x86)\microsoft visual studio\2017\community\vc\tools\msvc\14.16.27023\include\limits
;	COMDAT ?max@?$numeric_limits@H@std@@SAHXZ
_TEXT	SEGMENT
?max@?$numeric_limits@H@std@@SAHXZ PROC			; std::numeric_limits<int>::max, COMDAT

; 616  : 		{	// return maximum value

  00000	55		 push	 ebp
  00001	8b ec		 mov	 ebp, esp

; 617  : 		return (INT_MAX);

  00003	b8 ff ff ff 7f	 mov	 eax, 2147483647		; 7fffffffH

; 618  : 		}

  00008	5d		 pop	 ebp
  00009	c3		 ret	 0
?max@?$numeric_limits@H@std@@SAHXZ ENDP			; std::numeric_limits<int>::max
_TEXT	ENDS
; Function compile flags: /Odtp
;	COMDAT ??_Gexception@std@@UAEPAXI@Z
_TEXT	SEGMENT
_this$ = -4						; size = 4
___flags$ = 8						; size = 4
??_Gexception@std@@UAEPAXI@Z PROC			; std::exception::`scalar deleting destructor', COMDAT
; _this$ = ecx
  00000	55		 push	 ebp
  00001	8b ec		 mov	 ebp, esp
  00003	51		 push	 ecx
  00004	89 4d fc	 mov	 DWORD PTR _this$[ebp], ecx
  00007	8b 4d fc	 mov	 ecx, DWORD PTR _this$[ebp]
  0000a	e8 00 00 00 00	 call	 ??1exception@std@@UAE@XZ ; std::exception::~exception
  0000f	8b 45 08	 mov	 eax, DWORD PTR ___flags$[ebp]
  00012	83 e0 01	 and	 eax, 1
  00015	74 0e		 je	 SHORT $LN2@scalar
  00017	6a 0c		 push	 12			; 0000000cH
  00019	8b 4d fc	 mov	 ecx, DWORD PTR _this$[ebp]
  0001c	51		 push	 ecx
  0001d	e8 00 00 00 00	 call	 ??3@YAXPAXI@Z		; operator delete
  00022	83 c4 08	 add	 esp, 8
$LN2@scalar:
  00025	8b 45 fc	 mov	 eax, DWORD PTR _this$[ebp]
  00028	8b e5		 mov	 esp, ebp
  0002a	5d		 pop	 ebp
  0002b	c2 04 00	 ret	 4
??_Gexception@std@@UAEPAXI@Z ENDP			; std::exception::`scalar deleting destructor'
_TEXT	ENDS
; Function compile flags: /Odtp
; File c:\program files (x86)\microsoft visual studio\2017\community\vc\tools\msvc\14.16.27023\include\vcruntime_exception.h
;	COMDAT ?what@exception@std@@UBEPBDXZ
_TEXT	SEGMENT
tv69 = -8						; size = 4
_this$ = -4						; size = 4
?what@exception@std@@UBEPBDXZ PROC			; std::exception::what, COMDAT
; _this$ = ecx

; 90   :     {

  00000	55		 push	 ebp
  00001	8b ec		 mov	 ebp, esp
  00003	83 ec 08	 sub	 esp, 8
  00006	89 4d fc	 mov	 DWORD PTR _this$[ebp], ecx

; 91   :         return _Data._What ? _Data._What : "Unknown exception";

  00009	8b 45 fc	 mov	 eax, DWORD PTR _this$[ebp]
  0000c	83 78 04 00	 cmp	 DWORD PTR [eax+4], 0
  00010	74 0b		 je	 SHORT $LN3@what
  00012	8b 4d fc	 mov	 ecx, DWORD PTR _this$[ebp]
  00015	8b 51 04	 mov	 edx, DWORD PTR [ecx+4]
  00018	89 55 f8	 mov	 DWORD PTR tv69[ebp], edx
  0001b	eb 07		 jmp	 SHORT $LN4@what
$LN3@what:
  0001d	c7 45 f8 00 00
	00 00		 mov	 DWORD PTR tv69[ebp], OFFSET ??_C@_0BC@EOODALEL@Unknown?5exception@
$LN4@what:
  00024	8b 45 f8	 mov	 eax, DWORD PTR tv69[ebp]

; 92   :     }

  00027	8b e5		 mov	 esp, ebp
  00029	5d		 pop	 ebp
  0002a	c3		 ret	 0
?what@exception@std@@UBEPBDXZ ENDP			; std::exception::what
_TEXT	ENDS
; Function compile flags: /Odtp
; File c:\program files (x86)\microsoft visual studio\2017\community\vc\tools\msvc\14.16.27023\include\vcruntime_exception.h
;	COMDAT ??1exception@std@@UAE@XZ
_TEXT	SEGMENT
_this$ = -4						; size = 4
??1exception@std@@UAE@XZ PROC				; std::exception::~exception, COMDAT
; _this$ = ecx

; 85   :     {

  00000	55		 push	 ebp
  00001	8b ec		 mov	 ebp, esp
  00003	51		 push	 ecx
  00004	89 4d fc	 mov	 DWORD PTR _this$[ebp], ecx
  00007	8b 45 fc	 mov	 eax, DWORD PTR _this$[ebp]
  0000a	c7 00 00 00 00
	00		 mov	 DWORD PTR [eax], OFFSET ??_7exception@std@@6B@

; 86   :         __std_exception_destroy(&_Data);

  00010	8b 4d fc	 mov	 ecx, DWORD PTR _this$[ebp]
  00013	83 c1 04	 add	 ecx, 4
  00016	51		 push	 ecx
  00017	e8 00 00 00 00	 call	 ___std_exception_destroy
  0001c	83 c4 04	 add	 esp, 4

; 87   :     }

  0001f	8b e5		 mov	 esp, ebp
  00021	5d		 pop	 ebp
  00022	c3		 ret	 0
??1exception@std@@UAE@XZ ENDP				; std::exception::~exception
_TEXT	ENDS
; Function compile flags: /Odtp
; File c:\program files (x86)\microsoft visual studio\2017\community\vc\tools\msvc\14.16.27023\include\vcruntime_exception.h
;	COMDAT ??0exception@std@@QAE@ABV01@@Z
_TEXT	SEGMENT
_this$ = -4						; size = 4
__Other$ = 8						; size = 4
??0exception@std@@QAE@ABV01@@Z PROC			; std::exception::exception, COMDAT
; _this$ = ecx

; 68   :     {

  00000	55		 push	 ebp
  00001	8b ec		 mov	 ebp, esp
  00003	51		 push	 ecx
  00004	89 4d fc	 mov	 DWORD PTR _this$[ebp], ecx
  00007	8b 45 fc	 mov	 eax, DWORD PTR _this$[ebp]
  0000a	c7 00 00 00 00
	00		 mov	 DWORD PTR [eax], OFFSET ??_7exception@std@@6B@

; 67   :         : _Data()

  00010	33 c9		 xor	 ecx, ecx
  00012	8b 55 fc	 mov	 edx, DWORD PTR _this$[ebp]
  00015	83 c2 04	 add	 edx, 4
  00018	89 0a		 mov	 DWORD PTR [edx], ecx
  0001a	89 4a 04	 mov	 DWORD PTR [edx+4], ecx

; 69   :         __std_exception_copy(&_Other._Data, &_Data);

  0001d	8b 45 fc	 mov	 eax, DWORD PTR _this$[ebp]
  00020	83 c0 04	 add	 eax, 4
  00023	50		 push	 eax
  00024	8b 4d 08	 mov	 ecx, DWORD PTR __Other$[ebp]
  00027	83 c1 04	 add	 ecx, 4
  0002a	51		 push	 ecx
  0002b	e8 00 00 00 00	 call	 ___std_exception_copy
  00030	83 c4 08	 add	 esp, 8

; 70   :     }

  00033	8b 45 fc	 mov	 eax, DWORD PTR _this$[ebp]
  00036	8b e5		 mov	 esp, ebp
  00038	5d		 pop	 ebp
  00039	c2 04 00	 ret	 4
??0exception@std@@QAE@ABV01@@Z ENDP			; std::exception::exception
_TEXT	ENDS
; Function compile flags: /Odtp
; File c:\program files (x86)\microsoft visual studio\2017\community\vc\tools\msvc\14.16.27023\include\vcruntime_exception.h
;	COMDAT ??0exception@std@@QAE@QBD@Z
_TEXT	SEGMENT
__InitData$ = -12					; size = 8
_this$ = -4						; size = 4
__Message$ = 8						; size = 4
??0exception@std@@QAE@QBD@Z PROC			; std::exception::exception, COMDAT
; _this$ = ecx

; 55   :     {

  00000	55		 push	 ebp
  00001	8b ec		 mov	 ebp, esp
  00003	83 ec 0c	 sub	 esp, 12			; 0000000cH
  00006	89 4d fc	 mov	 DWORD PTR _this$[ebp], ecx
  00009	8b 45 fc	 mov	 eax, DWORD PTR _this$[ebp]
  0000c	c7 00 00 00 00
	00		 mov	 DWORD PTR [eax], OFFSET ??_7exception@std@@6B@

; 54   :         : _Data()

  00012	33 c9		 xor	 ecx, ecx
  00014	8b 55 fc	 mov	 edx, DWORD PTR _this$[ebp]
  00017	83 c2 04	 add	 edx, 4
  0001a	89 0a		 mov	 DWORD PTR [edx], ecx
  0001c	89 4a 04	 mov	 DWORD PTR [edx+4], ecx

; 56   :         __std_exception_data _InitData = { _Message, true };

  0001f	8b 45 08	 mov	 eax, DWORD PTR __Message$[ebp]
  00022	89 45 f4	 mov	 DWORD PTR __InitData$[ebp], eax
  00025	c6 45 f8 01	 mov	 BYTE PTR __InitData$[ebp+4], 1

; 57   :         __std_exception_copy(&_InitData, &_Data);

  00029	8b 4d fc	 mov	 ecx, DWORD PTR _this$[ebp]
  0002c	83 c1 04	 add	 ecx, 4
  0002f	51		 push	 ecx
  00030	8d 55 f4	 lea	 edx, DWORD PTR __InitData$[ebp]
  00033	52		 push	 edx
  00034	e8 00 00 00 00	 call	 ___std_exception_copy
  00039	83 c4 08	 add	 esp, 8

; 58   :     }

  0003c	8b 45 fc	 mov	 eax, DWORD PTR _this$[ebp]
  0003f	8b e5		 mov	 esp, ebp
  00041	5d		 pop	 ebp
  00042	c2 04 00	 ret	 4
??0exception@std@@QAE@QBD@Z ENDP			; std::exception::exception
_TEXT	ENDS
; Function compile flags: /Odtp
; File c:\program files (x86)\microsoft visual studio\2017\community\vc\tools\msvc\14.16.27023\include\vcruntime_new.h
;	COMDAT ??2@YAPAXIPAX@Z
_TEXT	SEGMENT
__Size$ = 8						; size = 4
__Where$ = 12						; size = 4
??2@YAPAXIPAX@Z PROC					; operator new, COMDAT

; 185  :     {

  00000	55		 push	 ebp
  00001	8b ec		 mov	 ebp, esp

; 186  :         (void)_Size;
; 187  :         return _Where;

  00003	8b 45 0c	 mov	 eax, DWORD PTR __Where$[ebp]

; 188  :     }

  00006	5d		 pop	 ebp
  00007	c3		 ret	 0
??2@YAPAXIPAX@Z ENDP					; operator new
_TEXT	ENDS
END
