; Listing generated by Microsoft (R) Optimizing Compiler Version 19.16.27030.1 

	TITLE	C:\Dev\Tetris\src\main.cpp
	.686P
	.XMM
	include listing.inc
	.model	flat

INCLUDELIB LIBCMT
INCLUDELIB OLDNAMES

CONST	SEGMENT
$SG53965 DB	'novem.ttf', 00H
	ORG $+2
$SG53966 DB	'Tetris', 00H
CONST	ENDS
PUBLIC	??0Game@core@@QAE@PBDHH0@Z			; core::Game::Game
PUBLIC	_wmain
EXTRN	??0Game@core@@QAE@PBDHHHH0@Z:PROC		; core::Game::Game
EXTRN	?MainLoop@Game@core@@QAEXXZ:PROC		; core::Game::MainLoop
EXTRN	?Clean@Game@core@@QAEXXZ:PROC			; core::Game::Clean
EXTRN	@__security_check_cookie@4:PROC
EXTRN	___security_cookie:DWORD
; Function compile flags: /Odtp
; File c:\dev\tetris\src\main.cpp
_TEXT	SEGMENT
_game$ = -88						; size = 84
__$ArrayPad$ = -4					; size = 4
_argc$ = 8						; size = 4
_argv$ = 12						; size = 4
_wmain	PROC

; 10   : {

  00000	55		 push	 ebp
  00001	8b ec		 mov	 ebp, esp
  00003	83 ec 58	 sub	 esp, 88			; 00000058H
  00006	a1 00 00 00 00	 mov	 eax, DWORD PTR ___security_cookie
  0000b	33 c5		 xor	 eax, ebp
  0000d	89 45 fc	 mov	 DWORD PTR __$ArrayPad$[ebp], eax

; 11   :     Game game("Tetris", 300, 720, "novem.ttf");

  00010	68 00 00 00 00	 push	 OFFSET $SG53965
  00015	68 d0 02 00 00	 push	 720			; 000002d0H
  0001a	68 2c 01 00 00	 push	 300			; 0000012cH
  0001f	68 00 00 00 00	 push	 OFFSET $SG53966
  00024	8d 4d a8	 lea	 ecx, DWORD PTR _game$[ebp]
  00027	e8 00 00 00 00	 call	 ??0Game@core@@QAE@PBDHH0@Z ; core::Game::Game

; 12   :     game.MainLoop();

  0002c	8d 4d a8	 lea	 ecx, DWORD PTR _game$[ebp]
  0002f	e8 00 00 00 00	 call	 ?MainLoop@Game@core@@QAEXXZ ; core::Game::MainLoop

; 13   :     game.Clean();

  00034	8d 4d a8	 lea	 ecx, DWORD PTR _game$[ebp]
  00037	e8 00 00 00 00	 call	 ?Clean@Game@core@@QAEXXZ ; core::Game::Clean

; 14   :     
; 15   :     return 0;

  0003c	33 c0		 xor	 eax, eax

; 16   : }

  0003e	8b 4d fc	 mov	 ecx, DWORD PTR __$ArrayPad$[ebp]
  00041	33 cd		 xor	 ecx, ebp
  00043	e8 00 00 00 00	 call	 @__security_check_cookie@4
  00048	8b e5		 mov	 esp, ebp
  0004a	5d		 pop	 ebp
  0004b	c3		 ret	 0
_wmain	ENDP
_TEXT	ENDS
; Function compile flags: /Odtp
; File c:\dev\tetris\src\game.hpp
;	COMDAT ??0Game@core@@QAE@PBDHH0@Z
_TEXT	SEGMENT
_this$ = -4						; size = 4
_t_title$ = 8						; size = 4
_t_windowWidth$ = 12					; size = 4
_t_windowHeight$ = 16					; size = 4
_t_fontName$ = 20					; size = 4
??0Game@core@@QAE@PBDHH0@Z PROC				; core::Game::Game, COMDAT
; _this$ = ecx

; 50   :                    t_windowWidth, t_windowHeight, t_fontName) {}

  00000	55		 push	 ebp
  00001	8b ec		 mov	 ebp, esp
  00003	51		 push	 ecx
  00004	89 4d fc	 mov	 DWORD PTR _this$[ebp], ecx

; 49   :             : Game(t_title, SDL_WINDOWPOS_UNDEFINED, SDL_WINDOWPOS_UNDEFINED, 

  00007	8b 45 14	 mov	 eax, DWORD PTR _t_fontName$[ebp]
  0000a	50		 push	 eax
  0000b	8b 4d 10	 mov	 ecx, DWORD PTR _t_windowHeight$[ebp]
  0000e	51		 push	 ecx
  0000f	8b 55 0c	 mov	 edx, DWORD PTR _t_windowWidth$[ebp]
  00012	52		 push	 edx
  00013	68 00 00 ff 1f	 push	 536805376		; 1fff0000H
  00018	68 00 00 ff 1f	 push	 536805376		; 1fff0000H
  0001d	8b 45 08	 mov	 eax, DWORD PTR _t_title$[ebp]
  00020	50		 push	 eax
  00021	8b 4d fc	 mov	 ecx, DWORD PTR _this$[ebp]
  00024	e8 00 00 00 00	 call	 ??0Game@core@@QAE@PBDHHHH0@Z ; core::Game::Game

; 50   :                    t_windowWidth, t_windowHeight, t_fontName) {}

  00029	8b 45 fc	 mov	 eax, DWORD PTR _this$[ebp]
  0002c	8b e5		 mov	 esp, ebp
  0002e	5d		 pop	 ebp
  0002f	c2 10 00	 ret	 16			; 00000010H
??0Game@core@@QAE@PBDHH0@Z ENDP				; core::Game::Game
_TEXT	ENDS
END
