; Listing generated by Microsoft (R) Optimizing Compiler Version 19.16.27030.1 

	TITLE	C:\Dev\Tetris\src\menu.cpp
	.686P
	.XMM
	include listing.inc
	.model	flat

INCLUDELIB LIBCMT
INCLUDELIB OLDNAMES

PUBLIC	?Update@Menu@core@@QAEXXZ			; core::Menu::Update
PUBLIC	?Render@Menu@core@@QAEXHH@Z			; core::Menu::Render
; Function compile flags: /Odtp
; File c:\dev\tetris\src\menu.cpp
_TEXT	SEGMENT
_this$ = -4						; size = 4
_t_xOffset$ = 8						; size = 4
_t_yOffset$ = 12					; size = 4
?Render@Menu@core@@QAEXHH@Z PROC			; core::Menu::Render
; _this$ = ecx

; 11   : {

  00000	55		 push	 ebp
  00001	8b ec		 mov	 ebp, esp
  00003	51		 push	 ecx
  00004	89 4d fc	 mov	 DWORD PTR _this$[ebp], ecx

; 12   :     
; 13   : }

  00007	8b e5		 mov	 esp, ebp
  00009	5d		 pop	 ebp
  0000a	c2 08 00	 ret	 8
?Render@Menu@core@@QAEXHH@Z ENDP			; core::Menu::Render
_TEXT	ENDS
; Function compile flags: /Odtp
; File c:\dev\tetris\src\menu.cpp
_TEXT	SEGMENT
_this$ = -4						; size = 4
?Update@Menu@core@@QAEXXZ PROC				; core::Menu::Update
; _this$ = ecx

; 6    : {

  00000	55		 push	 ebp
  00001	8b ec		 mov	 ebp, esp
  00003	51		 push	 ecx
  00004	89 4d fc	 mov	 DWORD PTR _this$[ebp], ecx

; 7    :     
; 8    : }

  00007	8b e5		 mov	 esp, ebp
  00009	5d		 pop	 ebp
  0000a	c3		 ret	 0
?Update@Menu@core@@QAEXXZ ENDP				; core::Menu::Update
_TEXT	ENDS
END
