; Listing generated by Microsoft (R) Optimizing Compiler Version 19.15.26726.0 

	TITLE	C:\Dev\Tetris\src\palette.cpp
	.686P
	.XMM
	include listing.inc
	.model	flat

INCLUDELIB LIBCMT
INCLUDELIB OLDNAMES

PUBLIC	??0Color@core@@QAE@EEEE@Z			; core::Color::Color
PUBLIC	?s_base@Palette@core@@2QBVColor@2@B		; core::Palette::s_base
PUBLIC	?s_light@Palette@core@@2QBVColor@2@B		; core::Palette::s_light
PUBLIC	?s_dark@Palette@core@@2QBVColor@2@B		; core::Palette::s_dark
PUBLIC	?s_highlightColor@Palette@core@@2VColor@2@B	; core::Palette::s_highlightColor
_DATA	SEGMENT
?s_base@Palette@core@@2QBVColor@2@B DB 028H		; core::Palette::s_base
	DB	028H
	DB	028H
	DB	0ffH
	DB	02dH
	DB	099H
	DB	099H
	DB	0ffH
	DB	099H
	DB	099H
	DB	02dH
	DB	0ffH
	DB	099H
	DB	02dH
	DB	099H
	DB	0ffH
	DB	02dH
	DB	099H
	DB	051H
	DB	0ffH
	DB	099H
	DB	02dH
	DB	02dH
	DB	0ffH
	DB	02dH
	DB	063H
	DB	099H
	DB	0ffH
	DB	099H
	DB	063H
	DB	02dH
	DB	0ffH
?s_light@Palette@core@@2QBVColor@2@B DB 028H		; core::Palette::s_light
	DB	028H
	DB	028H
	DB	0ffH
	DB	044H
	DB	0e5H
	DB	0e5H
	DB	0ffH
	DB	0e5H
	DB	0e5H
	DB	044H
	DB	0ffH
	DB	0e5H
	DB	044H
	DB	0e5H
	DB	0ffH
	DB	044H
	DB	0e5H
	DB	07aH
	DB	0ffH
	DB	0e5H
	DB	044H
	DB	044H
	DB	0ffH
	DB	044H
	DB	095H
	DB	0e5H
	DB	0ffH
	DB	0e5H
	DB	095H
	DB	044H
	DB	0ffH
?s_dark@Palette@core@@2QBVColor@2@B DB 028H		; core::Palette::s_dark
	DB	028H
	DB	028H
	DB	0ffH
	DB	01eH
	DB	066H
	DB	066H
	DB	0ffH
	DB	066H
	DB	066H
	DB	01eH
	DB	0ffH
	DB	066H
	DB	01eH
	DB	066H
	DB	0ffH
	DB	01eH
	DB	066H
	DB	036H
	DB	0ffH
	DB	066H
	DB	01eH
	DB	01eH
	DB	0ffH
	DB	01eH
	DB	042H
	DB	066H
	DB	0ffH
	DB	066H
	DB	042H
	DB	01eH
	DB	0ffH
?s_highlightColor@Palette@core@@2VColor@2@B DB 0ffH	; core::Palette::s_highlightColor
	DB	0ffH
	DB	0ffH
	DB	0ffH
_DATA	ENDS
; Function compile flags: /Ogtpy
; File c:\dev\tetris\src\color.hpp
;	COMDAT ??0Color@core@@QAE@EEEE@Z
_TEXT	SEGMENT
_r$ = 8							; size = 1
_g$ = 12						; size = 1
_b$ = 16						; size = 1
_a$ = 20						; size = 1
??0Color@core@@QAE@EEEE@Z PROC				; core::Color::Color, COMDAT
; _this$ = ecx

; 25   :         {
; 26   :             this->r = r;

  00000	8a 44 24 04	 mov	 al, BYTE PTR _r$[esp-4]
  00004	88 01		 mov	 BYTE PTR [ecx], al

; 27   :             this->g = g;

  00006	8a 44 24 08	 mov	 al, BYTE PTR _g$[esp-4]
  0000a	88 41 01	 mov	 BYTE PTR [ecx+1], al

; 28   :             this->b = b;

  0000d	8a 44 24 0c	 mov	 al, BYTE PTR _b$[esp-4]
  00011	88 41 02	 mov	 BYTE PTR [ecx+2], al

; 29   :             this->a = a;

  00014	8a 44 24 10	 mov	 al, BYTE PTR _a$[esp-4]
  00018	88 41 03	 mov	 BYTE PTR [ecx+3], al

; 30   :         }

  0001b	8b c1		 mov	 eax, ecx
  0001d	c2 10 00	 ret	 16			; 00000010H
??0Color@core@@QAE@EEEE@Z ENDP				; core::Color::Color
_TEXT	ENDS
END
