; Listing generated by Microsoft (R) Optimizing Compiler Version 19.16.27030.1 

	TITLE	C:\Dev\Tetris\src\palette.cpp
	.686P
	.XMM
	include listing.inc
	.model	flat

INCLUDELIB LIBCMT
INCLUDELIB OLDNAMES

PUBLIC	??0Color@core@@QAE@EEEE@Z			; core::Color::Color
PUBLIC	?s_base@Palette@core@@2QBVColor@2@B		; core::Palette::s_base
PUBLIC	?s_light@Palette@core@@2QBVColor@2@B		; core::Palette::s_light
PUBLIC	?s_dark@Palette@core@@2QBVColor@2@B		; core::Palette::s_dark
PUBLIC	?s_highlightColor@Palette@core@@2VColor@2@B	; core::Palette::s_highlightColor
PUBLIC	?s_backColor@Palette@core@@2VColor@2@B		; core::Palette::s_backColor
_BSS	SEGMENT
?s_base@Palette@core@@2QBVColor@2@B DD 08H DUP (?)	; core::Palette::s_base
?s_light@Palette@core@@2QBVColor@2@B DD 08H DUP (?)	; core::Palette::s_light
?s_dark@Palette@core@@2QBVColor@2@B DD 08H DUP (?)	; core::Palette::s_dark
?s_highlightColor@Palette@core@@2VColor@2@B DD 01H DUP (?) ; core::Palette::s_highlightColor
?s_backColor@Palette@core@@2VColor@2@B DD 01H DUP (?)	; core::Palette::s_backColor
_BSS	ENDS
CRT$XCU	SEGMENT
??s_base$initializer$@Palette@core@@2P6AXXZA@@3P6AXXZA DD FLAT:??__E?s_base@Palette@core@@2QBVColor@2@B@@YAXXZ ; ??s_base$initializer$@Palette@core@@2P6AXXZA@@3P6AXXZA
CRT$XCU	ENDS
CRT$XCU	SEGMENT
??s_light$initializer$@Palette@core@@2P6AXXZA@@3P6AXXZA DD FLAT:??__E?s_light@Palette@core@@2QBVColor@2@B@@YAXXZ ; ??s_light$initializer$@Palette@core@@2P6AXXZA@@3P6AXXZA
CRT$XCU	ENDS
CRT$XCU	SEGMENT
??s_dark$initializer$@Palette@core@@2P6AXXZA@@3P6AXXZA DD FLAT:??__E?s_dark@Palette@core@@2QBVColor@2@B@@YAXXZ ; ??s_dark$initializer$@Palette@core@@2P6AXXZA@@3P6AXXZA
CRT$XCU	ENDS
CRT$XCU	SEGMENT
??s_highlightColor$initializer$@Palette@core@@2P6AXXZA@@3P6AXXZA DD FLAT:??__E?s_highlightColor@Palette@core@@2VColor@2@B@@YAXXZ ; ??s_highlightColor$initializer$@Palette@core@@2P6AXXZA@@3P6AXXZA
CRT$XCU	ENDS
CRT$XCU	SEGMENT
??s_backColor$initializer$@Palette@core@@2P6AXXZA@@3P6AXXZA DD FLAT:??__E?s_backColor@Palette@core@@2VColor@2@B@@YAXXZ ; ??s_backColor$initializer$@Palette@core@@2P6AXXZA@@3P6AXXZA
CRT$XCU	ENDS
; Function compile flags: /Odtp
; File c:\dev\tetris\src\palette.cpp
;	COMDAT ??__E?s_backColor@Palette@core@@2VColor@2@B@@YAXXZ
text$di	SEGMENT
??__E?s_backColor@Palette@core@@2VColor@2@B@@YAXXZ PROC	; `dynamic initializer for 'core::Palette::s_backColor'', COMDAT

; 39   : const Color Palette::s_backColor(100, 100, 100, 255);

  00000	55		 push	 ebp
  00001	8b ec		 mov	 ebp, esp
  00003	68 ff 00 00 00	 push	 255			; 000000ffH
  00008	6a 64		 push	 100			; 00000064H
  0000a	6a 64		 push	 100			; 00000064H
  0000c	6a 64		 push	 100			; 00000064H
  0000e	b9 00 00 00 00	 mov	 ecx, OFFSET ?s_backColor@Palette@core@@2VColor@2@B ; core::Palette::s_backColor
  00013	e8 00 00 00 00	 call	 ??0Color@core@@QAE@EEEE@Z ; core::Color::Color
  00018	5d		 pop	 ebp
  00019	c3		 ret	 0
??__E?s_backColor@Palette@core@@2VColor@2@B@@YAXXZ ENDP	; `dynamic initializer for 'core::Palette::s_backColor''
text$di	ENDS
; Function compile flags: /Odtp
; File c:\dev\tetris\src\palette.cpp
;	COMDAT ??__E?s_highlightColor@Palette@core@@2VColor@2@B@@YAXXZ
text$di	SEGMENT
??__E?s_highlightColor@Palette@core@@2VColor@2@B@@YAXXZ PROC ; `dynamic initializer for 'core::Palette::s_highlightColor'', COMDAT

; 38   : const Color Palette::s_highlightColor(255, 255, 255, 255);

  00000	55		 push	 ebp
  00001	8b ec		 mov	 ebp, esp
  00003	68 ff 00 00 00	 push	 255			; 000000ffH
  00008	68 ff 00 00 00	 push	 255			; 000000ffH
  0000d	68 ff 00 00 00	 push	 255			; 000000ffH
  00012	68 ff 00 00 00	 push	 255			; 000000ffH
  00017	b9 00 00 00 00	 mov	 ecx, OFFSET ?s_highlightColor@Palette@core@@2VColor@2@B ; core::Palette::s_highlightColor
  0001c	e8 00 00 00 00	 call	 ??0Color@core@@QAE@EEEE@Z ; core::Color::Color
  00021	5d		 pop	 ebp
  00022	c3		 ret	 0
??__E?s_highlightColor@Palette@core@@2VColor@2@B@@YAXXZ ENDP ; `dynamic initializer for 'core::Palette::s_highlightColor''
text$di	ENDS
; Function compile flags: /Odtp
; File c:\dev\tetris\src\palette.cpp
;	COMDAT ??__E?s_dark@Palette@core@@2QBVColor@2@B@@YAXXZ
text$di	SEGMENT
??__E?s_dark@Palette@core@@2QBVColor@2@B@@YAXXZ PROC	; `dynamic initializer for 'core::Palette::s_dark'', COMDAT

; 36   : };

  00000	55		 push	 ebp
  00001	8b ec		 mov	 ebp, esp

; 28   :     Color(0x28, 0x28, 0x28, 0xFF),

  00003	68 ff 00 00 00	 push	 255			; 000000ffH
  00008	6a 28		 push	 40			; 00000028H
  0000a	6a 28		 push	 40			; 00000028H
  0000c	6a 28		 push	 40			; 00000028H
  0000e	b9 00 00 00 00	 mov	 ecx, OFFSET ?s_dark@Palette@core@@2QBVColor@2@B ; core::Palette::s_dark
  00013	e8 00 00 00 00	 call	 ??0Color@core@@QAE@EEEE@Z ; core::Color::Color

; 29   :     Color(0x1E, 0x66, 0x66, 0xFF),

  00018	68 ff 00 00 00	 push	 255			; 000000ffH
  0001d	6a 66		 push	 102			; 00000066H
  0001f	6a 66		 push	 102			; 00000066H
  00021	6a 1e		 push	 30			; 0000001eH
  00023	b9 04 00 00 00	 mov	 ecx, OFFSET ?s_dark@Palette@core@@2QBVColor@2@B+4
  00028	e8 00 00 00 00	 call	 ??0Color@core@@QAE@EEEE@Z ; core::Color::Color

; 30   :     Color(0x66, 0x66, 0x1E, 0xFF),

  0002d	68 ff 00 00 00	 push	 255			; 000000ffH
  00032	6a 1e		 push	 30			; 0000001eH
  00034	6a 66		 push	 102			; 00000066H
  00036	6a 66		 push	 102			; 00000066H
  00038	b9 08 00 00 00	 mov	 ecx, OFFSET ?s_dark@Palette@core@@2QBVColor@2@B+8
  0003d	e8 00 00 00 00	 call	 ??0Color@core@@QAE@EEEE@Z ; core::Color::Color

; 31   :     Color(0x66, 0x1E, 0x66, 0xFF),

  00042	68 ff 00 00 00	 push	 255			; 000000ffH
  00047	6a 66		 push	 102			; 00000066H
  00049	6a 1e		 push	 30			; 0000001eH
  0004b	6a 66		 push	 102			; 00000066H
  0004d	b9 0c 00 00 00	 mov	 ecx, OFFSET ?s_dark@Palette@core@@2QBVColor@2@B+12
  00052	e8 00 00 00 00	 call	 ??0Color@core@@QAE@EEEE@Z ; core::Color::Color

; 32   :     Color(0x1E, 0x66, 0x36, 0xFF),

  00057	68 ff 00 00 00	 push	 255			; 000000ffH
  0005c	6a 36		 push	 54			; 00000036H
  0005e	6a 66		 push	 102			; 00000066H
  00060	6a 1e		 push	 30			; 0000001eH
  00062	b9 10 00 00 00	 mov	 ecx, OFFSET ?s_dark@Palette@core@@2QBVColor@2@B+16
  00067	e8 00 00 00 00	 call	 ??0Color@core@@QAE@EEEE@Z ; core::Color::Color

; 33   :     Color(0x66, 0x1E, 0x1E, 0xFF),

  0006c	68 ff 00 00 00	 push	 255			; 000000ffH
  00071	6a 1e		 push	 30			; 0000001eH
  00073	6a 1e		 push	 30			; 0000001eH
  00075	6a 66		 push	 102			; 00000066H
  00077	b9 14 00 00 00	 mov	 ecx, OFFSET ?s_dark@Palette@core@@2QBVColor@2@B+20
  0007c	e8 00 00 00 00	 call	 ??0Color@core@@QAE@EEEE@Z ; core::Color::Color

; 34   :     Color(0x1E, 0x42, 0x66, 0xFF),

  00081	68 ff 00 00 00	 push	 255			; 000000ffH
  00086	6a 66		 push	 102			; 00000066H
  00088	6a 42		 push	 66			; 00000042H
  0008a	6a 1e		 push	 30			; 0000001eH
  0008c	b9 18 00 00 00	 mov	 ecx, OFFSET ?s_dark@Palette@core@@2QBVColor@2@B+24
  00091	e8 00 00 00 00	 call	 ??0Color@core@@QAE@EEEE@Z ; core::Color::Color

; 35   :     Color(0x66, 0x42, 0x1E, 0xFF)

  00096	68 ff 00 00 00	 push	 255			; 000000ffH
  0009b	6a 1e		 push	 30			; 0000001eH
  0009d	6a 42		 push	 66			; 00000042H
  0009f	6a 66		 push	 102			; 00000066H
  000a1	b9 1c 00 00 00	 mov	 ecx, OFFSET ?s_dark@Palette@core@@2QBVColor@2@B+28
  000a6	e8 00 00 00 00	 call	 ??0Color@core@@QAE@EEEE@Z ; core::Color::Color
  000ab	5d		 pop	 ebp
  000ac	c3		 ret	 0
??__E?s_dark@Palette@core@@2QBVColor@2@B@@YAXXZ ENDP	; `dynamic initializer for 'core::Palette::s_dark''
text$di	ENDS
; Function compile flags: /Odtp
; File c:\dev\tetris\src\palette.cpp
;	COMDAT ??__E?s_light@Palette@core@@2QBVColor@2@B@@YAXXZ
text$di	SEGMENT
??__E?s_light@Palette@core@@2QBVColor@2@B@@YAXXZ PROC	; `dynamic initializer for 'core::Palette::s_light'', COMDAT

; 25   : };

  00000	55		 push	 ebp
  00001	8b ec		 mov	 ebp, esp

; 17   :     Color(0x28, 0x28, 0x28, 0xFF),

  00003	68 ff 00 00 00	 push	 255			; 000000ffH
  00008	6a 28		 push	 40			; 00000028H
  0000a	6a 28		 push	 40			; 00000028H
  0000c	6a 28		 push	 40			; 00000028H
  0000e	b9 00 00 00 00	 mov	 ecx, OFFSET ?s_light@Palette@core@@2QBVColor@2@B ; core::Palette::s_light
  00013	e8 00 00 00 00	 call	 ??0Color@core@@QAE@EEEE@Z ; core::Color::Color

; 18   :     Color(0x44, 0xE5, 0xE5, 0xFF),

  00018	68 ff 00 00 00	 push	 255			; 000000ffH
  0001d	68 e5 00 00 00	 push	 229			; 000000e5H
  00022	68 e5 00 00 00	 push	 229			; 000000e5H
  00027	6a 44		 push	 68			; 00000044H
  00029	b9 04 00 00 00	 mov	 ecx, OFFSET ?s_light@Palette@core@@2QBVColor@2@B+4
  0002e	e8 00 00 00 00	 call	 ??0Color@core@@QAE@EEEE@Z ; core::Color::Color

; 19   :     Color(0xE5, 0xE5, 0x44, 0xFF),

  00033	68 ff 00 00 00	 push	 255			; 000000ffH
  00038	6a 44		 push	 68			; 00000044H
  0003a	68 e5 00 00 00	 push	 229			; 000000e5H
  0003f	68 e5 00 00 00	 push	 229			; 000000e5H
  00044	b9 08 00 00 00	 mov	 ecx, OFFSET ?s_light@Palette@core@@2QBVColor@2@B+8
  00049	e8 00 00 00 00	 call	 ??0Color@core@@QAE@EEEE@Z ; core::Color::Color

; 20   :     Color(0xE5, 0x44, 0xE5, 0xFF),

  0004e	68 ff 00 00 00	 push	 255			; 000000ffH
  00053	68 e5 00 00 00	 push	 229			; 000000e5H
  00058	6a 44		 push	 68			; 00000044H
  0005a	68 e5 00 00 00	 push	 229			; 000000e5H
  0005f	b9 0c 00 00 00	 mov	 ecx, OFFSET ?s_light@Palette@core@@2QBVColor@2@B+12
  00064	e8 00 00 00 00	 call	 ??0Color@core@@QAE@EEEE@Z ; core::Color::Color

; 21   :     Color(0x44, 0xE5, 0x7A, 0xFF),

  00069	68 ff 00 00 00	 push	 255			; 000000ffH
  0006e	6a 7a		 push	 122			; 0000007aH
  00070	68 e5 00 00 00	 push	 229			; 000000e5H
  00075	6a 44		 push	 68			; 00000044H
  00077	b9 10 00 00 00	 mov	 ecx, OFFSET ?s_light@Palette@core@@2QBVColor@2@B+16
  0007c	e8 00 00 00 00	 call	 ??0Color@core@@QAE@EEEE@Z ; core::Color::Color

; 22   :     Color(0xE5, 0x44, 0x44, 0xFF),

  00081	68 ff 00 00 00	 push	 255			; 000000ffH
  00086	6a 44		 push	 68			; 00000044H
  00088	6a 44		 push	 68			; 00000044H
  0008a	68 e5 00 00 00	 push	 229			; 000000e5H
  0008f	b9 14 00 00 00	 mov	 ecx, OFFSET ?s_light@Palette@core@@2QBVColor@2@B+20
  00094	e8 00 00 00 00	 call	 ??0Color@core@@QAE@EEEE@Z ; core::Color::Color

; 23   :     Color(0x44, 0x95, 0xE5, 0xFF),

  00099	68 ff 00 00 00	 push	 255			; 000000ffH
  0009e	68 e5 00 00 00	 push	 229			; 000000e5H
  000a3	68 95 00 00 00	 push	 149			; 00000095H
  000a8	6a 44		 push	 68			; 00000044H
  000aa	b9 18 00 00 00	 mov	 ecx, OFFSET ?s_light@Palette@core@@2QBVColor@2@B+24
  000af	e8 00 00 00 00	 call	 ??0Color@core@@QAE@EEEE@Z ; core::Color::Color

; 24   :     Color(0xE5, 0x95, 0x44, 0xFF)

  000b4	68 ff 00 00 00	 push	 255			; 000000ffH
  000b9	6a 44		 push	 68			; 00000044H
  000bb	68 95 00 00 00	 push	 149			; 00000095H
  000c0	68 e5 00 00 00	 push	 229			; 000000e5H
  000c5	b9 1c 00 00 00	 mov	 ecx, OFFSET ?s_light@Palette@core@@2QBVColor@2@B+28
  000ca	e8 00 00 00 00	 call	 ??0Color@core@@QAE@EEEE@Z ; core::Color::Color
  000cf	5d		 pop	 ebp
  000d0	c3		 ret	 0
??__E?s_light@Palette@core@@2QBVColor@2@B@@YAXXZ ENDP	; `dynamic initializer for 'core::Palette::s_light''
text$di	ENDS
; Function compile flags: /Odtp
; File c:\dev\tetris\src\palette.cpp
;	COMDAT ??__E?s_base@Palette@core@@2QBVColor@2@B@@YAXXZ
text$di	SEGMENT
??__E?s_base@Palette@core@@2QBVColor@2@B@@YAXXZ PROC	; `dynamic initializer for 'core::Palette::s_base'', COMDAT

; 14   : };

  00000	55		 push	 ebp
  00001	8b ec		 mov	 ebp, esp

; 6    :     Color(0x28, 0x28, 0x28, 0xFF),

  00003	68 ff 00 00 00	 push	 255			; 000000ffH
  00008	6a 28		 push	 40			; 00000028H
  0000a	6a 28		 push	 40			; 00000028H
  0000c	6a 28		 push	 40			; 00000028H
  0000e	b9 00 00 00 00	 mov	 ecx, OFFSET ?s_base@Palette@core@@2QBVColor@2@B ; core::Palette::s_base
  00013	e8 00 00 00 00	 call	 ??0Color@core@@QAE@EEEE@Z ; core::Color::Color

; 7    :     Color(0x2D, 0x99, 0x99, 0xFF),

  00018	68 ff 00 00 00	 push	 255			; 000000ffH
  0001d	68 99 00 00 00	 push	 153			; 00000099H
  00022	68 99 00 00 00	 push	 153			; 00000099H
  00027	6a 2d		 push	 45			; 0000002dH
  00029	b9 04 00 00 00	 mov	 ecx, OFFSET ?s_base@Palette@core@@2QBVColor@2@B+4
  0002e	e8 00 00 00 00	 call	 ??0Color@core@@QAE@EEEE@Z ; core::Color::Color

; 8    :     Color(0x99, 0x99, 0x2D, 0xFF),

  00033	68 ff 00 00 00	 push	 255			; 000000ffH
  00038	6a 2d		 push	 45			; 0000002dH
  0003a	68 99 00 00 00	 push	 153			; 00000099H
  0003f	68 99 00 00 00	 push	 153			; 00000099H
  00044	b9 08 00 00 00	 mov	 ecx, OFFSET ?s_base@Palette@core@@2QBVColor@2@B+8
  00049	e8 00 00 00 00	 call	 ??0Color@core@@QAE@EEEE@Z ; core::Color::Color

; 9    :     Color(0x99, 0x2D, 0x99, 0xFF),

  0004e	68 ff 00 00 00	 push	 255			; 000000ffH
  00053	68 99 00 00 00	 push	 153			; 00000099H
  00058	6a 2d		 push	 45			; 0000002dH
  0005a	68 99 00 00 00	 push	 153			; 00000099H
  0005f	b9 0c 00 00 00	 mov	 ecx, OFFSET ?s_base@Palette@core@@2QBVColor@2@B+12
  00064	e8 00 00 00 00	 call	 ??0Color@core@@QAE@EEEE@Z ; core::Color::Color

; 10   :     Color(0x2D, 0x99, 0x51, 0xFF),

  00069	68 ff 00 00 00	 push	 255			; 000000ffH
  0006e	6a 51		 push	 81			; 00000051H
  00070	68 99 00 00 00	 push	 153			; 00000099H
  00075	6a 2d		 push	 45			; 0000002dH
  00077	b9 10 00 00 00	 mov	 ecx, OFFSET ?s_base@Palette@core@@2QBVColor@2@B+16
  0007c	e8 00 00 00 00	 call	 ??0Color@core@@QAE@EEEE@Z ; core::Color::Color

; 11   :     Color(0x99, 0x2D, 0x2D, 0xFF),

  00081	68 ff 00 00 00	 push	 255			; 000000ffH
  00086	6a 2d		 push	 45			; 0000002dH
  00088	6a 2d		 push	 45			; 0000002dH
  0008a	68 99 00 00 00	 push	 153			; 00000099H
  0008f	b9 14 00 00 00	 mov	 ecx, OFFSET ?s_base@Palette@core@@2QBVColor@2@B+20
  00094	e8 00 00 00 00	 call	 ??0Color@core@@QAE@EEEE@Z ; core::Color::Color

; 12   :     Color(0x2D, 0x63, 0x99, 0xFF),

  00099	68 ff 00 00 00	 push	 255			; 000000ffH
  0009e	68 99 00 00 00	 push	 153			; 00000099H
  000a3	6a 63		 push	 99			; 00000063H
  000a5	6a 2d		 push	 45			; 0000002dH
  000a7	b9 18 00 00 00	 mov	 ecx, OFFSET ?s_base@Palette@core@@2QBVColor@2@B+24
  000ac	e8 00 00 00 00	 call	 ??0Color@core@@QAE@EEEE@Z ; core::Color::Color

; 13   :     Color(0x99, 0x63, 0x2D, 0xFF)

  000b1	68 ff 00 00 00	 push	 255			; 000000ffH
  000b6	6a 2d		 push	 45			; 0000002dH
  000b8	6a 63		 push	 99			; 00000063H
  000ba	68 99 00 00 00	 push	 153			; 00000099H
  000bf	b9 1c 00 00 00	 mov	 ecx, OFFSET ?s_base@Palette@core@@2QBVColor@2@B+28
  000c4	e8 00 00 00 00	 call	 ??0Color@core@@QAE@EEEE@Z ; core::Color::Color
  000c9	5d		 pop	 ebp
  000ca	c3		 ret	 0
??__E?s_base@Palette@core@@2QBVColor@2@B@@YAXXZ ENDP	; `dynamic initializer for 'core::Palette::s_base''
text$di	ENDS
; Function compile flags: /Odtp
; File c:\dev\tetris\src\color.hpp
;	COMDAT ??0Color@core@@QAE@EEEE@Z
_TEXT	SEGMENT
_this$ = -4						; size = 4
_r$ = 8							; size = 1
_g$ = 12						; size = 1
_b$ = 16						; size = 1
_a$ = 20						; size = 1
??0Color@core@@QAE@EEEE@Z PROC				; core::Color::Color, COMDAT
; _this$ = ecx

; 24   :         Color(u8 r, u8 g, u8 b, u8 a)

  00000	55		 push	 ebp
  00001	8b ec		 mov	 ebp, esp
  00003	51		 push	 ecx
  00004	89 4d fc	 mov	 DWORD PTR _this$[ebp], ecx

; 25   :         {
; 26   :             this->r = r;

  00007	8b 45 fc	 mov	 eax, DWORD PTR _this$[ebp]
  0000a	8a 4d 08	 mov	 cl, BYTE PTR _r$[ebp]
  0000d	88 08		 mov	 BYTE PTR [eax], cl

; 27   :             this->g = g;

  0000f	8b 55 fc	 mov	 edx, DWORD PTR _this$[ebp]
  00012	8a 45 0c	 mov	 al, BYTE PTR _g$[ebp]
  00015	88 42 01	 mov	 BYTE PTR [edx+1], al

; 28   :             this->b = b;

  00018	8b 4d fc	 mov	 ecx, DWORD PTR _this$[ebp]
  0001b	8a 55 10	 mov	 dl, BYTE PTR _b$[ebp]
  0001e	88 51 02	 mov	 BYTE PTR [ecx+2], dl

; 29   :             this->a = a;

  00021	8b 45 fc	 mov	 eax, DWORD PTR _this$[ebp]
  00024	8a 4d 14	 mov	 cl, BYTE PTR _a$[ebp]
  00027	88 48 03	 mov	 BYTE PTR [eax+3], cl

; 30   :         }

  0002a	8b 45 fc	 mov	 eax, DWORD PTR _this$[ebp]
  0002d	8b e5		 mov	 esp, ebp
  0002f	5d		 pop	 ebp
  00030	c2 10 00	 ret	 16			; 00000010H
??0Color@core@@QAE@EEEE@Z ENDP				; core::Color::Color
_TEXT	ENDS
END
